	.syntax unified
	.cpu cortex-m3
	.fpu softvfp
	.eabi_attribute 20, 1	@ Tag_ABI_FP_denormal
	.eabi_attribute 21, 1	@ Tag_ABI_FP_exceptions
	.eabi_attribute 23, 3	@ Tag_ABI_FP_number_model
	.eabi_attribute 24, 1	@ Tag_ABI_align8_needed
	.eabi_attribute 25, 1	@ Tag_ABI_align8_preserved
	.eabi_attribute 26, 1	@ Tag_ABI_enum_size
	.eabi_attribute 30, 4	@ Tag_ABI_optimization_goals
	.eabi_attribute 34, 1	@ Tag_CPU_unaligned_access
	.eabi_attribute 18, 4	@ Tag_ABI_PCS_wchar_t
	.file	"maths.c"
@ GNU C (GNU Tools for ARM Embedded Processors) version 4.8.4 20140526 (release) [ARM/embedded-4_8-branch revision 211358] (arm-none-eabi)
@	compiled by GNU C version 4.6.4, GMP version 4.3.2, MPFR version 2.4.2, MPC version 0.8.1
@ GGC heuristics: --param ggc-min-expand=100 --param ggc-min-heapsize=131072
@ options passed:  -fpreprocessed obj/main/NAZE/common/maths.i -mthumb
@ -mcpu=cortex-m3 -auxbase-strip obj/main/NAZE/common/maths.o -ggdb3 -Os
@ -Wall -Wpedantic -Wextra -Wunsafe-loop-optimizations -Wdouble-promotion
@ -Wundef -std=gnu99 -flto -fuse-linker-plugin -ffunction-sections
@ -fdata-sections -fverbose-asm -ffat-lto-objects
@ options enabled:  -faggressive-loop-optimizations -fauto-inc-dec
@ -fbranch-count-reg -fcaller-saves -fcombine-stack-adjustments -fcommon
@ -fcompare-elim -fcprop-registers -fcrossjumping -fcse-follow-jumps
@ -fdata-sections -fdefer-pop -fdelete-null-pointer-checks -fdevirtualize
@ -fdwarf2-cfi-asm -fearly-inlining -feliminate-unused-debug-types
@ -fexpensive-optimizations -fforward-propagate -ffunction-cse
@ -ffunction-sections -fgcse -fgcse-lm -fgnu-runtime
@ -fguess-branch-probability -fhoist-adjacent-loads -fident -fif-conversion
@ -fif-conversion2 -findirect-inlining -finline -finline-atomics
@ -finline-functions -finline-functions-called-once
@ -finline-small-functions -fipa-cp -fipa-profile -fipa-pure-const
@ -fipa-reference -fipa-sra -fira-hoist-pressure -fira-share-save-slots
@ -fira-share-spill-slots -fivopts -fkeep-static-consts
@ -fleading-underscore -fmath-errno -fmerge-constants -fmerge-debug-strings
@ -fomit-frame-pointer -foptimize-register-move -foptimize-sibling-calls
@ -fpartial-inlining -fpeephole -fpeephole2 -fprefetch-loop-arrays
@ -freg-struct-return -fregmove -freorder-blocks -freorder-functions
@ -frerun-cse-after-loop -fsched-critical-path-heuristic
@ -fsched-dep-count-heuristic -fsched-group-heuristic -fsched-interblock
@ -fsched-last-insn-heuristic -fsched-pressure -fsched-rank-heuristic
@ -fsched-spec -fsched-spec-insn-heuristic -fsched-stalled-insns-dep
@ -fschedule-insns2 -fsection-anchors -fshow-column -fshrink-wrap
@ -fsigned-zeros -fsplit-ivs-in-unroller -fsplit-wide-types
@ -fstrict-aliasing -fstrict-overflow -fstrict-volatile-bitfields
@ -fsync-libcalls -fthread-jumps -ftoplevel-reorder -ftrapping-math
@ -ftree-bit-ccp -ftree-builtin-call-dce -ftree-ccp -ftree-ch
@ -ftree-coalesce-vars -ftree-copy-prop -ftree-copyrename -ftree-cselim
@ -ftree-dce -ftree-dominator-opts -ftree-dse -ftree-forwprop -ftree-fre
@ -ftree-loop-if-convert -ftree-loop-im -ftree-loop-ivcanon
@ -ftree-loop-optimize -ftree-parallelize-loops= -ftree-phiprop -ftree-pre
@ -ftree-pta -ftree-reassoc -ftree-scev-cprop -ftree-sink
@ -ftree-slp-vectorize -ftree-slsr -ftree-sra -ftree-switch-conversion
@ -ftree-tail-merge -ftree-ter -ftree-vect-loop-version -ftree-vrp
@ -funit-at-a-time -fvar-tracking -fvar-tracking-assignments -fverbose-asm
@ -fzero-initialized-in-bss -mfix-cortex-m3-ldrd -mlittle-endian
@ -mpic-data-is-text-relative -msched-prolog -mthumb -munaligned-access
@ -mvectorize-with-neon-quad

	.text
.Ltext0:
	.section	.gnu.lto_.jmpfuncs.511c89c5,"",%progbits
	.ascii	"x\234cb`b\300\006z\241\2648\003##3\023\020\003\331e"
	.ascii	"\014\014\314@\226\024\303\314\206\216\206\011\034\014"
	.ascii	"\014\015\333\366\237\340\311d\004J900\2600\2632\002"
	.ascii	"\231l\314L0\265\014\014\214@\212\235\235\203\235\223"
	.ascii	"\221\213\231\233\221\007$\0171\211\221\201\227\221O"
	.ascii	"\236\237\031( \000\"\320\220 \330\020\3062\220\321B"
	.ascii	"\214\302\214\"\214\242\214b\374\014\000\024\273\012"
	.ascii	"\275"
	.text
	.section	.gnu.lto_.inline.511c89c5,"",%progbits
	.ascii	"x\234\215T\315k\023Q\020\237y\357\355f7\3314k\023\333"
	.ascii	"&\015$`\244\036j\211\210'\213\004\024\2179{\360Pi+\364"
	.ascii	"\177\020\3111\024\0179\211B\321\265^z\366TPa\217\361"
	.ascii	"\246T\004\241\352\245\207\010=\210_\007\361\340\314"
	.ascii	"\354G\2625\210\201\314\314\2337\363\233y\277\031V\201"
	.ascii	"\202i\277g&\322\363\000\213o\000A\265\177\277u\301\016"
	.ascii	"\032\022\216\340Zh\303\346\015\334Bd\307Fj\255\247\326"
	.ascii	"\355\324b!\226\315\177\3060A\243\003f\277\320q@\335"
	.ascii	"S!\372\244\277\272!JU\005\371\"\205s\202N\022\234\360"
	.ascii	"\212\334i\217\240\006]\015\271\322\311\020\365\2724"
	.ascii	"\031b\340\3142\332\270^\203\207=\207\334[\322\005\334"
	.ascii	"\302'X\343>3~ \377.\373\307\015\273\255\341\241\006"
	.ascii	"C\335\330_V:\214\336C\360\006\335\220\310\3301\206\237"
	.ascii	"\320C\017\324\241\345\223\014\032mO\250\261`\266\212"
	.ascii	"z\012\374S)\313'\213\260\004\270\022\354\240\317\010"
	.ascii	"\206\001\242\374\270{\2339Pc\346L\346\225T\333\343`"
	.ascii	"S$\266\006\335A7\0079\213\252\246\341*\223#\341\246"
	.ascii	"_\256p\216\363\377\241.\030M\257\305\021\301\367\227"
	.ascii	"\244\275<,TiJ\224\243{\302\277\036S\246;\005\347\345"
	.ascii	"Y\230\371p\215\032\037\345\214\002\367\301U\212\015"
	.ascii	"lG\211\004\025z\0134\312]\254\363\271)\336&{W\031\242"
	.ascii	"\000y\237\260e\253\250+.\2601aO\324\\s\222~\251\216"
	.ascii	"\257\300\352/\371\200{v\223j\212\242wT}f\365n[v\302"
	.ascii	"\003\267\206\262\352\311\012'\213\024\251\"X\346\344"
	.ascii	">\021\025\222;\003\2052\3225\337e\327Y\250\313e\250"
	.ascii	"\243\361\264Y\254\262X\003;|\216w8\247\004\325\225\210"
	.ascii	"u\035q\325\214\030\313\373G\357\025x\307\227\023\312"
	.ascii	"\364\376\274a\323\021\323a\030/~%\235}>\327'\372\367"
	.ascii	"\341\342\010\246\001;\347\207\237\024\224\206\233\011"
	.ascii	"0\313\030\230e\214\311\362o:\376\245N\265Z\313\030\217"
	.ascii	"\336\\\352?\322P\330\273\236)\022\303\321b\302\254\267"
	.ascii	"x\216?\036/\016L\312|\271r\341\025\177Qn~|\347\244\316"
	.ascii	"J\375\000\276\2637\300_?\213\251\373t\353\007<\246j"
	.ascii	"\352\010\217\357\227S\367\034\314|\243\021\3108\324"
	.ascii	"\334\366\3478AJ\377\001\261\357\2229"
	.text
	.section	.gnu.lto_.pureconst.511c89c5,"",%progbits
	.ascii	"x\234%\307Y\022@0\000D\301'\214\235Hl\251\271\204\373"
	.ascii	"\337\216*\375\327\201\300\303\357\206\352kM\203JKG\317"
	.ascii	"\340\321\223\346\262\260\022\27599k\327\241S\227_.\310"
	.ascii	"\002-"
	.text
	.section	.gnu.lto_sinf.part.0.511c89c5,"",%progbits
	.ascii	"x\234\215T\315KTQ\024?\347\276\217y\357\315\233\031"
	.ascii	"\307\3172\002\021\242E\240Q\213\376\021\205\242\325"
	.ascii	"0\213i\026\243\220\006\356|:.&)\020w\201\204&\030D&"
	.ascii	"QD\021\251\023B#T\024\342B\333X\241\213\240\020\253"
	.ascii	"eN\347\334\373\3568\016cya~\367\274\363\361\273\277"
	.ascii	"s\317\233'@@\355\232\245\337]\013\340\034\355\230\000"
	.ascii	"\214O\274'#\216B\356\002M\271\033j/:\2460n\275\001\010"
	.ascii	"<k,\002\201oaD\306m\265\027\235\210\260U\334\221qG\270"
	.ascii	"\205\263\364\3441\372.\372\2345\342x\"*\335\276tG\265"
	.ascii	"\333\307\2302b\210l\000\302p\\\030\246eG\034\327\213"
	.ascii	"\3721\034\276\202,\332\350\204\231 \230\330\332\336"
	.ascii	"\274}1\230\036\235\010\366\313e\314\"\265w\032!\215"
	.ascii	"p\231\036\260Cn\302<\334\257\252\\~\371\273\204\301"
	.ascii	"d0\262[.'\262h\010\3508V\341\344\362\253\307\2533U\225"
	.ascii	"\246\2003\377\253\\\020\301V\271\374\342\352I\204\034"
	.ascii	"k$0\030L\006\013H\267\315V\204-\207-\227\301\203\024"
	.ascii	"\316`'D\331\3553\304\030\342\014\011\206\006\206$C#"
	.ascii	"C\023C3C\013\227\267\"A\033[\264,\030\243\246;R8K\204"
	.ascii	"\212\026X4\255\036B\032U\017\306i3zQ\360\006\260\001"
	.ascii	"-\031l\215S\260\027\015\240\221\032\357 \1773_\336\264"
	.ascii	"Rx\037-\310\240\310 \266\303\235\240\020L\234\240\201"
	.ascii	"?[*\371Y\311\270\012B\345\320\331\224\246\356\240\027"
	.ascii	"M\240\221\032\2530\352\200\212Pr\011VvF.iFM\327p\210"
	.ascii	"N\255\015\300\014\266\010\002a<\2172\237\245\205\266"
	.ascii	"Q\245)\205\332Zh!?\373\265\"\324\314\240q\014\241\246"
	.ascii	"\026\032\251\025jH\241\333\007B5]\262\256P#\203m\026"
	.ascii	"\0115\355\222\024\352\260P\356\264\270\226\252ep\352"
	.ascii	"0p\215\013\257\015u\343;1]c\035U&\363\346\014\235g\327"
	.ascii	"I\242\352\332~m}\226\307gq\203\305\365\033\265\372\334"
	.ascii	"#\364E\3413\252\213\336O\350\232\310?\365-V\3649u\270"
	.ascii	"\251\272V\237\243\317\362\371\376\252\306\341J\306\361"
	.ascii	"\374\302'\324\224\036ye\240B\241^r\212\204\311O\326"
	.ascii	"\204N\216\312d\035\230\213k\277O\316P\332.\177OH\336"
	.ascii	"\323\275\237^U\017{\225Y\304(=\314\235.\253\334_K\177"
	.ascii	"\016\372\035\317\177\361un\\\352\213I\177!\377\250\342"
	.ascii	"OP(\344\370\020r|\233Zq\2528\356U\356\254Ar$B\035?*"
	.ascii	"\275$)\2445\207\034\245\007\353^\025\307b\345\222\032"
	.ascii	"e\353\311PG\253v7\311\353hT\357.Y\266;5\337N\243\364"
	.ascii	"\350\025v\242\017\277\237\342\031\304x\006\037\351\313"
	.ascii	"\314\243jV\271\315T\353\277\235G\376\206 \305\371\237"
	.ascii	"\336\336\325=p=\335\235Ke\373\272\323\375\271\\\177"
	.ascii	"\037\331\203\327\006\272\322 \206.\230C\331\276A\233"
	.ascii	"\241\353\374_=\251v\012"
	.text
	.section	.gnu.lto_applyDeadband.part.1.511c89c5,"",%progbits
	.ascii	"x\234}\221\277J\003A\020\306\277\331?w\307\021\264\227"
	.ascii	"+|\202\034\251}\013M@\313pELq\011\030K!\027\317B+\363"
	.ascii	"\010\212\017`%\010\012G@\320\024\006\016l,\3044\332"
	.ascii	"YZ\307\231\015'(\342\302\316\314~;\373\233\331]\005"
	.ascii	"\205\337c\213\347&\001\021{\012@\376x\306\201O\312y"
	.ascii	"\245t\321@\026\2322BV\323\344\211:\012\214\262\"\204"
	.ascii	"\236l\326l%{D\022\2000\364\2256\326\243\341\016\271"
	.ascii	"*\227*\233/\026/g\247L\246\224\240\330\220\006GF\214"
	.ascii	"\025\303\303\342(\313\306\353@\342\226M\266\002l\222"
	.ascii	"/^\267H9\377\200\273\367\311\325\375j\233\316\311\242"
	.ascii	"C\264M]\372q\253\026\303\213\206~D~\222\177\254Ty\232"
	.ascii	"S;\314\300\024j\251qY\226\2533\006e$\360\267\311\265"
	.ascii	"\377\037\333\242\010\205}\234\177~\263\315\337lS\235"
	.ascii	"\361\\\347S\034\006X\356X\240\304h\376zA\025\302J\346"
	.ascii	"3,w\244oo\016\030h\030i\354\323\206<\001\011@\376o\255"
	.ascii	"\036\017\366\2228mw{q\322O\323~\217\343\375\335A=\301"
	.ascii	"\027\363\304[\030"
	.text
	.section	.gnu.lto_sinf.511c89c5,"",%progbits
	.ascii	"x\234\205R=K\\A\024=\347\316<wM\004m\263\220\260H\032"
	.ascii	"\021v5\205\265?\"\013Z.\2570\257\330\025\262[\010\026"
	.ascii	";\373Q\210\325b\021\2652\213\010\001\213\374\200X,h"
	.ascii	"\300@>! v\222\302B\210\330\210\020\301\227;o]\277\032"
	.ascii	"\007\336;3\347\2363\347\276\231'\020<\034\223\372\\"
	.ascii	"\020\030Wd\000J\373;PO\213\330\235\027pO\314\357<\334"
	.ascii	"\220\241\3654-\351\021DM\214em\226~\013\031E\307\271"
	.ascii	"\225\243\317\253\357\236-\277o\264\335U\0343\242\206"
	.ascii	"='BbF\027\314& \366~z\342lw?\235\357\323\255\270\372"
	.ascii	"Y\034\017G4\202\227\217\031?J\367(\216\277n\377\234"
	.ascii	"\032$\"Za\2110(r\223\243\260\212\035\305@+HA+i\257Q"
	.ascii	"[\200\226\346e{\262\353\360\203\277k\3466\334\012\306"
	.ascii	"\036\013\207\257\353x\255\357\335\247(P\024\314746\232"
	.ascii	"\027',rK\017r\216fNy|\201\364\210^\246\322\200*O\233"
	.ascii	"\227\177\244\257\264\327ls\311\364\251@Y\037\215\254"
	.ascii	"\346\354c\357\270>ySJ\370\351;\335\024\324\336J\231"
	.ascii	"\037h\245\373\242\364\"\376\27157\0221\010\2314\253"
	.ascii	"\244D\034\360\263C\244t!\364N\353[\377\2457\356\005"
	.ascii	"\354U\231\301\272S\"94\3710\250\333\031\372\317\245"
	.ascii	"\212\375/\224\311\345+o\303|\251\030\225\363\341|\251"
	.ascii	"4_\326y\365M%\027b`!*Ws\023\326\203,\274\372\017\000"
	.ascii	"b}\255"
	.text
	.section	.gnu.lto_cosf.511c89c5,"",%progbits
	.ascii	"x\234]O\261\016\001Q\020\234\331\313\205B\241%\012_"
	.ascii	"\340~\206B)\257\340\212#A\247\360\344H\224WR\372\001"
	.ascii	"\242\321\222h4\010_\240\323\2525\354s\241\260\311\354"
	.ascii	"\316&\263\263\273\002\301\177\024\024kEIA\017\224\344"
	.ascii	"\004\214\262B:\002b(\034\326\371\321\256dw{\275\226"
	.ascii	"\217\3115\343\223\021\325.$<\2274|\214\255M\312\200"
	.ascii	"\371\264U\315\316\242Fq\325;\"\236\306\367\2754\270"
	.ascii	"\240\217&\245I\0261\267S\233d\001\273\331\036r\251\317"
	.ascii	"\031\343\235\377Uy\003<\355\314\346C\3220\275BGC\365"
	.ascii	"\304\005\374\251\322_\252\252\320U\356\311b%\350uM\020"
	.ascii	"5\302v`:Q\324i+\357\267z\025\2037B\3365\225"
	.text
	.section	.gnu.lto_atan2f.511c89c5,"",%progbits
	.ascii	"x\234\215U[k\023Q\020\2369\273\233\275d\223T\333\332"
	.ascii	"&\215\"\202\212 -\352\223\276\370\013|kA\037k\325\332"
	.ascii	"\207T\261>\370\346\332\015\322\226\026\372\340\213\240"
	.ascii	"\240V\255\227\212\227\032\005/\230\202\226\012*T\021"
	.ascii	"\025\024\212\340\005\221Z\005AA\032\347\334\266\251"
	.ascii	"\215\350\201\314\354\231\363\3157\337\234\314&\014\030"
	.ascii	"\374\271.\323'e\003\254'\217)@6\370\004\340\220\303"
	.ascii	"\230\331\263\032\002\317\340\3267\320\224a\223Y\"\354"
	.ascii	"\210\260\305l\261\213\211]\014m\011\262\321\221\017"
	.ascii	"\016s\305\271'\316]\364d\330c\361\376Z\012\373\371\215"
	.ascii	"\024\216\243/\303>KLf)\234\274\267\216\302\011L\312"
	.ascii	"p\022\221?\000\302Af\230V\314v\\/\356'\222xp\033\362"
	.ascii	"\006\314\025p2\010\006\247\036|\230\261F\217\024\363"
	.ascii	"'\202_\245\022b\007R\263K\021\332\020\266\322\006\227"
	.ascii	"\013\307\314\371\335\313\334ba|`Cp\242{0\230\245T\221"
	.ascii	"\271\362\3772\203\311G8\021\344\213\245\322f\221\266"
	.ascii	"\346?\323\336\314Ok\374W\332eV\234*\225\216]\315\177"
	.ascii	"\312,Ch\305!\\Ai\322\033\312\233\312[\312\307\310\237"
	.ascii	"$oc\016\301\241\315\031\332\270\264A\2176\303\264\211"
	.ascii	"+\244\017\244\"\301M\222\233\0247U\334,\342f17\325\334"
	.ascii	"\324pS\313\315\022n\352\270\251\347&\255\2102\3127("
	.ascii	"\237U\236\226\005yj|\271\334K-R\004\360\326i5\223\345"
	.ascii	"_t\0132\356\215\307\320=\022~\351\317\264\342y\264\240"
	.ascii	"\035\235v\2441}\010L\006$\005\205\001\004\362\253\257"
	.ascii	"\201^;\272\363\200\303\002\350\001L\300\375\367c\267"
	.ascii	"\307W\225Qzsw\334\214\006\364\2546Z\320\024\365\037"
	.ascii	"Bw1\255)\206\004\205\305)\362\237\307\356\036\216\212"
	.ascii	"Y\0318\032\220\006~\013\321z\005\026\221\263\327\243"
	.ascii	"\327\031U0\2007eqn\022\360\216\262\233\376& \006\367"
	.ascii	"\253I\200\315\261\217!<\036^@\015\215\267cL((kL\252"
	.ascii	"\212\313\222t\352X\037\011\346\305DAGwA\3524\024\371"
	.ascii	"e\205}\341\320\300\026\315\353S\224\367\320C\257P\211"
	.ascii	"\246\037 \370vz\306\227\355\020\2707\234f\032\233 \270"
	.ascii	"\302\376P\330\361\027\337\335\010\333\027^\210.&)\340"
	.ascii	"\2508\336F\361\024\035)\216\031\3051\370\351f9\307\251"
	.ascii	"\244\306V\011\270\346\270\025\305\027\321\221\344\250"
	.ascii	"\242\364\276\237\245TY\372tJ\303\026\013\244N?[\243"
	.ascii	"\343\325t\244$\274\234\225\022\236\314\216{\232\243"
	.ascii	"\373|\330\251\2415\204\326\255\325\351`mte\274\374\265"
	.ascii	"\351\341(5\354\011\337F\260%\204\374\243\323\247\275"
	.ascii	"\205\362Ng\263\032['\340\2508n,\325\361z:R\034\3645"
	.ascii	"\006\264\234(\377x\270K\303\322Bi}\205\341H\253\251"
	.ascii	"\177v\270\374\375p\346&\025i\200\354\317\243\347\260"
	.ascii	"|\220\315_\243\007\370\014\271j\020{\303\341\201M:?"
	.ascii	"S&\350\306\275\0111*\242\320\202\342\031Y\244\205\206"
	.ascii	"|\341,2\241\354\335\330\3639ev\345\227\211^\242\264"
	.ascii	"\323_\330A\204\356\261\302G\344\214q\350\257\225\312"
	.ascii	".\016\254\325\371\015JY\325<e\254\202\262\006\255\314"
	.ascii	"\257\240\314P\312^\314)s++3\210\335\243\033l\210\217"
	.ascii	"\024\256\010]\011\230\314\032b\206.%trVP.\320\220\325"
	.ascii	"\032\222\0254\320\357\377$\034\232\032\031\212~\000"
	.ascii	"LY\322$2\237Jf\023wD\311f\232\032J\347\177\354\231\306"
	.ascii	"\246\256}mM\271\326\216\316\246\266=\271\334\236Nz\336"
	.ascii	"\277\273\253\261\015\354\216]\373s{\033\327\033\373"
	.ascii	"vv\231\255\333\273\266r\263\3557\355\222\320\373"
	.text
	.section	.gnu.lto_acosf.511c89c5,"",%progbits
	.ascii	"x\234\205\223\301k\023A\024\306\27773\265\233d\223\346"
	.ascii	"\332\032!\364\340\261Ao\375?,\3501,R\003&\205\246\202"
	.ascii	"\340!S7H,Tr\365f\211\275I{\020\252'\033A$E[\211\247"
	.ascii	"\326S\020\024\361\242x\021\264\260\2767\273\033S/\016"
	.ascii	"\354\233\2317\277\367\2757ow\025\024\376\035\227\371"
	.ascii	"\231\322\300E\236i\012\244\272G\300\272\247\224\036"
	.ascii	"\226`\263f\377\022\254\257\311\304nC$\013\020ZJ\033"
	.ascii	"j]#\321P\363\330\262\266;\332\376vLOm\277\375\310\236"
	.ascii	"F\021Q\2158\337\005B@\270\312\033*\273I\231\263\005"
	.ascii	"\304\261\375\323\327\263\335\365\216\215\242\226\013"
	.ascii	"+\377/lW\365GQ\364\366Y\373C\251H\220\030\252\0234\252"
	.ascii	"\264E\3630\342\231\026\343\211\311\210\311\212\311\211"
	.ascii	"\361\305\344\305\024\230\3571?#\033\351\004\332\\L9"
	.ascii	"\026\211\217 \205\360\270\302V\356\276DJf}\210\273O"
	.ascii	"\302\237\233\347\253\264\315}[&\275\314\0078\200\212"
	.ascii	"\035\261\004\273\201C\204\367\303\337\233\213)i\346"
	.ascii	"\360\320vl\327\003,\017OR;\360\035L\312L\337\301/f\212"
	.ascii	"5\322\001\271\374\022X#\343\3446\302\317\205\224\364"
	.ascii	"84\021<\211\270\355,:z\376&\023\337\207\331N\3705\237"
	.ascii	"\262\031\306\023\366K\302\036\035\367\377\262\033\341"
	.ascii	"\017?e\263\356J\231\244\374\027c\177\216\217\022\215"
	.ascii	"\357\211F\347\375A~B\343\243NY\337i\344\222:v\306\376"
	.ascii	"<\037M4a\2607\360'\342\033)V\340>0|\246\253=\327\325"
	.ascii	"\0020\300\253O/\243{\343\272\224\010\262Z\362&\323\261"
	.ascii	"\304\215\035\226\264\273D\357\301lJ\317$\351\213\234"
	.ascii	"~o?N\357d\343\030\343^\361\220\277xq;\301\023\020\207"
	.ascii	"i\241\324\343E\371\036H \371\243\346\026*\315\325\240"
	.ascii	"R\257\326\032\225`\245^_i\360z\355Fs!\200\272]=\267"
	.ascii	"z\275y\353\346\332\037\3639\315\203"
	.text
	.section	.gnu.lto_applyDeadband.511c89c5,"",%progbits
	.ascii	"x\234]\216\261J\003A\020\206\377\177v\217\034ba-\">"
	.ascii	"A\216\274\205\017`@\313p\305y\305%`\354\024\262\027"
	.ascii	"\265\225\224\026\"\212\255\350\003ha!\250\205\212\220"
	.ascii	"\306\312\200\010>\203M\23499\224l13\273\373\377\337"
	.ascii	"\374\002\301\354iY!\260d-\002e\364\014\224\261\210\277"
	.ascii	"YF\230s\343\004a\336\321\3333=i]\365\003q\236\203\015"
	.ascii	"V\214+\271\235L\247\227'\367\247_d\203(\010\241\026"
	.ascii	"\207\234\360:)\270\250\244\021\366C\030\255\000iu]\323"
	.ascii	"j\3006\305\272{\302\360b\357\343p\265\3033\265dt\231"
	.ascii	"~\340\001w\237e\353\337\233\377\213\337\246\3038q/8"
	.ascii	"\210kA\264\203\357p\024\026r2\345o@\305\250+\247\324"
	.ascii	"&_\255{\3040\206%\313L\367\212r\362~\316\032S9\337\300"
	.ascii	"u\346\272\003r|\275\253lGKM\263\033l\261\231\364\267"
	.ascii	"\322\244\350\344\335$\355\025E\257\253\363\366f\277"
	.ascii	"\231\342\007\266'E\347"
	.text
	.section	.gnu.lto_constrain.511c89c5,"",%progbits
	.ascii	"x\234]N=JCA\030\234\371v7\210\004\017 \032<A\366\004"
	.ascii	"\"\336!\257\260\014O\210)^\002\306>O\020\304.\205\007"
	.ascii	"\320\013\350\005\024\014\010\261\020A\010B\300\200\215"
	.ascii	"\236\300\312&\316>\205\210\013\337\317\360\315\314\216"
	.ascii	"\301\360\377\355\252\036U\033*\326@\033=\001\307+f\341"
	.ascii	"\246\201r\325M#\312\272\373E\276B\236\341\207\024\310"
	.ascii	"\264\200\030\232\363\201\303=V\236\327v\367\266X\\\275"
	.ascii	"L.\276\310\032\321%\214\005\341\324\350\325R\214\200"
	.ascii	"\223\262\034m\001y%j\251'\263LGM\367\200\373\367\361"
	.ascii	"\354\264\336\346%\003:\264\016\3352u&0\215\211\3641"
	.ascii	"\236O\326\376\220\374\222\324\0228\333t\231N\311\361"
	.ascii	"Y\211!R\365\335\014\224\241\275\336\356K\342>\267\245"
	.ascii	"\365\347;I\303DN\001\327\233qp\230\307\242\335\355\305"
	.ascii	"\274_\024\375\236\366\243\203A3\3077\357\022B\011"
	.text
	.section	.gnu.lto_constrainf.511c89c5,"",%progbits
	.ascii	"x\234]N=JCA\030\234\371v7\210\004\017 \032<A\366\014"
	.ascii	"\036!\220WX\206'\304\024/\001c\237'\010\"XD\360\000"
	.ascii	"z\001m,\005\015\010\212\210 \244Ig\243\207\020%\316"
	.ascii	">\205\210\013\337\317\360\315\314\216\301\360\377m\252"
	.ascii	"\236Tk*\326@\033?\003\373Kf\341\272\201r\331M#\312\272"
	.ascii	"\373E\276B\236\341\207\024\310\264\200\030\231\363\201"
	.ascii	"\243-V\236\227v\373:\237_|\334\237\035\323jD\2170\026"
	.ascii	"\204S\243WK1\002\016\312r\274\001\344\225\250\255\236"
	.ascii	"\3142\0355\335\003\356\336&_\207\365\016\317\031\320"
	.ascii	"\245u\351\026\2513\201iL\244\367\311\311\343\312\037"
	.ascii	"\222_\220\332\002G\353.\323)9\276(1D\252\276\233\201"
	.ascii	"2\264\317\233mI\334iKZ\177\325J\032&r\012\270\332\214"
	.ascii	"\303\335<\026\235^?\346\203\242\030\364\265\357\355"
	.ascii	"\014\2339\276\001\247\331A\243"
	.text
	.section	.gnu.lto_devClear.511c89c5,"",%progbits
	.ascii	"x\234cb`b@\007\222@<\003\210e\200\230\221\231\201\221"
	.ascii	"i\3029\006\206F\016&FF\020\203\201\221\241\236\211\261"
	.ascii	">\222\021\254v=\323\201\007\377\377\257\233wj\301LF"
	.ascii	"&\026&\306\\\2600+CKC\303\004\005\006\206d07\004H\202"
	.ascii	"\264\20622\201h\346\263\014M;f,\373\310\230\310\270"
	.ascii	"\220\221\225A\233aU\003\020\030f22\314f\230\305\230"
	.ascii	"\311\310\230\316\310\024\001\244!.K\202X\304\000\022"
	.ascii	"\0013.24>\230\251\012\321\013\003!\214\214 \223A:\244"
	.ascii	"\364\364\213\213\222\365s\0233\363\364\223\363ss\363"
	.ascii	"\363\200\354\222\214b\275d\006\000C\323/\032"
	.text
	.section	.gnu.lto_devPush.511c89c5,"",%progbits
	.ascii	"x\234\225S9HCA\020\235\331C%\207\237\034\205\004\013"
	.ascii	"\033\033\005\203\245 \366\366\011h\031Sh\212$\340\325"
	.ascii	"\372\365[\250\225\245\007\202VJ\204\3042\202\210\202"
	.ascii	"\240Q\024\3544U\260\021[+;\235\335\237\375\032\317\270"
	.ascii	"\2207\233\235}\363\336\314\362\0310\370\274\006\351"
	.ascii	"\207\002\240S\305\026@\266z\0030\337\306\030?\267\300"
	.ascii	"\366\211\312\020\330\001\216\322=\026f#\021\325\006"
	.ascii	"\020\346\030\027\022\347FQ\227+\261\223\332\353k\261"
	.ascii	"|\271]B\326\3011\213  \203 \025\264\322_\364\323\016"
	.ascii	"\003\012\202\012\332\025X\012B\012\302\012\"\012\242"
	.ascii	"\012\250\242\204E\333^\355\002Hk\205\004\241RN\"S\221"
	.ascii	"_\303B\265\274{\212)\334A\011\343(z\241\207\2446a\003"
	.ascii	"3\310\306\221\217P\344\332\333\030\232\246\257\301Y"
	.ascii	"rf\015E\022K\335\002\324\251\205a7\321\013\005\233V"
	.ascii	"\377\037\325\210\017p\001g\217\247G>\257\242W\316\254"
	.ascii	"$\261\316-\345\366\352e\367^4(\314P\243\337+`]\241U"
	.ascii	"\373\252\034\370\033x\003?\362X\003\357p\255\360\304"
	.ascii	"\232d\2721\006\353v\033\305\014\242\347_@eHO\373\256"
	.ascii	"\360$M\243~=\355_]\350i/;\017\314p\002\344\213\230\332"
	.ascii	"\332\236s\314\315yPO\222.oyG\355\372v\260\376`E\257"
	.ascii	"\204E|\312\376s*f\232\226\346U_\012\267\236P\350\267"
	.ascii	">\370\307>\236=NX\367\241\2139+\037\372\210h\323\341"
	.ascii	"/\246\243$C\331\177\232\026u\323Q\227\267\266\337\364"
	.ascii	"S\262\206v+\345\346\231\374]\323}{\251?\265[\230\257"
	.ascii	"\225\272\335\032f%h\252\224SZ\261\276\370\324d:\236"
	.ascii	"Mer\361t>\233\315\347h?=1\325\227\2067^\034\340\213"
	.text
	.section	.gnu.lto_devVariance.511c89c5,"",%progbits
	.ascii	"x\234mQ=K\003A\024\234\267\273\227;E\024,\003B\020+"
	.ascii	"\003\011\350\017\310\237H@\313x`\274\342\0221\351s\371"
	.ascii	"(,SXDE0\330XH\024lD\020RXh\021\301Jb\025\004-,lM!\234"
	.ascii	"oW/\250\370`\367\315\355\316\314\233\345\004\004\376"
	.ascii	"\326\022\257+\002\026\270\223\005\022\255;\240\346\010"
	.ascii	"!\333\031\004\223j4\215`J\222\372:VD\032\200P\025RQ"
	.ascii	"u\225\264\007\315\243\023\004\255\341sw`\237\357\364"
	.ascii	"\232\207\301G\030\022y\304\363\346\010.a\205?(a\232"
	.ascii	"P\277\003\234\212\3360\014O\036\232O\311\011B\236:\354"
	.ascii	"&\311'(x$-\336\020\323\310\326\310\371&pYh\362\314\004"
	.ascii	"\264=W\226w\035-GBw\331G\375q\324\275\025y:\342g\025"
	.ascii	"H%\261\310.\373\330\343\014\252@Rg\261L\2025\212\262"
	.ascii	"\334\340\372\245\366Nc\215\346H\372\0216G\022\355\214"
	.ascii	"1?\233\215h\226\261\306\377\326\221\272\217\306v\343"
	.ascii	"RF\232X\344\036FEUM\252\0377^\307\231m\346\031\345A"
	.ascii	"\343m\254tx _Ey\224y\355=j=+b\230\221\003\020s\345\305"
	.ascii	"L\034\273\201\303\007\234\320\374\376,\337\263D\303"
	.ascii	"x*]\336r\323~\336+\246\335\222\357\227\212\214+\033"
	.ascii	"\345\224\013\333[\257\370\233\251\345O\346\202v\023"
	.text
	.section	.gnu.lto_devStandardDeviation.511c89c5,"",%progbits
	.ascii	"x\234]\217=\016AQ\020\205\317\231\353\212\250\264Da"
	.ascii	"\005\336f(\224r\013n\361H\320)\336\223(\224\226@\241"
	.ascii	"\245\261\000%\012b\007o\035\012\314}~\012\223\23433"
	.ascii	"\311\2273\031\201\340\277\252\252\275\252\256\242\001"
	.ascii	"ey\001f%!\303\000\"\021&\035\346\354N\016\331\363\271"
	.ascii	"}\234W'JQ\030\023\006\236\260\301\264,\346i\272l\000"
	.ascii	"._[\352!\244M\011\335\\1\317\216\233r\227kZ\364h\246"
	.ascii	"\270\247\213\264\342I\307\367\201\036\305+\014%\017"
	.ascii	"\366\313\331\037g\034\345\303\031\317\002p\003\177\324"
	.ascii	"\373\235\226&\351\255\200\325\232\321x\344\242\270\353"
	.ascii	"\007\221\033\306\361p\240\363\244?n:\274\000W54e"
	.text
	.section	.gnu.lto_degreesToRadians.511c89c5,"",%progbits
	.ascii	"x\234cb`b@\007\222@\274\030\210e\200\230\221\231\201"
	.ascii	"\221i\3029\006\206F\016&FF\020\203\201\221\241\236\211"
	.ascii	"\261>\222\021\254v=\323\201\007\377\377\257\233qz\301"
	.ascii	"9F&VF\306\\F\240\201\231\214\014\314 \002\010X\031Z"
	.ascii	"\032\032&(00$\203\271!@\022dH(#\023\210f>\313\320\264"
	.ascii	"\242y\3734\235D\306\205\214\254\014\351\214L\351\214"
	.ascii	"@\025g\031\232\273\232\305`b\314@a)\206\231\015\035"
	.ascii	"\015\023n\374\377\377\037(\337\360\352\305w\016\210"
	.ascii	"\371\027\031\030\341\352 \256\017\001\232\0004\032\344"
	.ascii	"-)=\375\342\242d\375\334\304\314<\375\344\374\334\334"
	.ascii	"\374< \273$\243X/\231\001\0007I6Q"
	.text
	.section	.gnu.lto_scaleRange.511c89c5,"",%progbits
	.ascii	"x\234\205R=K\303P\024\275\347%\375H\233\342&(\210\245"
	.ascii	"\223\213\355?q\252\240c\315\020;\244\005\353\344\322"
	.ascii	"\224t\250\202\320\251 8X\305\331\255s\027\007\021\005"
	.ascii	"g\227\316\212\203\272\012\361\274\227\246\250\213\017"
	.ascii	"r?\316=\347\336\233\307S\242\344\357Y\341\027C\244L"
	.ascii	"\017K\240\206\217\"\275\274\002t \220\256Bw\027\232"
	.ascii	"\252*2\016\303\341\354v\362\216\263p\332\277\010\277"
	.ascii	"\342\030h\202m\327 \036d\207\011\312\306)\373\367\234"
	.ascii	"D;\235\334\273\303\336 \214\343\256\221\255\377'\273"
	.ascii	"Q\323Y\034\237?\367_6\227\200\200\032\032\356I\265\315"
	.ascii	"Heh\254\254Ns\322\300\030\025\311\023\261\035&WL\012"
	.ascii	"\272R\244\261\\\035\225t\304\256\031\351s\231r\"H\230"
	.ascii	"\242\027\341\251\323\352?\337\206\322\336z\220\3508"
	.ascii	"z\035m5p\215\214\370\260|\300gML\341\303M\361\254\017"
	.ascii	"\333g\244\361\223\350(\205sF\221\025\271\023\225`\311"
	.ascii	"PV\346-\336\226S\256\343#oZ\374\340^\031\256c\270\247"
	.ascii	"\321\347h#%\027Log\336\344R\245x\221\313qE\203\017\242"
	.ascii	"\011R\3345\222\342\034_\314,\231\012\351O\262\240\226"
	.ascii	"\222\253\257\023\346\015\350'\263Z\255u\016\274Z\320"
	.ascii	"h\266j^;\010\332-\306\207\373\235\252\247U{\337\327"
	.ascii	"\007y\204"
	.text
	.section	.gnu.lto_normalizeV.511c89c5,"",%progbits
	.ascii	"x\234\225SMk\023Q\024=\367\315\233$\235~\205\206\006"
	.ascii	"\011*Eqc\241\003\335\3727Z\320e\034$\0350)\330\356\\"
	.ascii	"\364\325\314\242\330M\226\365\243`q\347\242\025\335"
	.ascii	"Y\221t!\330E\375\242\013?\020\262\026\021\334\210\224"
	.ascii	"\322x\357L\3368*\224\36429\357\315\315;\367\234{\037"
	.ascii	"\243\240\360oL\363\317\325\300y^\311\005\251\326k`\271"
	.ascii	"\240\224\263\357\303x\372\371Y\230!\207t\222\326D\262"
	.ascii	"\001aI9\232\226\256\220\324\240s\3300\246\325y\371\354"
	.ascii	"#=5\355\350\2019\354v\211Bb\2753\204\200p\231_h\"^\224"
	.ascii	"\376\333\300\226jw\272\335\373_\242\367\376)\207\352"
	.ascii	"\004\015&\272\0029\201\274@A`@\300\023\030\024\030F"
	.ascii	"\2256XzD^F\005\212L\2471\331\225\004\306\005\312\002"
	.ascii	"\322#\"\2668\221P \2368f\030\245\237YR\262:{\270\365"
	.ascii	"im{GW\351!\317\242Fz\022\027\231~\017w\331\270S#G\032"
	.ascii	"H\374_%\333\300\036\232\267\233\337\311r\\\246\325\344"
	.ascii	"\220\024{[\261\351\334q\245([\352\247\262\234<\323\370"
	.ascii	"\211\363+\315'i\276\020\253\344\023\211V`\323\003\307"
	.ascii	"I\250\254\304\221c9\036\323\370\351Il\246]\014\306*"
	.ascii	"\036\360\006Q\373\264\315\016\337\304\201Y1\305\220"
	.ascii	"\334\240g\232\217\206bq\027={\311\204\371,\360\012\321"
	.ascii	"\267\235\317\253C)\275\202;\246\300\2440\035\236\304"
	.ascii	",9\330\367\343\341\177\330\376\221v9\322\347\360\327"
	.ascii	"\233_S\333\243L\213\245\271\330\356c/IO\342\221\341"
	.ascii	"\270\224-V\374\277\030\263\223\211\376\312\230\030\353"
	.ascii	"\363\332\262&JL;\271\011;\316Rbb\355\305\037\023\343"
	.ascii	"}^l\326D\231i'7\241z&\312\366ft\374]\274\303r\347\340"
	.ascii	"BR\303\306\014;\346\377\204Q\231\362\027n\004~\275\032"
	.ascii	"6\374`\276^\237o\360~qna*@\356\372\265Fmq\3567\002C"
	.ascii	"\337\363"
	.text
	.section	.gnu.lto_buildRotationMatrix.511c89c5,"",%progbits
	.ascii	"x\234\235UKh\023a\020\236\331<\233\244/,\264\2466\244"
	.ascii	"\017Z\261\332\"\202\242\"^\274zS\261\210B\315\241\346"
	.ascii	"\220\026\214\007[\017nM\016ZTzS\264\205J\221R\253\026"
	.ascii	"\011\2427\343A\260h}\340\311\007\264XD\024\274xP\261"
	.ascii	"\32283\377\356&\333\256\230d\2413\363\377\371\276\231"
	.ascii	"\371f\262\251\006\032\254~\326\323\2377\000p\214<\272"
	.ascii	"\000\265\321\027\000\303~\015\221\003@8\253\341\331"
	.ascii	"\036dh\240\005n\350\372\350\342\223Go1\243g\323\023"
	.ascii	"\372\237\\\0161\216\224\266\011!\206p\230\016\030\025"
	.ascii	"\247\271\355u\024W\177\363\034\237\352\351l.\267Wh-"
	.ascii	"E\322\026\354\264\216\"i\313v\332\346\"iW\346m\264\255"
	.ascii	"E\3222v\332\366\342h\331\334\263K\333\364\211s\243\372"
	.ascii	"\012MS\230\273\213,\370\336.o_\221\264\234\235\266\277"
	.ascii	"<y\207\376G\233\325\262\213\271\334\207\205\364\367"
	.ascii	"]\0335L \270\200\210n\350\305\033\330\002\036\362\223"
	.ascii	"\344\275|\351\243\303M:\370\311O\221\257\340\313\000"
	.ascii	"\035\246\351\020$?C>D\376\016\371J\362\263\344\253\310"
	.ascii	"\337#_M>C\276\206I\265T\010\327qT\307\246\236M\003\233"
	.ascii	"0\233F6Ml\"l\242l\232\331\264\262ic\323\316\206\036"
	.ascii	"\017\244ItT5\253ZU=\252\016Uk\2521\325\226jJ\265\244"
	.ascii	"\032\002\036\020=\007\310\362\313t\0205\366\256y8\367"
	.ascii	"\356\341\307\307Z/\336G\017\364\241\253\0236Q\321N\270"
	.ascii	"\245\323s4\216\256\353p\215\006\352\356C\215\007\353"
	.ascii	"\221q\036G0\274\021\300KHg\303f\022\367\031\370\255"
	.ascii	"_\325k\342\350\215\031\010\312\034G\037\300\034\030"
	.ascii	"\245\224\030\302\012wb\304g\222=\205d\355_\344I!S7,"
	.ascii	"\340W\201\000o\211\0024'\001>'\001\336\325=\334\224"
	.ascii	"\036|J\300EK\200\337I\300\032\362\224\220\375J\300\303"
	.ascii	"\245\274\200\212\022\005\270\234\004\004\234\004T\254"
	.ascii	"\356aZz\010(\001\227-\001A'\001k\3103B\016\262\200\324"
	.ascii	"Hji,b\322C\224R\366Z\000\276#\340\220\001\376\264\301"
	.ascii	"\304VR\206\325\330Y\301V\032\330/\026\266\212\366-\335"
	.ascii	"\026`\357\011\266\312\300~\263\260\325\202\015\332\260"
	.ascii	"\031\301V\033\330\237c;Mp\2154\354\223U\314\275\012"
	.ascii	"\250\353-p\233\347\277\207VA\363\037\246pG\034\375}"
	.ascii	"X\313;\250\220\241p\024\260~b(\217d\230N-\217m6S\257"
	.ascii	"3\362R\301\257h^\326\311}\260\274z\230\257W\2472\374"
	.ascii	"\372\374Z+-\207\226\317\3417\272\233\034\3571\333\253"
	.ascii	"\227Q\253\017\316\247~Xm7\310\272\352Ki;\3444\246\006"
	.ascii	"\243\344T\276dX6\246J^((\331(\337\246py%\013&\325hl"
	.ascii	"ff\334\332L\223\361\353a\333LD\356K\372&\204\234\246"
	.ascii	"\03212\317\216\0371SGE\212)q\305*\331,\322\243\245\224"
	.ascii	"lp\232j\263Q2\223/\331*\0133\027\231/\331&\013n-\257"
	.ascii	"d\301T\333\214\222\017\306\255W\251\235\246'\357s9\251"
	.ascii	"\013\006\330\016\360\032\206\027\357v\250\014\346s\200"
	.ascii	"~\313\350\277\026\003\303]\335\311\223\261\356Do\274"
	.ascii	"\277;6\220H\014\364S|\352D\262+\006\356\330@\362\264"
	.ascii	";\031\357?\315\321 G\203\034\015q4\344\347\210\021~"
	.ascii	">I\3007\014\227\033\016\376\002\364\005J."
	.text
	.section	.gnu.lto_rotateV.511c89c5,"",%progbits
	.ascii	"x\234\225\225\315k\023A\030\306\337w\362\335\3064\375"
	.ascii	"\242M\332\204\220\006<\330\017PO\342\305\377\241B\353"
	.ascii	"Ec\016q\205\264\322\026Q<t\232\266X<H<\011\212\220\""
	.ascii	"J\261\245\212^\244 \006O\026\374\274)z\010\036\364\340"
	.ascii	"\241\320\203U\021\343\373\316f\263\335I\251\311@\237"
	.ascii	"\331\235\314\363>3\277\331\335\012\020\240\267\010\375"
	.ascii	"}\363\001\234\240\036]\200\242\360\006`\316/\020\371"
	.ascii	"\002\020f\005\316\216#Ou'aY\226\012\345{[\037qN\226"
	.ascii	"\026\212\362O\245\202h \225\215!d\020\306\350\006\213"
	.ascii	"B\365\"\345\014b\263,\224v\256\337<\362\262\230/\310"
	.ascii	"\277\3445\320% e[\023\246\323M\323\017\301\003)e\230"
	.ascii	"f\230F\231\2272\240\022]\006\272\005\014\332\2563\246"
	.ascii	"+\350\314;\213\260\327\002\344\327b\276V\207\322\017"
	.ascii	"\377'=\215\3671I\305\260\221b\307\032,\246\035\303C"
	.ascii	"Q*W*k;\013_\216\247\004\346\020\\$\350\001rxY|,~\226"
	.ascii	"\000K\013K+K\220%\304\322\306\022fig\351`\351d\351b"
	.ascii	"\351f\351a\351e\211\260DY\372X\372Yb,q\226\004\244\361"
	.ascii	".-3I\375\012\365\003\324\257RO\315\003\013\264\353\204"
	.ascii	"\271\2154.\253\321\214B3J\312O\314I\332\034\365\256"
	.ascii	"\327\220\337X\334\2723\234\306u\332I\026\023\267\341"
	.ascii	"\026\237w\026\005\203\361\000\230\277P\333\004a^\233"
	.ascii	"\2714\027\200\355\036\313\233\324\274\356=\275+\312"
	.ascii	"\233\324\274\003\232\327\277\247wUy\007\000\336\302"
	.ascii	"b\371\371\325\2205\347\012\374\226K|t\336L\365\011\310"
	.ascii	"\242\213\007\251\335\240r>\023Bu\272\201~\225\376\371"
	.ascii	"\351\366/\227\265\000\317\020\014R\376\020\254\261\351"
	.ascii	"\262\201\001\323\303\253i\251=\002\316;\2562\177m\376"
	.ascii	"1ZE\274\004%\313\021\\\275\020\267\206}\216\332\237"
	.ascii	"\320Y\034\367-\376CXU\374D\215j\251\361\245\371\365"
	.ascii	"\332x@\345V\267\364\350\2745\334\342\010}\346u\206\212"
	.ascii	"}C7\202V\225V\302\235\345\011*t\273\206+\250r[U\350"
	.ascii	"\346;\2579l\276A\362\000\305\232\307\351\266\037\243"
	.ascii	"]\257:\271\315\305~\330\305?\3248\177\324Vk\363oS\374"
	.ascii	"C:\377p\023\374\365\3426\377v\305?\\\307\277C\345\266"
	.ascii	"\353\374;\233\340\257\207\332\374\273\024\377\316:\376"
	.ascii	"\335*\267\253I\376\326\273\321m.\366\347.\376=\215\363"
	.ascii	"\027\332jm\376\275\212\177\217\316?\322\004\177\275"
	.ascii	"\270\315?\252\370G\352\370\367\251\334\250\316\277\277"
	.ascii	"\011\376z\250\315?\246\370\367\327\361\217\253\334X"
	.ascii	"\223\374E\225\177\234}/\276\327\276k\274\254\243\360"
	.ascii	"D.\361\177ij\357a\256\374\352`\355\013\250\332(\235"
	.ascii	"\036}\261\271Dtxdz*3\222K\033\023#\231\311\\nr\202\256"
	.ascii	"g\316M\017g\300K\027S\306%\337\305\3233\271\013\251"
	.ascii	"1\217\352\253w\343\325\376\324?\271+\263\333"
	.text
	.section	.gnu.lto_quickMedianFilter3.511c89c5,"",%progbits
	.ascii	"x\234\255T\317KTQ\024>\347\276y\277G\005\207\021\023"
	.ascii	"\0223\"\204t6\2661\350/h\351@\355\034\206\230f1**m{"
	.ascii	"3N8\024\324\020m\372\001*!JTF\326\"\013\234\302\205"
	.ascii	"\202fBAQ\013s!E\321\"\010D\253\351\334{\337{3f\343\020"
	.ascii	"t\341\235{\3379\337w\3579\337=\3571`\360\347\030\241"
	.ascii	"\247G\003h\243\031\203\200,\377\002 m0\014\310\205\""
	.ascii	"\027\317\214\000S\226\272\300\261\324\371\0208A\225"
	.ascii	"i\271\303\364\246s\033\324P\227h\235\031\302m\012\267"
	.ascii	"\201\246t\233\314z\025!\267\375\264\231\334\026\332"
	.ascii	"\322m#\362\005 \234cJ@\325t\303\264l<w\012ybJ+\214;"
	.ascii	"\316\225\265\363[\037\324kW\013\3311\347G\261\210\230"
	.ascii	"D*b?B\034\341$\275`\213\230X`gU\202\233/\314\255\\B"
	.ascii	"g,\223w~\0215\211\012\203\003%f\217d\006\377\312\\]"
	.ascii	"\271\274\257\214\031`p\260\332\231\323\254\260V,~\331"
	.ascii	"\316\256\037oB\210\341\004\266\202N\3638\315\006P\336"
	.ascii	"&\246\020,Z\2516\031\255\306\305\324\362\227:n\352\271"
	.ascii	"\011q\023\346\246\201\233F2\374 \025\262\224WK\014o"
	.ascii	"\021\005x*4\272\311\322uD\221\321\244,Bf\355\343H\255"
	.ascii	"\217\234\020\310\030N\242\012b\301\035<s?\361(*\260"
	.ascii	"\324\245,C\346\353\3607\026\303)B&PO \355\273\014\303"
	.ascii	"\027\024\317e\220\2273\201S)r\321\217X\0114)\316\275"
	.ascii	"\231Y\325\363\3327\340:?\210\342\234\246\272\347\021"
	.ascii	"f\361e\203\004\265\303\035\207\306(\207\311\252\304"
	.ascii	"\261b\320\006\342\230\334\360m?\253\032\012\213\344"
	.ascii	"9h\021\\\277,\212\242^A\001\240\226\342R\030\340\007"
	.ascii	"\211\261\000\331\215t\324\333KnT\372\030\336\002\272"
	.ascii	"\272\260\034U_\243L\231|/\225\253J9\277\177\263\365"
	.ascii	"\011\245\216\011\254m\207#~\312\234\245\227\365\000"
	.ascii	"\007\347m\017Z\267\013\212%\350\002\314o\244\217\372"
	.ascii	"\273\022\272\024\213\242\006\353&\257\242p\302\275N"
	.ascii	"\331\227\316\003\3071\305\227\240\210\002\016Uk\312"
	.ascii	"\035\367\177O\250Q\353\336Cs\014\357\226\356\341\035"
	.ascii	"V(J$\306\011\371\304\016\302\250V\2414q\202\254B\367"
	.ascii	"\004\274?\340\025Z\277\227&B\276\263\0364\264\013Z\366"
	.ascii	"\373\022\362\375\324\374m\011^\256\237\341\351\267\251"
	.ascii	"\354!`\014\247\351\323\371\007\005\037\011\005\353]"
	.ascii	"\005'\251)\036\226\024\231\261**\022\362\3622}E\236"
	.ascii	"\370\035\025\256\332Qs>\266\241jK\275\366\333/L\360"
	.ascii	"rM,\370n\013Mn\352\377S\223Y\241I\330m\222mJ\365qI\223"
	.ascii	"\271\272\212\232\204\275\274lO\223\315\2556/\367F\227"
	.ascii	"\177l\217^y\376\231I\270\004t\302\214\223\343\177y\012"
	.ascii	"\256B\272\240\372{IB7\375\007\346C\274\205\232:\"\203"
	.ascii	"\003\361H*\226\354\215\304\373R\251\276^Z\017\235\031"
	.ascii	"\354\210\203\222\354\350\304~L\006\206N\247\372\177"
	.ascii	"\003i\304p\036"
	.text
	.section	.gnu.lto_quickMedianFilter5.511c89c5,"",%progbits
	.ascii	"x\234\265V\337\213\033U\024>\347N&\223d2\311&)[LI\310"
	.ascii	"\326]\322\226v\367\305\372\342\203\377\200\217]\320"
	.ascii	"\307\260H\314C\332\322\026_;\273YpQ\332\206\342\203"
	.ascii	"\277\240[di\021\265\322*H+lVV\350*u+((\365a})\210\""
	.ascii	"X\037lm\273\361\234{\347\316L6\235\244\013\355@\316"
	.ascii	"L\276\373\235{\317\371\346|$\002\004l\275\376\244\317"
	.ascii	"\3636\300^\272\343\016@\321\376\036`6!0\246\036\014"
	.ascii	"\365\260\222\210\011\343\324\012\200\2332[\016\270i"
	.ascii	"S\304\027\252\364\315\342\230\216\243\245\350\226HH"
	.ascii	"8)\341\004&\025\234\024)\011\333\022N\241\255`[\244"
	.ascii	"%\354H8\215\216\202\035\221\221pV\302\031\314*8+F$\234"
	.ascii	"\223\360\010\346\024\234\023\371\037\247\010.|U&8\217"
	.ascii	"\005\005\027\020\371\001\020N\012#f\306\255D2e\247\235"
	.ascii	"Lv$\227/\340\311W\220\2737v\303y\327=\273\261\264\371"
	.ascii	"\233\371\356\333\235\371E\367A\267\213\330@R\252\204"
	.ascii	"0\203\3602}\301\212\274\211X\257t2\267\335\371{\375"
	.ascii	"4\272\213smw\223R\033h\010\030\0132\027\325]\354xd\352"
	.ascii	"?\353g\236\011\245\306\004<;\354\320K\242\263\321\355"
	.ascii	">x8\377\337\213\373\021j\270\204\273\301\246\373y\272"
	.ascii	"\247\201\012w\260\211\220\241'3K!\236\3638y\376R\340"
	.ascii	"0\312a'\207\"\207]\034J\034\312\034*\034\3068\214s\230"
	.ascii	"\340P\345\260\207\303>\012\\\220\011\363T\177\245\206"
	.ascii	"\037\322\326\300%\323u\210\"\315\3064\012\272\031k0"
	.ascii	"\267q\357\215\214\317\\\222\314\032^@\023\344\003\003"
	.ascii	"\334\241\337\3404\032@#f\334\200\271\277ZwD\015/\022"
	.ascii	"\265\216v\035i\343\033\320z\323\320P\232PN\005\316\245"
	.ascii	"\225\267\374\225L\035\035Zgt\356\252\251\321\354\373"
	.ascii	"\360\036\237D\353\234fz\007\022g\355\346\250\"\035\200"
	.ascii	"\217]\272\3161M\265%\217\225\027m \217Yh}\344W\225\243"
	.ascii	"eY=\223\326\300\303UW\264\252;\212\001\015!k\221\000"
	.ascii	"\177\2212\256\303\374\355\331i\275\227\332(x\321\277"
	.ascii	"\000z\302\210\005\21363.&y/\223e\245\232\177\275\273"
	.ascii	"\371;*!\353\230?\000\373\375\2229\313\012\015\013\223"
	.ascii	"\333\266\246\026\372\250\030P\257\303\352\355\331\203"
	.ascii	"\376\256\304\016\326\2461\016+q\356\242\363\222\367"
	.ascii	">\325\000\273\227]7)=c\310\351\235\0306\275=\003\360"
	.ascii	"\251T#\357\275\207r\015?\011\336\303-\214hJ\026\306"
	.ascii	"\011\355zO\302\271xDk\362\004\325\205\245\005\374\354"
	.ascii	"\230nt\264O\023c\213|\257k\352\316>j\2509)\337\303\270"
	.ascii	"\277-\321\303\372%\264~w\215\001\002\326\360\022yg\033"
	.ascii	"\012~!\025\034\365\024\274@C\361y\240\310\225TDc\262"
	.ascii	"6)\341\345\336\214\177S\021\375\3113T'I_\303k\376\014"
	.ascii	"\026\207\316\340\262\317\3355Hp\251\342O\376\300\026"
	.ascii	"\211\036V1\245U\374\300z\222*^\223*\026=M\356S\251W"
	.ascii	"\003M\226\263\221*\026u]\266\326\344\235n`\314\322 "
	.ascii	"\267\365\032\263<t\262|c\226\210\035\226$\3758\306\334"
	.ascii	"\266\"\035\251H)p\346r\2643CF+\353\252\234~\243U\206"
	.ascii	"\312\341\033m\254\217\032\372\333\262\305h\025\242\207"
	.ascii	"\365\310<\035\243}#\005\251\204\214\266\032m\264\220"
	.ascii	"\"c!\243\255F\033M\004\031\025\335I\366\021F\033\037"
	.ascii	"\244\314\026\243Ml\303h\343D\017\2538\362t\214\366\235"
	.ascii	"Tq\334S\361\016\225\372m\240\311\375L\244&\023\272\256"
	.ascii	"\234\326\344\313\220\321\252\217o\264=C'\3137Z\225\330"
	.ascii	"aI\362p\317z\362F\273)\025\251\006\277h\353\321\277"
	.ascii	"h!A\252\272\252\202\026\344\347\356^]\371>/\377\205"
	.ascii	"\001\223\362\365\037B\321\025\3419\270\342.\360\177"
	.ascii	"WZ\374\001f;\246\277\227J8D\377YZ\016\357P\234\234:"
	.ascii	"~lf\252Yk\034\236\2329\322l\0369L\317'^;>9\003Fc\362"
	.ascii	" \036\305F\354\304\253\315\243\377\003\217$y\304"
	.text
	.section	.gnu.lto_quickMedianFilter7.511c89c5,"",%progbits
	.ascii	"x\234\265X]h\\E\024\2363w\357\376\345ww\263\331\335"
	.ascii	"d7?5\305\324\244\331BbJj\012))\245\202\217\015\350\343"
	.ascii	"\022$\346!mi\213\257\335\244-\304\0374\212\240U\241"
	.ascii	"-\245?Hm\245U\220V\350V\2126\324\212\015\212\025+\304"
	.ascii	"<D\360\017\332\027\213U\3439g\366\336;\233\315\315n"
	.ascii	"\240{\037\316\275\373\31573\347|w\276;\223H!\305\362"
	.ascii	"k\012\2048\035\026b\003>C\233\0009\363\265\020\223~"
	.ascii	"\011\036\365`\250\207k~\2174\316_\027\"\0334\027\002"
	.ascii	"\"[mJ\357\364\343\370\313G\261\332\013>E\367I?\303\001"
	.ascii	"\206\375\020Pp@\006\031\256b8\010U\012\256\222\325\014"
	.ascii	"\3270\\\0155\012\256\221\265\014\3271\\\013u\012\256"
	.ascii	"\223\365\014\207\030\256\207\220\202C2\314p\204\341"
	.ascii	"0D\024\034\221\015\014G\031n\200\250\202\243\262\221"
	.ascii	"\341\030\303\215\020SpL\306\031N0\034\207\204\202\023"
	.ascii	"\262\211\341f\206\233\240Y\301\3152\311p\212\341$\244"
	.ascii	"\024\234\222-\337\246\021n\375\254\005\341\026hUp+\000"
	.ascii	"=\010\020\007\245\3411\275>\177 XU]S[W\037\012G\032"
	.ascii	"\242\215\261x\242\2519\231ji\205\203\317\001\275\023"
	.ascii	"c\2358\221\315\2769\177\344\344\202y\364\255\334\341"
	.ascii	"\343\331\177\226\226\000\306\001\337_\012\304(\210g"
	.ascii	"\361\007\276-\272IO\341\013\345\2763\271\267\347^\203"
	.ascii	"\354\361\251\231\354\177\330u\034\014)\332\235\236\363"
	.ascii	"\352.\223+v=:\367zB\353\352\221\342\261R\223^\220\271"
	.ascii	"\371\245\245so\034Yxz'\210\014\234\202u\"\204\367\023"
	.ascii	"x\017\013L<\002\023 \032\360\311\214b\360\306\362\234"
	.ascii	"8\375HPHRHQh\243\320N\241\203\302z\012\235\0246P\350"
	.ascii	"\242\320M!Ma\023\205^\012}\024\372)l\2460@a\013\205"
	.ascii	"A\012[)\014Q\330Fa\230\302v\012;0P1\2468\214\265\267"
	.ascii	"e\340$\246%\250\\\274va\304\325>\002\022o\306\254\230"
	.ascii	"\232\177\365\245Z\233y\212\231\0318\003\246\340\007"
	.ascii	"\002H\035[\234\0210\004\232\306\270%\246\376<t_f\340"
	.ascii	",R\307 4\0068\360-q\350e\303\202\302\210RWA}\261\345"
	.ascii	"\025\273\245a\014\"\330N\350\324e\323B\243\357\211w"
	.ascii	"i&l\247nf~B\344\314~\323\250H\033\305\271,^\307\210"
	.ascii	"\246\312\342i\371\302\001x\232\351C\037\330Y\305\260"
	.ascii	"\231\263'\322\254\310\343\252*l\265*\362\010\\\314\244"
	.ascii	"\205_\330\215\330\343\2068\27489b\215\245\006\362\332"
	.ascii	"\353\343\007\001ya\344\264\017\0073\316\006h,\223d\305"
	.ascii	"\234\357\3369\371+(!\307 \276Qt\333)S/\237\266\320\210"
	.ascii	"<SeQ\023ET\323\241\336\020\327\027'\237\264GE\266\323"
	.ascii	"6\002^q\317CU\344\236\311\277O\265\370\263\027\263\331"
	.ascii	"\000\373\315\340\225\277\276\324\312/X\000\347Y\215"
	.ascii	"x\376=\264d\340C\347=\374\010.Eqb\324af\254\240\303"
	.ascii	"1\257Ki<\203\252\302g\011\370\321>\253\320dI\371^\264"
	.ascii	"\250\251\"\252\261L\276\177\275\366\260H\327\365\363"
	.ascii	"[\372=0V\0210\003\027\320;kP\360\023V0\231W\360\014"
	.ascii	".\212\217\035E.\005]%L\345%\274X\330\343\257\240K}<"
	.ascii	"\207\252$`kx\305^\203mE\312\200\223.\213x\325\346\266"
	.ascii	"\027q\235u\257T\374\316^\260mH\327U\014Z*\276\357{\224"
	.ascii	"*^a\025\333\362*\336\307T/;\232<\254u\251\214sc\025"
	.ascii	"\037\026\366\270Z\347R\037\317\241*\251\262T|\240Y\271"
	.ascii	"\243H\032\355\000Rh\345\365ET\255\300B+w [\027\261\272"
	.ascii	"\034+\257Y\303k\254a\207\343\345\234\273\227\355\252"
	.ascii	"83\313\3139w/{\234\016\035V\0315\305^\356,\337\313\033"
	.ascii	"V[\261\313\274\334\211t]\300\332\312x\371KV\260Ss\346"
	.ascii	"\027\356\316\324Va\247\225W\335\012\316\354Z\355\233"
	.ascii	"\265\314\231\335%\267\007\307\231]H\3275\251\257\214"
	.ascii	"3\277bM\2724g\336tw\246\366\265\352\326\234y\323\335"
	.ascii	"\231\332\036\321eU\022\262T|\347\264\343\314t\371\316"
	.ascii	"\334T\362\373f;3\215l]\304pE\2349\307\032\246\035g\336"
	.ascii	".\313\231\233\034g\336vw\246\366mK[eD\212\235\331[R"
	.ascii	"?\333\231}k\330e{\221\256\013\330P\031g\336a\005{5g"
	.ascii	"~_\326\236\331k\345\025]\301\231\375kp\346\3465\354"
	.ascii	"\231\375H\3275i\254\2143\177bM\3725g\336-\313\231\233"
	.ascii	"\255\274b\226&\237j>\033Xm[+\364\331\226\362\017\263"
	.ascii	"\003\310\326%\211W\304g\013\254\310\200\343\263\237"
	.ascii	"\335}\246mh[\254\254\022\305\266\031,y\256\262m\263"
	.ascii	"\265\344\201\300\261\315 \322u=\232*c\233_X\220A\355"
	.ascii	"p\272\350~8\3256\264\255\232\321\026\335\215\246i8h"
	.ascii	"U\322\274\202\321\206\326p8\335V\362\343\343\030m\010"
	.ascii	"\351\272\212\311\312\030\355\017VqH\333\320~w\337\320"
	.ascii	"4\243\015Yy\245\354\277\0325\243\015\227\374\372\330"
	.ascii	"un/\377\2509\214l]\222\026\361\267\371\350\215v\237"
	.ascii	"\025\031v\214v\317\335h\232 \333\255\254Z\355\263\367"
	.ascii	"\351'\254\314w\344\373?\265\212(\237\377&\025]\021\372"
	.ascii	"\304\245\3544\375\257\010\033o\213\311\234i\217\245"
	.ascii	":\354\302\277\363\027\002\264\3175\365\244\367\357\033"
	.ascii	"MOd\306w\247G\367LL\354\331\215\317\007^\330\3373*\214"
	.ascii	"\361\236~\330\013\343\236\003\317O\354\375\037P\361"
	.ascii	"$-"
	.text
	.section	.gnu.lto_quickMedianFilter9.511c89c5,"",%progbits
	.ascii	"x\234\265\231khTG\024\307gf\237y\277\223\335Mv\223\354"
	.ascii	"&\233d\243\033\210m\002\011D\210(\221F\"\321\225\004"
	.ascii	"\"1\246%\315\207\250\250\364\253\233G!\266\240\241\372"
	.ascii	"\241/P)\242\265\255\026m\241h\301X\212U\320Rc\013\332"
	.ascii	"\212\025i\245\265`A,\265\325\232\3169\263s\357\354n"
	.ascii	"\356>\300\335\017g\357\376\357\231{\317\371g~w\346\022"
	.ascii	"F\030\211\3758\270\344p\021\322\304\217\3512B\331\334"
	.ascii	"\267\204L\332\0315\213\003\2238\270`73\323\361\213\204"
	.ascii	"\204\263-\277\331H8\327\302\254\263\015\374\227\015"
	.ascii	"b\256\225\332D\272\215\331Q\316B\331N\263\204\234\305"
	.ascii	"\262Q\316A9\233\346\0109\207\345\242\234\207r.\315\023"
	.ascii	"r\036\313G\271\000\345|Z \344\002V\210r\021\312\205"
	.ascii	"\264H\310E\254\030\345\022\224\213i\211\220KX)\312e"
	.ascii	"(\227\3222!\227\261r\224+P.\247\025B\256`\016\224\235"
	.ascii	"(;\250S\310N\346B\271\022e\027\255\024r%\253B\331\215"
	.ascii	"r\025u\013\331\315<(W\243\354\241\325B\256f5(\327\242"
	.ascii	"\\Ck\205\\\313\274(\373P\366R\237\220}\254\016\345z"
	.ascii	"\224\353h\275\220\353\231\037\345\006\224\375\264A\310"
	.ascii	"\015\254\021\345&\224\033i\223\220\233X\340\373\026"
	.ascii	".7\177\351\341r\2006\013\271\231R8 \224\354a&\263\305"
	.ascii	"j\263ge\347\344\346\345\027\024\026\025\227\224\226"
	.ascii	"\225W8\234\256\312*\267\247\272\246\326\353\253\253"
	.ascii	"\367746\005\232\351\236A\0123\305\344%G\302\341\267"
	.ascii	"\356\034=q\327\362\316\301\371\231\303\341\247\213\213"
	.ascii	"\224\216S>\253\334\224\214R2\300\177\320\032\374b\346"
	.ascii	"\350i\206c\347\346\257-\354\243\341\303Ss\341g|\350"
	.ascii	"851R\253\217<\314\304\320\272%\207^_\330\357T\206\232"
	.ascii	"\031\361%\273\351)6\177gq\361\351\201\327\177|\351e"
	.ascii	"JF\350Q\352%\025\374\373\010\377v\020^\270\223NP\342"
	.ascii	"\342G\226J\036\254\356H\216\007~TC\360B\360A\360Ch\200"
	.ascii	"\020\200\320\014!\010\241\005B+\204\025\020\332 \264"
	.ascii	"C\350\200\320\011\241\013\302J\010\335\020VAX\015a\015"
	.ascii	"\204\036\010k!\364BX\007\241\017\302z\010\375\0206@"
	.ascii	"\010A\330\004a\000\302 \204!\010\233!\014C\330\002a"
	.ascii	"+\017`\204\205\314p\337jF\350\007\274%\002V\361\317"
	.ascii	"F\0369\277!\312\370\227\3512\231\272\363\341\336|-\363"
	.ascii	"(f\216\320c\324B\360\000\004pV36DM\204?\006LW\311\324"
	.ascii	"\203\351\207l\204\036\347\251c\264b\214\362\013_%\323"
	.ascii	"o\230\244\344\340*\014%0\226\237yS;\343\032\243N~\036"
	.ascii	"\324\251\263\026\251V\276G\336\205;\361\3630\314\022"
	.ascii	"\271!\317\271\374]\271HZN>\016\363\317!H\023m\341m\361"
	.ascii	"\303/\200\267\231\235>\241U\345\346\247\261zH\272L\""
	.ascii	"\272\350\212\237\225\035\231\011\207\002\274\260\023"
	.ascii	"\355$\037q\211\314\334\233\014\311k\211\013\331\265"
	.ascii	"\271u\223\320\2101l\326\306/f:\236\005\327\262\200\255"
	.ascii	"\274\346[\217O\334\247\302\3101\352YN\226i%\303(\033"
	.ascii	"\325\256\003\015\336\232\313\221\251\325q\251\312#\373"
	.ascii	"\022\371\372\336\344\213\332Uy\266~.D\255\344\221\011"
	.ascii	"\272\230\357\215\374=\0058\341\323\341p\026\262jBj\352"
	.ascii	"\223Q\0235\001N\242\033\236\310\337\3013B?\321\377\016"
	.ascii	"?Q\203\246\2600\03007\0265\340\220\325\2405\274\203"
	.ascii	"\350\302&\015\374t\247l\324\033\347\211R1\332\367\232"
	.ascii	"L\365\305\245Z\364T\264\357?\253vY\236\256\372g\227"
	.ascii	"\376=6%0p\204\236\342\354\244\341\340\347\350\2407\342"
	.ascii	"\3401>)>\323\0359\223m\320\030\326\206\026\236\216\036"
	.ascii	"\361w\266A\177x\017\321I\226\346\3419m\016\372\343\234"
	.ascii	"\261\305\230x^\313m\210\313\325\347\275p\361\007m\302"
	.ascii	"\372y\272\352b\266t\361}\333\363t\361\034\272\350\217"
	.ascii	"\270\370\220\227zV\367\344I\276AgX\033\272\370$z\304"
	.ascii	"\371\002\203\376\360\036\242\223\034\351\342\333\037"
	.ascii	"\351(\007\342\254Q\352\215F\2719\021\365\321(\007x\266"
	.ascii	"jbn*(\247\355\341\005\3640\240\263<o\314\2626\036+\223"
	.ascii	",\317\033\263\254\300\037\220m\344\305\263\034\2143"
	.ascii	"\305\024\343\237\306rK\"\354cX\016\362t\325\300\374"
	.ascii	"\314\260\374\015:\030TX\276h\314\262\326\030\326\246"
	.ascii	"\261|\321\230e\205\376\240\354\244`\011\226[\343\234"
	.ascii	"\261\306\230\250\263\274\"\021\3671,\267\362t\325\305"
	.ascii	"\302\314\260|\025]lUX\276b\314\262\326\031\326\246\261"
	.ascii	"|\305\230e\205\376V\331I\221t\361\013\205\345\266\324"
	.ascii	"\227\345\366\324\227\3456\236\255\232X\234\021\226\257"
	.ascii	"\243\207m:\313\013)\255\313\355:\313\013\306,+\353r"
	.ascii	"\233l\243$\236\345\216\324\327\345\3164\326\345\016"
	.ascii	"\236\256\032X\232\031\226o\242\203\035\012\3137RZ\227"
	.ascii	";\025\226o\030\263\254\254\313\035\262\223\262%X\356"
	.ascii	"Jc]^\231\306\272\334\305\323U\027\3133\303\362\317\350"
	.ascii	"b\227\302\362\355\224\326\345\225\012\313\267\215YV"
	.ascii	"\326\345.\331I\205t\361\206\302rw\352\353\362\252DK"
	.ascii	"P4\313\335<[5\321\221\021\226\177E\017\273u4\1771FS"
	.ascii	"YT\272eU\316x4W'\342-\032\3155I'\225\216\346j\236\256"
	.ascii	"\372\341\312\014\232\367\321\220\325\012\232\277\033"
	.ascii	"\243\251\200\266F\326U\271\004h=I\237V:hk\323X4{x\272"
	.ascii	"\352IUf@\373\023=\351Q@{`\014\232\362\270Z\253\200\366"
	.ascii	"\300\0304\005\315\036\331\211[{\227U@\353M\272\201\323"
	.ascii	"\234Y\227h\233\022\015Z/\317VM\364d\004\264\277\320"
	.ascii	"\303^\035\264G\306\240)\373\216^YUu<h}I\367\020\032"
	.ascii	"h\353\323\330\317\366\361t\325\217\232\314\200\366/"
	.ascii	"\032\322\247\254h\377\244\264;\355\223u\325.\001Z\177"
	.ascii	"\242\275R\014h\033\222\356\013t\320\372y\272\352\211"
	.ascii	"73\240-\242'\375\012h\317\214ASvJ\033d]>\355\275\361"
	.ascii	"\244\216M(\351\323G\353sS\322\207\217\206M\210g\253"
	.ascii	"\226\324e\004\233\031\006\216\204\364\275\34643\334"
	.ascii	"k*\223d\223\254\252>\036\233\201\324\267\216\203I\267"
	.ascii	"\336:6\003<]\365\303\237\031l\366\242!\003\312\3724"
	.ascii	"\313R\331:\016*\240)#bAS&\325\200\354\244a\011\320\206"
	.ascii	"\322x\015\334\234\364\341\243\2036\304\323U\027\033"
	.ascii	"3\003\332~tqHY\237\3661\303\365IqqH\326\325\244\275"
	.ascii	"\324)\240\015\247\016\332\226\324_\352\206y\266jI\200"
	.ascii	"\3345?\177\320\016\242#\303:h\007R\002m\213\254\252"
	.ascii	"Y\333\031\237\014\310\312\267F\306w&0\345\253?\230H"
	.ascii	"\027\011/\2203\341Y\370\357\014?y\215L\316[\264k\211"
	.ascii	"\001\033)\3457\002\257\\\301\226];G[&F\306\267\265\214"
	.ascii	"n\237\230\330\276\215\037\357~uWp\224\230\306\203\355"
	.ascii	"t\007\0357\357~eb\307\377\031\031\324F"
	.text
	.section	.gnu.lto_arraySubInt32.511c89c5,"",%progbits
	.ascii	"x\234\205S\277\213\023A\030\375\336\314N\262\331$w\234"
	.ascii	"\235\302\301\231\316&i\005\361\017\020,=\3202\244XS"
	.ascii	"\344\016<\373\233ds\340/0\034\202\277\232;\216\273V"
	.ascii	"\261\260\2601\202\240\021N\360:\2734\212\210XZ\211\353"
	.ascii	"\233\335\235\025\317\302\201\235\371\276\367\315{\363"
	.ascii	"\355\233]%J\216\217\363|\216\010\267\270\242\"P\223"
	.ascii	"\367\"\303P!\310\003\235\007\257\302@\351;oDld\306U"
	.ascii	"\261\015\0038\\ \233J\007\006\233W\340\344TKv\255\335"
	.ascii	"\236o=\373\212\207\367\246\343\035\3733M\201>x\3642"
	.ascii	"\244\007\271\314\004+\331\242\202\277{\311\270\223i"
	.ascii	"\272}\367\244\335\031M\354/R\373\320JN\377\217\371D"
	.ascii	"M\347i\372\355\376\326\321\305\023\220.\366\320\222"
	.ascii	"\000\003\210a\262\313\244\"l\241J\004!\243\240\306H"
	.ascii	"E.\252s2\015\246\272\351\322\005\227.\272i\251\220\341"
	.ascii	"02f_+\342\232\340\270\304\231\036\254Bq\3213\031\315"
	.ascii	"_\316\252\305\036\317\351b\037F\262\300\001\256g\355"
	.ascii	"\233]eH+\365\241\214\276'{\007\313]\034po\014\023\203"
	.ascii	"\312\207\222\334\322\036\252\020u\\q\357\313\312\355"
	.ascii	"\262\022\306\250\262\236\243\311gx<\212Q+\360\321\013"
	.ascii	"\343\321\372cyD\031\312EN\316\273\227q\237+\277\253"
	.ascii	"\031\243\361/w\241\3446\217qo&?\312s\027y\010\367f\334"
	.ascii	"\331\323(\207\311\034Zk\317e\354\360\017\233\3333\201"
	.ascii	"\033I\272\177\301+,\361\3653\237\234\3113)\272\312\375"
	.ascii	"c\325{\027\010\277;\347z(e\221\214\267\362\372\323\260"
	.ascii	"\356\265\020\227}\312GAa\277\372\242)\244\037\324\234"
	.ascii	"\216q\227\367A\206\363wg\312\313\222\374z\301\222\373"
	.ascii	"SN\265;\033\327z\235A\267\277\326\351\255\017\006\353"
	.ascii	"k\214\257_\335h\367D\367\333g\321\377\015\307&\247\244"
	.text
	.section	.gnu.lto_.symbol_nodes.511c89c5,"",%progbits
	.ascii	"x\234M\314Kn\3020\024\205\341sm\022\036\011\304\341"
	.ascii	"\345!K=\010$`\330\015\264\003:\201e\224\005\260\206"
	.ascii	"\002\323\256\241\302I\2208\236\374\376|\255\353\340"
	.ascii	"\360c\350\216[\022\370\270\002\344\347\301\\\244\211"
	.ascii	"@\367\322W\222\321\213\034{\"\317L\324c.\312\330\027"
	.ascii	"\345\034\210\372\034\212\006\034\211\206,D#\226\242"
	.ascii	"\202cQ\311\211h\314J4a\020U\254E\201SQ\315\231h\312"
	.ascii	"\271h\306\205h\316\345[\266`\354\264^\233w\300\361|"
	.ascii	"5\237.\307\337\177\363Y\304\243in\270\234\322{Y`\323"
	.ascii	"\270\214\370nZElw\177+\037|\367?8\334\333z\\n\2357\257"
	.ascii	"\371\275m\332\273O\255C;\307\023\3337\205\270"
	.text
	.section	.gnu.lto_.refs.511c89c5,"",%progbits
	.ascii	"x\234cb`b`d\200\002\000\000F\000\006"
	.text
	.section	.gnu.lto_.decls.511c89c5,"",%progbits
	.ascii	"x\234\245Z\015p\024\325\035\177o\367rI XP\352\250C\307"
	.ascii	"\330Q\352\320!|\331\357\216\266U[\234)\216#J\325I'}"
	.ascii	"\334m\310M/wpw\011\3408\343\022JJitB\000E-&\242B\035"
	.ascii	"@\022>\244\370\305A\011\037! \326\241)4\350!\306o\005"
	.ascii	"CA(\201\353\377\275{\273\267\373n\337\336\336ug\376"
	.ascii	"\267o\337\276\337\357\375\377\277\367\336\177\337n\242"
	.ascii	" \005\355\366#\224\206#\372\035\204\342*B\327 \204n"
	.ascii	"\005\203\"\252\002\203\333\310\2072\007\275\367\034"
	.ascii	"\330F\260\035`\335`\275`}`\307\301\006\300\006\301\206"
	.ascii	"\300Fc\204\306\200}\033l,\330\024\260;\301\036\004{"
	.ascii	"\004l\021X\013X+\330r\260\225`k1\3129h\177%\334\227"
	.ascii	"+\300*\300\272\300\326\361\266\230\267\241\347\365\002"
	.ascii	"v#\257\367\243l[Z\247\200\275\012\366\272\320\236\306"
	.ascii	"T\312\271\255}\321\276\327C\335j\336N\341m\215~\377"
	.ascii	".\360t[\364\333\000\015^\306Y\\7\307\322\252\036\001"
	.ascii	"\327k\301\031\375\033~\367r\374\021\260w\004\\\237\203"
	.ascii	"F\264\337\244\305_\332\206\352K\271\376-\340\351\330"
	.ascii	"\3211\246:m\204\006\235<n\003K\357\033\272\275\017v"
	.ascii	"R\300\017p\037\215y\202y\035\215\3453\260/\300N\011"
	.ascii	"\230A\336\256\312\202\031\344\230\363`\027\300\376+"
	.ascii	"`\206\370}\037\007\2449\356\012\036\327\020\277\036"
	.ascii	"%\314#:\027}\034We\301\226pl\031\230\037l\030X\005\347"
	.ascii	"\242\030\032\357\265p\276N\340\243\363\332\217\354z"
	.ascii	"[}R8\257\3015\206\237+\005\036\2726\214q\353\204\362"
	.ascii	"\267\260}\334T\336f\014\316\216\335\215\002\307X\234"
	.ascii	"\253\243Q7Qh;\005g\307\331\3467\307M\341\376\374\002"
	.ascii	"\316?\003\373\011\330O\301n\025x\350:.\025\342\277\013"
	.ascii	"\352\246Z\374\247\276\377\032\312w\203\335\303\265\274"
	.ascii	"\223\307A\313\367\301y\206\300Ks\303p\201w\026\324\375"
	.ascii	"\026\254\032g\327R\000\254\3012\246\265P\256\007\213"
	.ascii	"\202\315\301\231\276)\227\261\326h\177s\341z\276\320"
	.ascii	"\337#\274\277.\313z\257\262\304\262\011l3\330C\274O"
	.ascii	"\237$\256Gx^\243\345\005p^(\364Cs]\031\342\363\215\367"
	.ascii	"\263\005g\326\330bl\317\261\230\267\247\347%\002O\213"
	.ascii	"\003\317V\027\236\026\316\363\270\300\323\352\300\263"
	.ascii	"\315\205\247\225\363\264\011<\313\035x\266\273\360,"
	.ascii	"\347<O\010<+\371|\262\362\370,\034]\026\216\225|\034"
	.ascii	"^\200s;X\007\330j\201\357z\364\254~\370tj\340\315A\374"
	.ascii	"Tk\262IO\247\037EW\243\025:=\232u\035\307\010\256\032"
	.ascii	"\206\036\300\004_Q\216F\262BE9\033=\204\010^\215\257"
	.ascii	"f%5S\303\332\022|\277j\322+\350\016\214\306\241\227"
	.ascii	"\200\255U\327\233\306\011\275\033P\005\375\006g\313"
	.ascii	"5\330v+\230\005\335\210\236\007\242\324\326\275\033"
	.ascii	"\306m\326\223>\326\237\002s\000C\257\317\341\353\015"
	.ascii	"?+\015?}\206Sp\214E/R'N\265,\032\351\343ur\020\217\357"
	.ascii	"\005\254\344\210\225J\256\332\333r\355\342\216\005\311"
	.ascii	"t\3726\273V\345h1-w4\353S\367\301\3408\021\337\204^"
	.ascii	"\240\021\264\367\354\356\302M\200!\270\013S=\017\260"
	.ascii	"\030^\304\343xW\336\251\372\016m\033\247\353e\004oa"
	.ascii	"Dk\025;\021\301\376rk\014\354\332h@\331\340\222\366"
	.ascii	"t\236\356l\360\243\274\206^\224\242\242q\262\371\322"
	.ascii	")\316\027\032\274\355\202\025l\023\250K\010\310\230"
	.ascii	"\003\177\374\350+\274l\241>\325Pp\017k\267Q:\013\030"
	.ascii	"{\006\254\277\241\231\260^/0s\366l\376\340\236\251F"
	.ascii	"\235\034\305\243\335\236;{N\363\245\246\263\245\226"
	.ascii	"\276fAr\256\367\325\226\314\277\332\216\330\304\"x\015"
	.ascii	"V\035\027\015\301\033\3009\202wxY4\272\260hd \336\347"
	.ascii	".\307\260\273\255a\353\372\310L8\012:f\363\230\205F"
	.ascii	"\360ZF\301/^2\370\370\365:\013\277\031\333\266\334\330"
	.ascii	"\272\213\211M\006\342\261\355\311\215\2553\225\0328"
	.ascii	"i\215-Y\352}H\017:\014\251\265\234\273\034\336\363\256"
	.ascii	"\227u\261\354\336\21175\323\305\3022\346\207\214\244"
	.ascii	"\327U \276T.\364\342\2516Y\335Q\022Ye .\303\341\\Y;"
	.ascii	"R\251\027m\262\322\\\231\2312\037\027%\301\336\343]"
	.ascii	"Y\011\214`\372\212\011F\006\342\301\374\313i\216\260"
	.ascii	"\207\206\316\036\032;t,>biB\221M\221w\213\310\231_:"
	.ascii	"\346L=\035\344\311\213\340\327X\370\307\013\313\226"
	.ascii	"\004\277\341\005f\312f\317\2262\024\217\363\204\243"
	.ascii	"lG\366\366`}\211>\224N\253\242h>\271f\037\212\232\371"
	.ascii	"\312me\341V\256\200C\316\002\366Q\001}\264\237f\225"
	.ascii	"6\030\220\012\341\313\312w\301\004-\361\016zF3@\217"
	.ascii	"{\000\231\212\257kf\023\325\227Q\\\006\342*}\352\250"
	.ascii	"\370\205\275\007d\212\273$\2623\371\023\231{^[\246:"
	.ascii	"*\376U6\375|\316\346\336\240\227\244\365\344A\023\365"
	.ascii	"\245w\324\033Y\324i\017(Iv\220\201\270P_;\245\272\344"
	.ascii	"\252%R\321o\375\246T\364Kv\321\207\243%\260\307\346"
	.ascii	"{\306+\321RJRi\331=\302\376\237\023\214F\346\366\361"
	.ascii	"\322\261\365*\333>\352\312\225@\263]\030\206\2744\012"
	.ascii	"\332\311 \013\001\236\0012b=\371\314s\2702S\215l\214"
	.ascii	"\266\343\006\324A\333\266\177\261R\325\333*\370\323"
	.ascii	"i\277I\350\244#/f\016\336\300\306\246\367\365\342}\023"
	.ascii	"9\327\341\202\271*m\\_[\270\372\274p\225\311\375\202"
	.ascii	"Yir\275[0\227\315\257d\327\300>\314\024c9b\300\013\333"
	.ascii	"H\007\317\234\016\353X\022\274H\271\011~\233\225\033"
	.ascii	"\340w1\373]\302~[\330\357\343\360k\036\316\263\236\340"
	.ascii	"4\036\236\345\266-\372O\234\026}\033lW\3666\361\275"
	.ascii	"=\305*h\220\265\033\222.G\336\003_\217\217\351\213F"
	.ascii	"b\266p\020G\331\242kU\234V\340+=\025\207\365T:}\275"
	.ascii	"\367\345\267B\021r\036u\303=\313\235s\014X\177/\310"
	.ascii	"C%\270M\241\231g\271\342\032*OX+\016\012{39\314\226"
	.ascii	"\260\354\002Q\220M\240\225\271\002\245N'\317\364\030"
	.ascii	")j\241\236\273\203qy4\254r\222I\320\345\262\263.\027"
	.ascii	"D]\376\342\256\213$%\313P\334\301v\307\0111dL\210L\004"
	.ascii	"\360\364\3669\372\310\236\324V\037W\027\345\243\014"
	.ascii	"\305}|>\327GxV?q\300y\322\272\214\306Z\373h\360\357"
	.ascii	"\014\000\274\371\257\331\024oC\231\237,^\371.{P\274"
	.ascii	"\244\320\372vA\015\357D\377<4V\207\270\3273\232\265"
	.ascii	"\002\015\301\212\360\271B\261\177vP\350g\207\313\351"
	.ascii	"t\366\263\203B?;\330?,\025\200\022\27768\0152}{\030"
	.ascii	"h\302\177X\250\337l\204\277\213\265[\223\0354[\244\231"
	.ascii	"V\262\241^\343>\324\033\035\207\272\353@1\033\341-\342"
	.ascii	"\332\313\273\021.h\233\334\343\250\226~\224\357x\215"
	.ascii	"\264\264Y\272\",;\336\257\315m\362\021\306\352\011\324"
	.ascii	"nn\223\373\275\203\372L\320I\357\240\245{*Z1\207}\346"
	.ascii	"\001&\331\222\313@|\274^uLEo\377\271\230\335\341\036"
	.ascii	"\245\240\335\341\357\014|\005\033\3323,\306\375\302"
	.ascii	"\256.u\351\351\227ofY`\277\247\215\335k\266\215\335"
	.ascii	"%\223\263\250\215]\362u\313\006*]0W\245\215\353M\013"
	.ascii	"\327\202\022\017\\N\033;\363\220m}\366)\346\326\307"
	.ascii	"\\I\274NXJ\013K$[\241\377l\302\313\331V\210\342\340"
	.ascii	"u\220\265\353\226\316=\306\316\037Mg5\023\326\346\005"
	.ascii	"&\331 t\213\033\204w\0347\010\347%\017#\227"
	.ascii	")z\314e\212^\205\332\\\247\250\361\376\362t\367$6!\217"
	.ascii	"+W\001\313\223\202\214\371X\250\027)@\332^]\322Ze\246"
	.ascii	"6\377\004_\272\3471\254w\354\302\243P+\357\307\372\364"
	.ascii	"\315\351\352\2442\212\225l\237\367Y\013\331\014\372"
	.ascii	"\200?\017\315\031m\223\220\316\234\347Y\310\324]\247"
	.ascii	"^\363\257\252e{V\260\020\362\345\204\214\340\311\213"
	.ascii	"#\024\202?b/\213k\005\261\363g\225\255\014\361\251\370"
	.ascii	"\256x\206\275+~\352)\245\234\265\245\224\035&aq)\345"
	.ascii	"\234%\015\354.\230\253\322\306u\336\302\325\343\205"
	.ascii	"\3135\245X\016\253b\004\177\316\336\310\276`\357_\247"
	.ascii	"\330\357W\326\2670\005\035*vB8\367\235]\036\004\237"
	.ascii	"`}\277\317z\375\320\313\273_\177N\002\264-\362\314\212"
	.ascii	"\220\201\317f\301('a\036\221%\314\313\203<a\366\263"
	.ascii	"\314\367\011kwT\232\371\372-\011\363(M\230g\031\354"
	.ascii	"T\036\330Y\227\204yTL\230\347\034\037\353\203\207\012"
	.ascii	"N\230\227\304\375\034\315\333\346E\277\343\223\345\234"
	.ascii	"\243P\372\322\354\303\3412k1\344\351\231\362\266\306"
	.ascii	"\225%\370<{\335\221\303\372]$\032\022%\322U'\211^{\313"
	.ascii	"\370j~[Y\001\337\314\233U\371s\305\206\314\231r\213"
	.ascii	"U\331\267\012\335\357(\343*\252\007E\021\334\244R=\026"
	.ascii	"\2512=8\267\343\307q\031\212{\362'Gu\372\337\312L\240"
	.ascii	"v\366\000\244A+h\231G7[\212rS\206\342n>\346\350f\333"
	.ascii	"?r\335\\\343\321\315\326\242\334\224\241\270\233K\035"
	.ascii	"\335|\335\301\315\355\036\335\\^\224\2332\024ws\205"
	.ascii	"\243\233\027\333\212y\031xJ\025\022\007\365\313v!\336"
	.ascii	"D\371^\376z\235\265\271\0304\265\351c\011b\245\2736"
	.ascii	"\034\266\335\220TA\307\030\2617\330\305,\354\204gX\253"
	.ascii	"\276\331\3626\367q\036\234\355m\316\236\305(\310r\020"
	.ascii	"\374l\356\220\245:S\003\037\321?d\3562\376>\374\260"
	.ascii	"\361\207\314/m\012\346\373C\246\303\301\266\221M\256"
	.ascii	"\377%BY\326\251\331=d\246l\224\350\367\220o\344$H\372"
	.ascii	"o=2\256\365\331\004)\240\222.\250\015Y\2249g\223^\377"
	.ascii	"\337\201\340\235Xu\354\262\323\245\313\215RG\351\347"
	.ascii	"<\031\2523\213\262n\351-\273\224\016\305\300\334\310"
	.ascii	"1]\352(^26\353b\217\307\\z\334$\365\223\362\312P\233"
	.ascii	"\235\375\264<\332r\336=\266\344\272)\201\332\377\302"
	.ascii	"C\021[\325B\337[^Q\235\337[|\356^\247\314\256\307p\242"
	.ascii	"m\005w\3757I\327~\367\256s\007v{\301]\277*\351\272\314"
	.ascii	"\030\254\237\007~\\\035\324\032\253g\005\002\343I\254"
	.ascii	"~|$\032\321\306kdfh\374-5?\034?y\342\244[\346L\256\266"
	.ascii	"\335\250\016E\002\341\206\240V]O\022uUuhx<\024\251\255"
	.ascii	"\232Mb\211\252\211\376_\335}\177\345\355\2504\022M\324"
	.ascii	"\305\242s}a\215\324\226\004\242\221x\342\272\252\011"
	.ascii	"\361X`B=\011E&\004\242\365\365\321\310\004\212\217W"
	.ascii	"\005\020\236w{\361N\304\023\301P$\001n\224\302i\312"
	.ascii	"\344\232\304\364\377'\240@](\242U\327\004\265Z\322\020"
	.ascii	"N\324$\346\317\326\342\300]^S\303\331G\223\331\263\303"
	.ascii	"\363\357\320Hp&\211\0043QO*i$\341\006\255,\310k}T\020"
	.ascii	"_ \032\257\365\223\004\211L\256\305\363K\010\275\034"
	.ascii	"a\003\2273]b \210J\352\023j\030\344\252\013\315\252"
	.ascii	"\033fV\327J5\203h!n\255\261&\301\317q\177}M4\034\234"
	.ascii	"\006\247\2106wZ\346jz\346j\272\012'p\256\361v\030\215"
	.ascii	"\230\012\205R\260{\032\342u\303\341<\203\304B$\022\320"
	.ascii	"FCy:x\033$\261\340\035Zc\210$B\321\010\325t\322\367"
	.ascii	"k\022\231\370iidP\233\025\323\264\370}\321{I\020\200"
	.ascii	"\361R^1,\036 a\355^\022\231\245\371\301\351i\241\010"
	.ascii	";\221y\320 \236\200\313\314\231\314+\257\235]\323\250"
	.ascii	"\005\022\321\030~\000?\210\037\032\026\211\306\352I"
	.ascii	"8\364\2606C\005\204\2176\033\016m\200)\254\305k\022"
	.ascii	"j\214\314\035\221\275\206\241)7\257|\261h8\\2;\224\010"
	.ascii	"\324\251\363\311\\\177\246\366\252\231\015\241p\360"
	.ascii	"\336h\202\3050\215$b\241y%A-\234 \376zvQ\032\243\367"
	.ascii	"\264\031\270\361\3129\015\241\300\357\247i4\224_\206"
	.ascii	"\302\011-6%\267\352{\271U?\310\255\372\321\010\022\213"
	.ascii	"\221\371\323\033f\336E\247\212\237]M\312\234&\303\032"
	.ascii	"h\210$J\342sb\211\332\377\001z\315\300\236"
	.text
	.section	.gnu.lto_.symtab.511c89c5,"",%progbits
	.ascii	"applyDeadband\000\000\000\000\000\000\000\000\000\000"
	.ascii	"\000\000\335\000\000\000constrain\000\000\000\000\000"
	.ascii	"\000\000\000\000\000\000\000\345\000\000\000constra"
	.ascii	"inf\000\000\000\000\000\000\000\000\000\000\000\000"
	.ascii	"\362\000\000\000devClear\000\000\000\000\000\000\000"
	.ascii	"\000\000\000\000\000\374\000\000\000devPush\000\000"
	.ascii	"\000\000\000\000\000\000\000\000\000\000\024\001\000"
	.ascii	"\000devVariance\000\000\000\000\000\000\000\000\000"
	.ascii	"\000\000\000\034\001\000\000devStandardDeviation\000"
	.ascii	"\000\000\000\000\000\000\000\000\000\000\000\"\001\000"
	.ascii	"\000degreesToRadians\000\000\000\000\000\000\000\000"
	.ascii	"\000\000\000\000&\001\000\000scaleRange\000\000\000"
	.ascii	"\000\000\000\000\000\000\000\000\0003\001\000\000no"
	.ascii	"rmalizeV\000\000\000\000\000\000\000\000\000\000\000"
	.ascii	"\000E\001\000\000buildRotationMatrix\000\000\000\000"
	.ascii	"\000\000\000\000\000\000\000\000Y\001\000\000rotate"
	.ascii	"V\000\000\000\000\000\000\000\000\000\000\000\000|\001"
	.ascii	"\000\000quickMedianFilter3\000\000\000\000\000\000\000"
	.ascii	"\000\000\000\000\000\205\001\000\000quickMedianFilt"
	.ascii	"er5\000\000\000\000\000\000\000\000\000\000\000\000"
	.ascii	"\214\001\000\000quickMedianFilter7\000\000\000\000\000"
	.ascii	"\000\000\000\000\000\000\000\220\001\000\000quickMe"
	.ascii	"dianFilter9\000\000\000\000\000\000\000\000\000\000"
	.ascii	"\000\000\224\001\000\000arraySubInt32\000\000\000\000"
	.ascii	"\000\000\000\000\000\000\000\000\230\001\000\000"
	.text
	.section	.gnu.lto_.opts,"",%progbits
	.ascii	"'-mthumb' '-mcpu=cortex-m3' '-ggdb3' '-Os' '-flto' "
	.ascii	"'-fuse-linker-plugin' '-ffunction-sections' '-fdata"
	.ascii	"-sections' '-fverbose-asm' '-ffat-lto-objects'\000"
	.text
	.cfi_sections	.debug_frame
	.global	__aeabi_f2iz
	.global	__aeabi_fsub
	.global	__aeabi_fcmpgt
	.global	__aeabi_fadd
	.global	__aeabi_fcmplt
	.global	__aeabi_fmul
	.section	.text.sinf,"ax",%progbits
	.align	1
	.global	sinf
	.thumb
	.thumb_func
	.type	sinf, %function
sinf:
.LFB0:
	.file 1 "./src/main/common/maths.c"
	.loc 1 44 0
	.cfi_startproc
	@ args = 0, pretend = 0, frame = 0
	@ frame_needed = 0, uses_anonymous_args = 0
.LVL0:
	push	{r4, r5, r6, lr}	@
	.cfi_def_cfa_offset 16
	.cfi_offset 4, -16
	.cfi_offset 5, -12
	.cfi_offset 6, -8
	.cfi_offset 14, -4
	.loc 1 44 0
	mov	r4, r0	@ x, x
.LVL1:
	.loc 1 45 0
	bl	__aeabi_f2iz	@
.LVL2:
	.loc 1 46 0
	adds	r0, r0, #32	@ D.5436,,
	cmp	r0, #64	@ D.5436,
	bhi	.L17	@,
.LVL3:
.L3:
.LBB4:
.LBB5:
	.loc 1 47 0
	mov	r0, r4	@, x
	ldr	r1, .L19	@,
	bl	__aeabi_fcmpgt	@
.LVL4:
	cbz	r0, .L5	@,
	mov	r0, r4	@, x
	ldr	r1, .L19+4	@,
	bl	__aeabi_fsub	@
.LVL5:
	mov	r4, r0	@ x,
.LVL6:
	b	.L3	@
.LVL7:
.L5:
	.loc 1 48 0
	mov	r0, r4	@, x
	ldr	r1, .L19+8	@,
	bl	__aeabi_fcmplt	@
.LVL8:
	cbz	r0, .L18	@,
	mov	r0, r4	@, x
	ldr	r1, .L19+4	@,
	bl	__aeabi_fadd	@
.LVL9:
	mov	r4, r0	@ x,
.LVL10:
	b	.L5	@
.LVL11:
.L18:
	.loc 1 49 0
	mov	r0, r4	@, x
	ldr	r1, .L19+12	@,
	bl	__aeabi_fcmpgt	@
.LVL12:
	cbz	r0, .L14	@,
	ldr	r1, .L19+12	@,
	mov	r0, r4	@, x
	bl	__aeabi_fsub	@
.LVL13:
	mov	r1, r0	@ tmp138,
	ldr	r0, .L19+12	@,
	b	.L15	@
.L14:
	.loc 1 50 0
	mov	r0, r4	@, x
	ldr	r1, .L19+16	@,
	bl	__aeabi_fcmplt	@
.LVL14:
	cbz	r0, .L9	@,
	ldr	r1, .L19+12	@,
	mov	r0, r4	@, x
	bl	__aeabi_fadd	@
.LVL15:
	mov	r1, r0	@ tmp142,
	ldr	r0, .L19+16	@,
.L15:
	bl	__aeabi_fsub	@
.LVL16:
	mov	r4, r0	@ x,
.LVL17:
.L9:
	.loc 1 51 0
	mov	r1, r4	@, x
	mov	r0, r4	@, x
	bl	__aeabi_fmul	@
.LVL18:
	mov	r5, r0	@ tmp144,
.LVL19:
	.loc 1 52 0
	mov	r1, r5	@, tmp144
	mov	r0, r4	@, x
.LVL20:
	bl	__aeabi_fmul	@
.LVL21:
	ldr	r1, .L19+20	@,
	mov	r6, r0	@ D.5435,
	mov	r0, r5	@, tmp144
	bl	__aeabi_fmul	@
.LVL22:
	ldr	r1, .L19+24	@,
	bl	__aeabi_fsub	@
.LVL23:
	mov	r1, r0	@ D.5435,
	mov	r0, r5	@, tmp144
	bl	__aeabi_fmul	@
.LVL24:
	ldr	r1, .L19+28	@,
	bl	__aeabi_fadd	@
.LVL25:
	mov	r1, r0	@ D.5435,
	mov	r0, r5	@, tmp144
	bl	__aeabi_fmul	@
.LVL26:
	ldr	r1, .L19+32	@,
	bl	__aeabi_fsub	@
.LVL27:
	mov	r1, r0	@ D.5435,
	mov	r0, r6	@, D.5435
	bl	__aeabi_fmul	@
.LVL28:
	mov	r1, r0	@ D.5435,
	mov	r0, r4	@, x
	bl	__aeabi_fadd	@
.LVL29:
	pop	{r4, r5, r6, pc}	@
.LVL30:
.L17:
.LBE5:
.LBE4:
	.loc 1 46 0
	movs	r0, #0	@ D.5435,
	.loc 1 53 0
	pop	{r4, r5, r6, pc}	@
.LVL31:
.L20:
	.align	2
.L19:
	.word	1078530011
	.word	1086918619
	.word	-1068953637
	.word	1070141403
	.word	-1077342245
	.word	909016218
	.word	961523706
	.word	1007191861
	.word	1042983588
	.cfi_endproc
.LFE0:
	.size	sinf, .-sinf
	.section	.text.cosf,"ax",%progbits
	.align	1
	.global	cosf
	.thumb
	.thumb_func
	.type	cosf, %function
cosf:
.LFB1:
	.loc 1 56 0
	.cfi_startproc
	@ args = 0, pretend = 0, frame = 0
	@ frame_needed = 0, uses_anonymous_args = 0
.LVL32:
	push	{r3, lr}	@
	.cfi_def_cfa_offset 8
	.cfi_offset 3, -8
	.cfi_offset 14, -4
	.loc 1 57 0
	ldr	r1, .L22	@,
	bl	__aeabi_fadd	@
.LVL33:
	.loc 1 58 0
	pop	{r3, lr}	@
	.loc 1 57 0
	b	sinf	@
.LVL34:
.L23:
	.align	2
.L22:
	.word	1070141403
	.cfi_endproc
.LFE1:
	.size	cosf, .-cosf
	.global	__aeabi_fcmpeq
	.global	__aeabi_fdiv
	.section	.text.atan2f,"ax",%progbits
	.align	1
	.global	atan2f
	.thumb
	.thumb_func
	.type	atan2f, %function
atan2f:
.LFB2:
	.loc 1 65 0
	.cfi_startproc
	@ args = 0, pretend = 0, frame = 0
	@ frame_needed = 0, uses_anonymous_args = 0
.LVL35:
	push	{r3, r4, r5, r6, r7, r8, r9, lr}	@
	.cfi_def_cfa_offset 32
	.cfi_offset 3, -32
	.cfi_offset 4, -28
	.cfi_offset 5, -24
	.cfi_offset 6, -20
	.cfi_offset 7, -16
	.cfi_offset 8, -12
	.cfi_offset 9, -8
	.cfi_offset 14, -4
	.loc 1 75 0
	bic	r5, r1, #-2147483648	@ res, x,
.LVL36:
	.loc 1 76 0
	bic	r6, r0, #-2147483648	@ res, y,
.LVL37:
	.loc 1 65 0
	mov	r7, r0	@ y, y
	mov	r8, r1	@ x, x
	.loc 1 77 0
	mov	r0, r5	@, res
.LVL38:
	mov	r1, r6	@, res
.LVL39:
	bl	__aeabi_fcmpgt	@
.LVL40:
	cbz	r0, .L46	@,
	mov	r4, r5	@ res, res
	b	.L25	@
.L46:
	mov	r4, r6	@ res, res
.L25:
.LVL41:
	.loc 1 78 0 discriminator 3
	mov	r0, r4	@, res
	movs	r1, #0	@,
	bl	__aeabi_fcmpeq	@
.LVL42:
	cbnz	r0, .L47	@,
	.loc 1 78 0 is_stmt 0 discriminator 1
	mov	r0, r5	@, res
	mov	r1, r6	@, res
	bl	__aeabi_fcmplt	@
.LVL43:
	cbz	r0, .L48	@,
	.loc 1 78 0
	mov	r0, r5	@ res, res
	b	.L29	@
.L48:
	mov	r0, r6	@ res, res
.L29:
	.loc 1 78 0 discriminator 1
	mov	r1, r4	@, res
	bl	__aeabi_fdiv	@
.LVL44:
	mov	r4, r0	@ res,
.LVL45:
	b	.L27	@
.LVL46:
.L47:
	.loc 1 79 0 is_stmt 1
	movs	r4, #0	@ res,
.LVL47:
.L27:
	.loc 1 80 0
	mov	r0, r4	@, res
	ldr	r1, .L49	@,
	bl	__aeabi_fmul	@
.LVL48:
	ldr	r1, .L49+4	@,
	bl	__aeabi_fsub	@
.LVL49:
	mov	r1, r4	@, res
	bl	__aeabi_fmul	@
.LVL50:
	ldr	r1, .L49+8	@,
	bl	__aeabi_fsub	@
.LVL51:
	mov	r1, r4	@, res
	bl	__aeabi_fmul	@
.LVL52:
	ldr	r1, .L49+12	@,
	bl	__aeabi_fsub	@
.LVL53:
	mov	r1, r4	@, res
	bl	__aeabi_fmul	@
.LVL54:
	ldr	r1, .L49+16	@,
	bl	__aeabi_fsub	@
.LVL55:
	ldr	r1, .L49+20	@,
	add	r9, r0, #-2147483648	@ D.5442,,
	mov	r0, r4	@, res
	bl	__aeabi_fmul	@
.LVL56:
	ldr	r1, .L49+24	@,
	bl	__aeabi_fadd	@
.LVL57:
	mov	r1, r4	@, res
	bl	__aeabi_fmul	@
.LVL58:
	mov	r1, #1065353216	@,
	bl	__aeabi_fadd	@
.LVL59:
	mov	r1, r0	@ tmp148,
	mov	r0, r9	@, D.5442
	bl	__aeabi_fdiv	@
.LVL60:
	.loc 1 81 0
	mov	r1, r5	@, res
	.loc 1 80 0
	mov	r4, r0	@ res,
.LVL61:
	.loc 1 81 0
	mov	r0, r6	@, res
.LVL62:
	bl	__aeabi_fcmpgt	@
.LVL63:
	cbz	r0, .L31	@,
	.loc 1 81 0 is_stmt 0 discriminator 1
	mov	r1, r4	@, res
	ldr	r0, .L49+28	@,
	bl	__aeabi_fsub	@
.LVL64:
	mov	r4, r0	@ res,
.LVL65:
.L31:
	.loc 1 82 0 is_stmt 1
	mov	r0, r8	@, x
	movs	r1, #0	@,
	bl	__aeabi_fcmplt	@
.LVL66:
	cbz	r0, .L33	@,
	.loc 1 82 0 is_stmt 0 discriminator 1
	mov	r1, r4	@, res
	ldr	r0, .L49+32	@,
	bl	__aeabi_fsub	@
.LVL67:
	mov	r4, r0	@ res,
.LVL68:
.L33:
	.loc 1 83 0 is_stmt 1
	mov	r0, r7	@, y
	movs	r1, #0	@,
	bl	__aeabi_fcmplt	@
.LVL69:
	cbz	r0, .L35	@,
	.loc 1 83 0 is_stmt 0 discriminator 1
	add	r4, r4, #-2147483648	@ tmp157, res,
.LVL70:
.L35:
	.loc 1 85 0 is_stmt 1
	mov	r0, r4	@, res
	pop	{r3, r4, r5, r6, r7, r8, r9, pc}	@
.LVL71:
.L50:
	.align	2
.L49:
	.word	1028524345
	.word	1050588643
	.word	1041693320
	.word	1065352773
	.word	883482535
	.word	1059388313
	.word	1041670761
	.word	1070141403
	.word	1078530011
	.cfi_endproc
.LFE2:
	.size	atan2f, .-atan2f
	.section	.text.acosf,"ax",%progbits
	.align	1
	.global	acosf
	.thumb
	.thumb_func
	.type	acosf, %function
acosf:
.LFB3:
	.loc 1 92 0
	.cfi_startproc
	@ args = 0, pretend = 0, frame = 0
	@ frame_needed = 0, uses_anonymous_args = 0
.LVL72:
	push	{r4, r5, r6, lr}	@
	.cfi_def_cfa_offset 16
	.cfi_offset 4, -16
	.cfi_offset 5, -12
	.cfi_offset 6, -8
	.cfi_offset 14, -4
	.loc 1 93 0
	bic	r4, r0, #-2147483648	@ xa, x,
.LVL73:
	.loc 1 94 0
	mov	r1, r4	@, xa
	.loc 1 92 0
	mov	r5, r0	@ x, x
	.loc 1 94 0
	mov	r0, #1065353216	@,
.LVL74:
	bl	__aeabi_fsub	@
.LVL75:
	bl	sqrtf	@
.LVL76:
	ldr	r1, .L57	@,
	mov	r6, r0	@ D.5445,
	mov	r0, r4	@, xa
	bl	__aeabi_fmul	@
.LVL77:
	ldr	r1, .L57+4	@,
	bl	__aeabi_fadd	@
.LVL78:
	mov	r1, r0	@ D.5445,
	mov	r0, r4	@, xa
	bl	__aeabi_fmul	@
.LVL79:
	ldr	r1, .L57+8	@,
	bl	__aeabi_fsub	@
.LVL80:
	mov	r1, r0	@ D.5445,
	mov	r0, r4	@, xa
	bl	__aeabi_fmul	@
.LVL81:
	ldr	r1, .L57+12	@,
	bl	__aeabi_fadd	@
.LVL82:
	mov	r1, r0	@ D.5445,
	mov	r0, r6	@, D.5445
	bl	__aeabi_fmul	@
.LVL83:
	.loc 1 95 0
	movs	r1, #0	@,
	.loc 1 94 0
	mov	r4, r0	@ tmp130,
.LVL84:
	.loc 1 95 0
	mov	r0, r5	@, x
.LVL85:
	bl	__aeabi_fcmplt	@
.LVL86:
	cbz	r0, .L56	@,
	.loc 1 96 0
	mov	r1, r4	@, tmp130
	ldr	r0, .L57+16	@,
	bl	__aeabi_fsub	@
.LVL87:
	pop	{r4, r5, r6, pc}	@
.LVL88:
.L56:
	.loc 1 98 0
	mov	r0, r4	@ D.5445, tmp130
	.loc 1 99 0
	pop	{r4, r5, r6, pc}	@
.LVL89:
.L58:
	.align	2
.L57:
	.word	-1130795472
	.word	1033377319
	.word	1046033540
	.word	1070140836
	.word	1078530011
	.cfi_endproc
.LFE3:
	.size	acosf, .-acosf
	.section	.text.applyDeadband,"ax",%progbits
	.align	1
	.global	applyDeadband
	.thumb
	.thumb_func
	.type	applyDeadband, %function
applyDeadband:
.LFB4:
	.loc 1 103 0
	.cfi_startproc
	@ args = 0, pretend = 0, frame = 0
	@ frame_needed = 0, uses_anonymous_args = 0
	@ link register save eliminated.
.LVL90:
	.loc 1 104 0
	eor	r3, r0, r0, asr #31	@ D.5451, value
	sub	r3, r3, r0, asr #31	@ D.5451, value
	cmp	r3, r1	@ D.5451, deadband
	blt	.L63	@,
.LVL91:
.LBB8:
.LBB9:
	.loc 1 106 0
	cmp	r0, #0	@ value,
	ble	.L61	@,
	.loc 1 107 0
	subs	r0, r0, r1	@ value, value, deadband
.LVL92:
	bx	lr	@
.LVL93:
.L61:
	.loc 1 108 0
	beq	.L60	@,
	.loc 1 109 0
	add	r0, r0, r1	@ value, deadband
.LVL94:
	bx	lr	@
.LVL95:
.L63:
.LBE9:
.LBE8:
	.loc 1 105 0
	movs	r0, #0	@ value,
.LVL96:
.L60:
	.loc 1 112 0
	bx	lr	@
	.cfi_endproc
.LFE4:
	.size	applyDeadband, .-applyDeadband
	.section	.text.constrain,"ax",%progbits
	.align	1
	.global	constrain
	.thumb
	.thumb_func
	.type	constrain, %function
constrain:
.LFB5:
	.loc 1 115 0
	.cfi_startproc
	@ args = 0, pretend = 0, frame = 0
	@ frame_needed = 0, uses_anonymous_args = 0
	@ link register save eliminated.
.LVL97:
	.loc 1 116 0
	cmp	r0, r1	@ amt, low
	blt	.L66	@,
	cmp	r0, r2	@ amt, high
	it	ge
	movge	r0, r2	@ D.5454, high
.LVL98:
	bx	lr	@
.LVL99:
.L66:
	mov	r0, r1	@ D.5454, low
.LVL100:
	.loc 1 122 0
	bx	lr	@
	.cfi_endproc
.LFE5:
	.size	constrain, .-constrain
	.section	.text.constrainf,"ax",%progbits
	.align	1
	.global	constrainf
	.thumb
	.thumb_func
	.type	constrainf, %function
constrainf:
.LFB6:
	.loc 1 125 0
	.cfi_startproc
	@ args = 0, pretend = 0, frame = 0
	@ frame_needed = 0, uses_anonymous_args = 0
.LVL101:
	push	{r4, r5, r6, lr}	@
	.cfi_def_cfa_offset 16
	.cfi_offset 4, -16
	.cfi_offset 5, -12
	.cfi_offset 6, -8
	.cfi_offset 14, -4
	.loc 1 125 0
	mov	r4, r0	@ amt, amt
	mov	r6, r1	@ low, low
	mov	r5, r2	@ high, high
	.loc 1 126 0
	bl	__aeabi_fcmplt	@
.LVL102:
	cbnz	r0, .L70	@,
	.loc 1 128 0
	mov	r0, r4	@, amt
	mov	r1, r5	@, high
	bl	__aeabi_fcmpgt	@
.LVL103:
	cbz	r0, .L73	@,
	.loc 1 129 0
	mov	r0, r5	@ D.5457, high
	pop	{r4, r5, r6, pc}	@
.LVL104:
.L70:
	.loc 1 127 0
	mov	r0, r6	@ D.5457, low
	pop	{r4, r5, r6, pc}	@
.LVL105:
.L73:
	.loc 1 131 0
	mov	r0, r4	@ D.5457, amt
	.loc 1 132 0
	pop	{r4, r5, r6, pc}	@
	.cfi_endproc
.LFE6:
	.size	constrainf, .-constrainf
	.section	.text.devClear,"ax",%progbits
	.align	1
	.global	devClear
	.thumb
	.thumb_func
	.type	devClear, %function
devClear:
.LFB7:
	.loc 1 135 0
	.cfi_startproc
	@ args = 0, pretend = 0, frame = 0
	@ frame_needed = 0, uses_anonymous_args = 0
	@ link register save eliminated.
.LVL106:
	.loc 1 136 0
	movs	r3, #0	@ tmp111,
	str	r3, [r0, #16]	@ tmp111, dev_2(D)->m_n
	bx	lr	@
	.cfi_endproc
.LFE7:
	.size	devClear, .-devClear
	.global	__aeabi_i2f
	.section	.text.devPush,"ax",%progbits
	.align	1
	.global	devPush
	.thumb
	.thumb_func
	.type	devPush, %function
devPush:
.LFB8:
	.loc 1 140 0
	.cfi_startproc
	@ args = 0, pretend = 0, frame = 0
	@ frame_needed = 0, uses_anonymous_args = 0
.LVL107:
	push	{r4, r5, r6, r7, r8, lr}	@
	.cfi_def_cfa_offset 24
	.cfi_offset 4, -24
	.cfi_offset 5, -20
	.cfi_offset 6, -16
	.cfi_offset 7, -12
	.cfi_offset 8, -8
	.cfi_offset 14, -4
	.loc 1 141 0
	ldr	r6, [r0, #16]	@ dev_3(D)->m_n, dev_3(D)->m_n
	.loc 1 140 0
	mov	r4, r0	@ dev, dev
	.loc 1 141 0
	adds	r6, r6, #1	@ D.5462, dev_3(D)->m_n,
	.loc 1 142 0
	cmp	r6, #1	@ D.5462,
	.loc 1 140 0
	mov	r5, r1	@ x, x
	.loc 1 141 0
	str	r6, [r0, #16]	@ D.5462, dev_3(D)->m_n
	.loc 1 142 0
	bne	.L76	@,
	.loc 1 144 0
	movs	r3, #0	@ tmp124,
	.loc 1 143 0
	str	r1, [r4, #4]	@ float	@ x, dev_3(D)->m_newM
	str	r1, [r4]	@ float	@ x, dev_3(D)->m_oldM
	.loc 1 144 0
	str	r3, [r0, #8]	@ float	@ tmp124, dev_3(D)->m_oldS
	pop	{r4, r5, r6, r7, r8, pc}	@
.L76:
	.loc 1 146 0
	ldr	r8, [r0]	@ float	@ D.5463, dev_3(D)->m_oldM
	mov	r0, r1	@, x
.LVL108:
	mov	r1, r8	@, D.5463
.LVL109:
	bl	__aeabi_fsub	@
.LVL110:
	mov	r7, r0	@ tmp125,
	mov	r0, r6	@, D.5462
	bl	__aeabi_i2f	@
.LVL111:
	mov	r1, r0	@ D.5463,
	mov	r0, r7	@, tmp125
	bl	__aeabi_fdiv	@
.LVL112:
	mov	r1, r0	@ D.5463,
	mov	r0, r8	@, D.5463
	bl	__aeabi_fadd	@
.LVL113:
	mov	r6, r0	@ tmp128,
	str	r0, [r4, #4]	@ float	@ tmp128, dev_3(D)->m_newM
	.loc 1 147 0
	mov	r1, r6	@, tmp128
	mov	r0, r5	@, x
	bl	__aeabi_fsub	@
.LVL114:
	mov	r1, r0	@ D.5463,
	mov	r0, r7	@, tmp125
	bl	__aeabi_fmul	@
.LVL115:
	ldr	r1, [r4, #8]	@ float	@, dev_3(D)->m_oldS
	bl	__aeabi_fadd	@
.LVL116:
	.loc 1 148 0
	str	r6, [r4]	@ float	@ tmp128, dev_3(D)->m_oldM
	.loc 1 147 0
	str	r0, [r4, #12]	@ float	@ tmp131, dev_3(D)->m_newS
	.loc 1 149 0
	str	r0, [r4, #8]	@ float	@ tmp131, dev_3(D)->m_oldS
	pop	{r4, r5, r6, r7, r8, pc}	@
	.cfi_endproc
.LFE8:
	.size	devPush, .-devPush
	.section	.text.devVariance,"ax",%progbits
	.align	1
	.global	devVariance
	.thumb
	.thumb_func
	.type	devVariance, %function
devVariance:
.LFB9:
	.loc 1 154 0
	.cfi_startproc
	@ args = 0, pretend = 0, frame = 0
	@ frame_needed = 0, uses_anonymous_args = 0
.LVL117:
	push	{r4, lr}	@
	.cfi_def_cfa_offset 8
	.cfi_offset 4, -8
	.cfi_offset 14, -4
	.loc 1 154 0
	mov	r4, r0	@ dev, dev
	.loc 1 155 0
	ldr	r0, [r0, #16]	@ D.5466, dev_3(D)->m_n
.LVL118:
	cmp	r0, #1	@ D.5466,
	ble	.L80	@,
	.loc 1 155 0 is_stmt 0 discriminator 1
	subs	r0, r0, #1	@, D.5466,
	bl	__aeabi_i2f	@
.LVL119:
	mov	r1, r0	@ D.5467,
	ldr	r0, [r4, #12]	@ float	@, dev_3(D)->m_newS
	bl	__aeabi_fdiv	@
.LVL120:
	pop	{r4, pc}	@
.LVL121:
.L80:
	.loc 1 155 0
	movs	r0, #0	@ iftmp.3,
	.loc 1 156 0 is_stmt 1
	pop	{r4, pc}	@
	.cfi_endproc
.LFE9:
	.size	devVariance, .-devVariance
	.section	.text.devStandardDeviation,"ax",%progbits
	.align	1
	.global	devStandardDeviation
	.thumb
	.thumb_func
	.type	devStandardDeviation, %function
devStandardDeviation:
.LFB10:
	.loc 1 159 0
	.cfi_startproc
	@ args = 0, pretend = 0, frame = 0
	@ frame_needed = 0, uses_anonymous_args = 0
.LVL122:
	push	{r3, lr}	@
	.cfi_def_cfa_offset 8
	.cfi_offset 3, -8
	.cfi_offset 14, -4
	.loc 1 160 0
	bl	devVariance	@
.LVL123:
	.loc 1 161 0
	pop	{r3, lr}	@
	.loc 1 160 0
	b	sqrtf	@
.LVL124:
	.cfi_endproc
.LFE10:
	.size	devStandardDeviation, .-devStandardDeviation
	.section	.text.degreesToRadians,"ax",%progbits
	.align	1
	.global	degreesToRadians
	.thumb
	.thumb_func
	.type	degreesToRadians, %function
degreesToRadians:
.LFB11:
	.loc 1 164 0
	.cfi_startproc
	@ args = 0, pretend = 0, frame = 0
	@ frame_needed = 0, uses_anonymous_args = 0
.LVL125:
	push	{r3, lr}	@
	.cfi_def_cfa_offset 8
	.cfi_offset 3, -8
	.cfi_offset 14, -4
	.loc 1 165 0
	bl	__aeabi_i2f	@
.LVL126:
	ldr	r1, .L83	@,
	bl	__aeabi_fmul	@
.LVL127:
	.loc 1 166 0
	pop	{r3, pc}	@
.L84:
	.align	2
.L83:
	.word	1016003125
	.cfi_endproc
.LFE11:
	.size	degreesToRadians, .-degreesToRadians
	.section	.text.scaleRange,"ax",%progbits
	.align	1
	.global	scaleRange
	.thumb
	.thumb_func
	.type	scaleRange, %function
scaleRange:
.LFB12:
	.loc 1 169 0
	.cfi_startproc
	@ args = 4, pretend = 0, frame = 0
	@ frame_needed = 0, uses_anonymous_args = 0
.LVL128:
	push	{r4, lr}	@
	.cfi_def_cfa_offset 8
	.cfi_offset 4, -8
	.cfi_offset 14, -4
.LVL129:
	.loc 1 170 0
	ldr	r4, [sp, #8]	@ destMax, destMax
	subs	r0, r0, r1	@ D.5476, x, srcMin
.LVL130:
	subs	r4, r4, r3	@ D.5476, destMax, destMin
	muls	r4, r0, r4	@ a, D.5476
.LVL131:
	.loc 1 171 0
	subs	r2, r2, r1	@ b, srcMax, srcMin
.LVL132:
	.loc 1 172 0
	sdiv	r0, r4, r2	@ D.5476, a, b
	.loc 1 173 0
	add	r0, r0, r3	@, destMin
	pop	{r4, pc}	@
	.cfi_endproc
.LFE12:
	.size	scaleRange, .-scaleRange
	.section	.text.normalizeV,"ax",%progbits
	.align	1
	.global	normalizeV
	.thumb
	.thumb_func
	.type	normalizeV, %function
normalizeV:
.LFB13:
	.loc 1 177 0
	.cfi_startproc
	@ args = 0, pretend = 0, frame = 0
	@ frame_needed = 0, uses_anonymous_args = 0
.LVL133:
	push	{r4, r5, r6, r7, r8, lr}	@
	.cfi_def_cfa_offset 24
	.cfi_offset 4, -24
	.cfi_offset 5, -20
	.cfi_offset 6, -16
	.cfi_offset 7, -12
	.cfi_offset 8, -8
	.cfi_offset 14, -4
	.loc 1 177 0
	mov	r4, r0	@ src, src
	.loc 1 180 0
	ldr	r0, [r0]	@ float	@ D.5480, src_3(D)->X
.LVL134:
	.loc 1 177 0
	mov	r5, r1	@ dest, dest
	.loc 1 180 0
	mov	r1, r0	@,
.LVL135:
	bl	__aeabi_fmul	@
.LVL136:
	ldr	r8, [r4, #4]	@ float	@ D.5480, src_3(D)->Y
	mov	r6, r0	@ D.5480,
	mov	r1, r8	@,
	mov	r0, r8	@, D.5480
	bl	__aeabi_fmul	@
.LVL137:
	mov	r1, r0	@ D.5480,
	mov	r0, r6	@, D.5480
	bl	__aeabi_fadd	@
.LVL138:
	ldr	r7, [r4, #8]	@ float	@ D.5480, src_3(D)->Z
	mov	r6, r0	@ D.5480,
	mov	r1, r7	@,
	mov	r0, r7	@, D.5480
	bl	__aeabi_fmul	@
.LVL139:
	mov	r1, r0	@ D.5480,
	mov	r0, r6	@, D.5480
	bl	__aeabi_fadd	@
.LVL140:
	bl	sqrtf	@
.LVL141:
	.loc 1 181 0
	movs	r1, #0	@,
	.loc 1 180 0
	mov	r6, r0	@ length,
.LVL142:
	.loc 1 181 0
	bl	__aeabi_fcmpeq	@
.LVL143:
	cbnz	r0, .L86	@,
	.loc 1 182 0
	ldr	r0, [r4]	@ float	@, src_3(D)->X
	mov	r1, r6	@, length
	bl	__aeabi_fdiv	@
.LVL144:
	.loc 1 183 0
	mov	r1, r6	@, length
	.loc 1 182 0
	str	r0, [r5]	@ float	@, dest_16(D)->X
	.loc 1 183 0
	ldr	r0, [r4, #4]	@ float	@, src_3(D)->Y
	bl	__aeabi_fdiv	@
.LVL145:
	.loc 1 184 0
	mov	r1, r6	@, length
	.loc 1 183 0
	str	r0, [r5, #4]	@ float	@, dest_16(D)->Y
	.loc 1 184 0
	ldr	r0, [r4, #8]	@ float	@, src_3(D)->Z
	bl	__aeabi_fdiv	@
.LVL146:
	str	r0, [r5, #8]	@ float	@, dest_16(D)->Z
.L86:
	pop	{r4, r5, r6, r7, r8, pc}	@
	.cfi_endproc
.LFE13:
	.size	normalizeV, .-normalizeV
	.section	.text.buildRotationMatrix,"ax",%progbits
	.align	1
	.global	buildRotationMatrix
	.thumb
	.thumb_func
	.type	buildRotationMatrix, %function
buildRotationMatrix:
.LFB14:
	.loc 1 189 0
	.cfi_startproc
	@ args = 0, pretend = 0, frame = 16
	@ frame_needed = 0, uses_anonymous_args = 0
.LVL147:
	push	{r4, r5, r6, r7, r8, r9, r10, fp, lr}	@
	.cfi_def_cfa_offset 36
	.cfi_offset 4, -36
	.cfi_offset 5, -32
	.cfi_offset 6, -28
	.cfi_offset 7, -24
	.cfi_offset 8, -20
	.cfi_offset 9, -16
	.cfi_offset 10, -12
	.cfi_offset 11, -8
	.cfi_offset 14, -4
	.loc 1 193 0
	ldr	r5, [r0]	@ float	@ D.5483, delta_2(D)->angles.roll
	.loc 1 189 0
	sub	sp, sp, #20	@,,
	.cfi_def_cfa_offset 56
	.loc 1 189 0
	mov	r9, r0	@ delta, delta
	.loc 1 193 0
	mov	r0, r5	@, D.5483
.LVL148:
	.loc 1 189 0
	mov	r4, r1	@ matrix, matrix
	.loc 1 193 0
	bl	cosf	@
.LVL149:
	mov	r7, r0	@ cosx,
.LVL150:
	.loc 1 194 0
	mov	r0, r5	@, D.5483
.LVL151:
	bl	sinf	@
.LVL152:
	.loc 1 195 0
	ldr	r5, [r9, #4]	@ float	@ D.5483, delta_2(D)->angles.pitch
	.loc 1 194 0
	mov	r8, r0	@ sinx,
.LVL153:
	.loc 1 195 0
	mov	r0, r5	@, D.5483
.LVL154:
	bl	cosf	@
.LVL155:
	mov	r6, r0	@ cosy,
.LVL156:
	.loc 1 196 0
	mov	r0, r5	@, D.5483
.LVL157:
	bl	sinf	@
.LVL158:
	.loc 1 197 0
	ldr	r9, [r9, #8]	@ float	@ D.5483, delta_2(D)->angles.yaw
.LVL159:
	.loc 1 196 0
	mov	r5, r0	@ siny,
.LVL160:
	.loc 1 197 0
	mov	r0, r9	@, D.5483
.LVL161:
	bl	cosf	@
.LVL162:
	mov	r10, r0	@ cosz,
.LVL163:
	.loc 1 198 0
	mov	r0, r9	@, D.5483
.LVL164:
	bl	sinf	@
.LVL165:
	.loc 1 200 0
	mov	r1, r7	@, cosx
	.loc 1 198 0
	mov	r9, r0	@ sinz,
.LVL166:
	.loc 1 200 0
	mov	r0, r10	@, cosz
.LVL167:
	bl	__aeabi_fmul	@
.LVL168:
	.loc 1 201 0
	mov	r1, r7	@, cosx
	.loc 1 200 0
	mov	fp, r0	@ tmp139,
.LVL169:
	.loc 1 201 0
	mov	r0, r9	@, sinz
.LVL170:
	bl	__aeabi_fmul	@
.LVL171:
	.loc 1 202 0
	mov	r1, r10	@, cosz
	.loc 1 201 0
	str	r0, [sp, #4]	@ float	@, %sfp
.LVL172:
	.loc 1 202 0
	mov	r0, r8	@, sinx
.LVL173:
	bl	__aeabi_fmul	@
.LVL174:
	.loc 1 203 0
	mov	r1, r9	@, sinz
	.loc 1 202 0
	str	r0, [sp, #8]	@ float	@, %sfp
.LVL175:
	.loc 1 203 0
	mov	r0, r8	@, sinx
.LVL176:
	bl	__aeabi_fmul	@
.LVL177:
	.loc 1 205 0
	mov	r1, r6	@, cosy
	.loc 1 203 0
	str	r0, [sp, #12]	@ float	@, %sfp
.LVL178:
	.loc 1 205 0
	mov	r0, r10	@, cosz
.LVL179:
	bl	__aeabi_fmul	@
.LVL180:
	.loc 1 206 0
	mov	r1, r9	@, sinz
	.loc 1 205 0
	str	r0, [r4]	@ float	@, *matrix_17(D)
	.loc 1 206 0
	add	r0, r6, #-2147483648	@ D.5483, cosy,
	bl	__aeabi_fmul	@
.LVL181:
	.loc 1 208 0
	mov	r1, r5	@, siny
	.loc 1 206 0
	str	r0, [r4, #4]	@ float	@, *matrix_17(D)
	.loc 1 207 0
	str	r5, [r4, #8]	@ float	@ siny, *matrix_17(D)
	.loc 1 208 0
	ldr	r0, [sp, #8]	@ float	@, %sfp
	bl	__aeabi_fmul	@
.LVL182:
	mov	r1, r0	@ D.5483,
	ldr	r0, [sp, #4]	@ float	@, %sfp
	bl	__aeabi_fadd	@
.LVL183:
	.loc 1 209 0
	mov	r1, r5	@, siny
	.loc 1 208 0
	str	r0, [r4, #12]	@ float	@, MEM[(float[3] *)matrix_17(D) + 12B]
	.loc 1 209 0
	ldr	r0, [sp, #12]	@ float	@, %sfp
	bl	__aeabi_fmul	@
.LVL184:
	mov	r1, r0	@ D.5483,
	mov	r0, fp	@, tmp139
	bl	__aeabi_fsub	@
.LVL185:
	.loc 1 210 0
	mov	r1, r6	@, cosy
	.loc 1 209 0
	str	r0, [r4, #16]	@ float	@, MEM[(float[3] *)matrix_17(D) + 12B]
	.loc 1 210 0
	add	r0, r8, #-2147483648	@ D.5483, sinx,
	bl	__aeabi_fmul	@
.LVL186:
	.loc 1 211 0
	mov	r1, r5	@, siny
	.loc 1 210 0
	str	r0, [r4, #20]	@ float	@, MEM[(float[3] *)matrix_17(D) + 12B]
	.loc 1 211 0
	mov	r0, fp	@, tmp139
	bl	__aeabi_fmul	@
.LVL187:
	mov	r1, r0	@ D.5483,
	ldr	r0, [sp, #12]	@ float	@, %sfp
	bl	__aeabi_fsub	@
.LVL188:
	.loc 1 212 0
	mov	r1, r5	@, siny
	.loc 1 211 0
	str	r0, [r4, #24]	@ float	@, MEM[(float[3] *)matrix_17(D) + 24B]
	.loc 1 212 0
	ldr	r0, [sp, #4]	@ float	@, %sfp
	bl	__aeabi_fmul	@
.LVL189:
	mov	r1, r0	@ D.5483,
	ldr	r0, [sp, #8]	@ float	@, %sfp
	bl	__aeabi_fadd	@
.LVL190:
	.loc 1 213 0
	mov	r1, r7	@, cosx
	.loc 1 212 0
	str	r0, [r4, #28]	@ float	@, MEM[(float[3] *)matrix_17(D) + 24B]
	.loc 1 213 0
	mov	r0, r6	@, cosy
	bl	__aeabi_fmul	@
.LVL191:
	str	r0, [r4, #32]	@ float	@, MEM[(float[3] *)matrix_17(D) + 24B]
	.loc 1 214 0
	add	sp, sp, #20	@,,
	@ sp needed	@
	pop	{r4, r5, r6, r7, r8, r9, r10, fp, pc}	@
	.cfi_endproc
.LFE14:
	.size	buildRotationMatrix, .-buildRotationMatrix
	.section	.text.rotateV,"ax",%progbits
	.align	1
	.global	rotateV
	.thumb
	.thumb_func
	.type	rotateV, %function
rotateV:
.LFB15:
	.loc 1 218 0
	.cfi_startproc
	@ args = 0, pretend = 0, frame = 40
	@ frame_needed = 0, uses_anonymous_args = 0
.LVL192:
	push	{r4, r5, r6, r7, r8, lr}	@
	.cfi_def_cfa_offset 24
	.cfi_offset 4, -24
	.cfi_offset 5, -20
	.cfi_offset 6, -16
	.cfi_offset 7, -12
	.cfi_offset 8, -8
	.cfi_offset 14, -4
	.loc 1 219 0
	ldr	r7, [r0]	@ float	@ v_tmp$X, MEM[(struct fp_vector *)v_2(D)]
.LVL193:
	.loc 1 218 0
	sub	sp, sp, #40	@,,
	.cfi_def_cfa_offset 64
	.loc 1 219 0
	ldr	r6, [r0, #4]	@ float	@ v_tmp$Y, MEM[(struct fp_vector *)v_2(D) + 4B]
.LVL194:
	ldr	r5, [r0, #8]	@ float	@ v_tmp$Z, MEM[(struct fp_vector *)v_2(D) + 8B]
.LVL195:
	.loc 1 218 0
	mov	r4, r0	@ v, v
	.loc 1 223 0
	mov	r0, r1	@, delta
.LVL196:
	add	r1, sp, #4	@,,
.LVL197:
	bl	buildRotationMatrix	@
.LVL198:
	.loc 1 225 0
	ldr	r1, [sp, #4]	@ float	@, matrix
	mov	r0, r7	@, v_tmp$X
	bl	__aeabi_fmul	@
.LVL199:
	ldr	r1, [sp, #16]	@ float	@, matrix
	mov	r8, r0	@ D.5487,
	mov	r0, r6	@, v_tmp$Y
	bl	__aeabi_fmul	@
.LVL200:
	mov	r1, r0	@ D.5487,
	mov	r0, r8	@, D.5487
	bl	__aeabi_fadd	@
.LVL201:
	ldr	r1, [sp, #28]	@ float	@, matrix
	mov	r8, r0	@ D.5487,
	mov	r0, r5	@, v_tmp$Z
	bl	__aeabi_fmul	@
.LVL202:
	mov	r1, r0	@ D.5487,
	mov	r0, r8	@, D.5487
	bl	__aeabi_fadd	@
.LVL203:
	.loc 1 226 0
	ldr	r1, [sp, #8]	@ float	@, matrix
	.loc 1 225 0
	str	r0, [r4]	@ float	@, v_2(D)->X
	.loc 1 226 0
	mov	r0, r7	@, v_tmp$X
	bl	__aeabi_fmul	@
.LVL204:
	ldr	r1, [sp, #20]	@ float	@, matrix
	mov	r8, r0	@ D.5487,
	mov	r0, r6	@, v_tmp$Y
	bl	__aeabi_fmul	@
.LVL205:
	mov	r1, r0	@ D.5487,
	mov	r0, r8	@, D.5487
	bl	__aeabi_fadd	@
.LVL206:
	ldr	r1, [sp, #32]	@ float	@, matrix
	mov	r8, r0	@ D.5487,
	mov	r0, r5	@, v_tmp$Z
	bl	__aeabi_fmul	@
.LVL207:
	mov	r1, r0	@ D.5487,
	mov	r0, r8	@, D.5487
	bl	__aeabi_fadd	@
.LVL208:
	.loc 1 227 0
	ldr	r1, [sp, #12]	@ float	@, matrix
	.loc 1 226 0
	str	r0, [r4, #4]	@ float	@, v_2(D)->Y
	.loc 1 227 0
	mov	r0, r7	@, v_tmp$X
	bl	__aeabi_fmul	@
.LVL209:
	ldr	r1, [sp, #24]	@ float	@, matrix
	mov	r7, r0	@ D.5487,
.LVL210:
	mov	r0, r6	@, v_tmp$Y
	bl	__aeabi_fmul	@
.LVL211:
	mov	r1, r0	@ D.5487,
	mov	r0, r7	@, D.5487
	bl	__aeabi_fadd	@
.LVL212:
	ldr	r1, [sp, #36]	@ float	@, matrix
	mov	r6, r0	@ D.5487,
.LVL213:
	mov	r0, r5	@, v_tmp$Z
	bl	__aeabi_fmul	@
.LVL214:
	mov	r1, r0	@ D.5487,
	mov	r0, r6	@, D.5487
	bl	__aeabi_fadd	@
.LVL215:
	str	r0, [r4, #8]	@ float	@, v_2(D)->Z
	.loc 1 228 0
	add	sp, sp, #40	@,,
	@ sp needed	@
	pop	{r4, r5, r6, r7, r8, pc}	@
	.cfi_endproc
.LFE15:
	.size	rotateV, .-rotateV
	.section	.text.quickMedianFilter3,"ax",%progbits
	.align	1
	.global	quickMedianFilter3
	.thumb
	.thumb_func
	.type	quickMedianFilter3, %function
quickMedianFilter3:
.LFB16:
	.loc 1 238 0
	.cfi_startproc
	@ args = 0, pretend = 0, frame = 0
	@ frame_needed = 0, uses_anonymous_args = 0
	@ link register save eliminated.
.LVL216:
.LBB10:
	.loc 1 240 0
	ldr	r3, [r0]	@ p$1, *v_9(D)
.LVL217:
	ldr	r2, [r0, #4]	@ p$1, MEM[(int32_t *)v_9(D) + 4B]
.LVL218:
	ldr	r1, [r0, #8]	@ p$1, MEM[(int32_t *)v_9(D) + 8B]
.LVL219:
.LBE10:
	.loc 1 242 0
	cmp	r3, r2	@ p$1, p$1
	ble	.L93	@,
	mov	r0, r3	@ p$1, p$1
.LVL220:
	mov	r3, r2	@ p$1, p$1
.LVL221:
	mov	r2, r0	@ p$1, p$1
.LVL222:
.L93:
	cmp	r2, r1	@ p$1, p$1
	ite	lt
	movlt	r0, r2	@ p$1, p$1
	movge	r0, r1	@ p$1, p$1
.LVL223:
	.loc 1 244 0 discriminator 2
	cmp	r0, r3	@ p$1, p$1
	it	lt
	movlt	r0, r3	@, p$1
.LVL224:
	bx	lr	@
	.cfi_endproc
.LFE16:
	.size	quickMedianFilter3, .-quickMedianFilter3
	.section	.text.quickMedianFilter5,"ax",%progbits
	.align	1
	.global	quickMedianFilter5
	.thumb
	.thumb_func
	.type	quickMedianFilter5, %function
quickMedianFilter5:
.LFB17:
	.loc 1 247 0
	.cfi_startproc
	@ args = 0, pretend = 0, frame = 24
	@ frame_needed = 0, uses_anonymous_args = 0
	@ link register save eliminated.
.LVL225:
	sub	sp, sp, #24	@,,
	.cfi_def_cfa_offset 24
	.loc 1 247 0
	movs	r3, #0	@ ivtmp.79,
.LVL226:
.L96:
.LBB11:
	.loc 1 249 0 discriminator 2
	ldr	r2, [r0, r3]	@ MEM[base: v_13(D), index: ivtmp.79_2, offset: 0B], MEM[base: v_13(D), index: ivtmp.79_2, offset: 0B]
	add	r1, sp, #4	@ tmp152,,
	str	r2, [r3, r1]	@ MEM[base: v_13(D), index: ivtmp.79_2, offset: 0B], MEM[symbol: p, index: ivtmp.79_2, offset: 0B]
	adds	r3, r3, #4	@ ivtmp.79, ivtmp.79,
	cmp	r3, #20	@ ivtmp.79,
	bne	.L96	@,
.LBE11:
	.loc 1 251 0
	ldr	r2, [sp, #8]	@ D.5514, p
	ldr	r3, [sp, #4]	@ D.5514, p
	cmp	r3, r2	@ D.5514, D.5514
.LVL227:
.LBB12:
	itt	gt
	strgt	r3, [sp, #8]	@ D.5514, p
	strgt	r2, [sp, #4]	@ D.5514, p
.LBE12:
	ldr	r3, [sp, #16]	@ D.5514, p
.LVL228:
	ldr	r2, [sp, #20]	@ D.5514, p
	cmp	r3, r2	@ D.5514, D.5514
.LVL229:
.LBB13:
	itt	gt
	strgt	r2, [sp, #16]	@ D.5514, p
	strgt	r3, [sp, #20]	@ D.5514, p
.LBE13:
	ldr	r2, [sp, #16]	@ p, p
	ldr	r3, [sp, #4]	@ D.5514, p
.LVL230:
	cmp	r3, r2	@ D.5514, p
.LVL231:
.LBB14:
	it	gt
	strgt	r3, [sp, #16]	@ D.5514, p
.LBE14:
	.loc 1 252 0
	ldr	r2, [sp, #8]	@ p, p
	ldr	r3, [sp, #20]	@ D.5514, p
.LVL232:
	cmp	r2, r3	@ p, D.5514
.LVL233:
.LBB15:
	it	gt
	strgt	r3, [sp, #8]	@ D.5514, p
.LBE15:
	ldr	r2, [sp, #12]	@ D.5514, p
.LVL234:
	ldr	r3, [sp, #8]	@ D.5514, p
	cmp	r3, r2	@ D.5514, D.5514
.LVL235:
.LBB16:
	itt	gt
	strgt	r3, [sp, #12]	@ D.5514, p
	strgt	r2, [sp, #8]	@ D.5514, p
.LBE16:
	ldr	r3, [sp, #16]	@ D.5514, p
.LVL236:
	ldr	r2, [sp, #12]	@ p, p
	cmp	r2, r3	@ p, D.5514
.LVL237:
.LBB17:
	it	gt
	strgt	r3, [sp, #12]	@ D.5514, p
.LBE17:
	.loc 1 253 0
	ldr	r2, [sp, #12]	@ p, p
.LVL238:
	ldr	r3, [sp, #8]	@ D.5514, p
	cmp	r3, r2	@ D.5514, p
.LVL239:
.LBB18:
	it	gt
	strgt	r3, [sp, #12]	@ D.5514, p
.LBE18:
	.loc 1 255 0
	ldr	r0, [sp, #12]	@, p
.LVL240:
	add	sp, sp, #24	@,,
	@ sp needed	@
	bx	lr	@
	.cfi_endproc
.LFE17:
	.size	quickMedianFilter5, .-quickMedianFilter5
	.section	.text.quickMedianFilter7,"ax",%progbits
	.align	1
	.global	quickMedianFilter7
	.thumb
	.thumb_func
	.type	quickMedianFilter7, %function
quickMedianFilter7:
.LFB18:
	.loc 1 258 0
	.cfi_startproc
	@ args = 0, pretend = 0, frame = 32
	@ frame_needed = 0, uses_anonymous_args = 0
	@ link register save eliminated.
.LVL241:
	sub	sp, sp, #32	@,,
	.cfi_def_cfa_offset 32
	.loc 1 258 0
	movs	r3, #0	@ ivtmp.101,
.LVL242:
.L107:
.LBB19:
	.loc 1 260 0 discriminator 2
	ldr	r2, [r0, r3]	@ MEM[base: v_19(D), index: ivtmp.101_2, offset: 0B], MEM[base: v_19(D), index: ivtmp.101_2, offset: 0B]
	add	r1, sp, #4	@ tmp141,,
	str	r2, [r3, r1]	@ MEM[base: v_19(D), index: ivtmp.101_2, offset: 0B], MEM[symbol: p, index: ivtmp.101_2, offset: 0B]
	adds	r3, r3, #4	@ ivtmp.101, ivtmp.101,
	cmp	r3, #28	@ ivtmp.101,
	bne	.L107	@,
.LBE19:
	.loc 1 262 0
	ldr	r3, [sp, #4]	@ D.5537, p
	ldr	r2, [sp, #24]	@ D.5537, p
	cmp	r3, r2	@ D.5537, D.5537
.LVL243:
.LBB20:
	itt	gt
	strgt	r2, [sp, #4]	@ D.5537, p
	strgt	r3, [sp, #24]	@ D.5537, p
.LBE20:
	ldr	r2, [sp, #16]	@ D.5537, p
	ldr	r3, [sp, #4]	@ D.5537, p
.LVL244:
	cmp	r3, r2	@ D.5537, D.5537
.LVL245:
.LBB21:
	itt	gt
	strgt	r3, [sp, #16]	@ D.5537, p
	strgt	r2, [sp, #4]	@ D.5537, p
.LBE21:
	ldr	r3, [sp, #8]	@ D.5537, p
.LVL246:
	ldr	r2, [sp, #28]	@ D.5537, p
	cmp	r3, r2	@ D.5537, D.5537
.LVL247:
.LBB22:
	itt	gt
	strgt	r3, [sp, #28]	@ D.5537, p
	strgt	r2, [sp, #8]	@ D.5537, p
.LBE22:
	.loc 1 263 0
	ldr	r3, [sp, #12]	@ D.5537, p
.LVL248:
	ldr	r2, [sp, #20]	@ D.5537, p
	cmp	r3, r2	@ D.5537, D.5537
.LVL249:
.LBB23:
	itt	gt
	strgt	r2, [sp, #12]	@ D.5537, p
	strgt	r3, [sp, #20]	@ D.5537, p
.LBE23:
	ldr	r2, [sp, #8]	@ p, p
	ldr	r3, [sp, #4]	@ D.5537, p
.LVL250:
	cmp	r3, r2	@ D.5537, p
.LVL251:
.LBB24:
	it	gt
	strgt	r3, [sp, #8]	@ D.5537, p
.LBE24:
	ldr	r2, [sp, #24]	@ D.5537, p
	ldr	r3, [sp, #16]	@ D.5537, p
.LVL252:
	cmp	r3, r2	@ D.5537, D.5537
.LVL253:
.LBB25:
	itt	gt
	strgt	r2, [sp, #16]	@ D.5537, p
	strgt	r3, [sp, #24]	@ D.5537, p
.LBE25:
	.loc 1 264 0
	ldr	r2, [sp, #28]	@ D.5537, p
	ldr	r3, [sp, #12]	@ D.5537, p
.LVL254:
	cmp	r3, r2	@ D.5537, D.5537
.LVL255:
.LBB26:
	itt	gt
	strgt	r2, [sp, #12]	@ D.5537, p
	strgt	r3, [sp, #28]	@ D.5537, p
.LBE26:
	ldr	r2, [sp, #16]	@ p, p
	ldr	r3, [sp, #12]	@ D.5537, p
.LVL256:
	cmp	r3, r2	@ D.5537, p
.LVL257:
.LBB27:
	it	gt
	strgt	r3, [sp, #16]	@ D.5537, p
.LBE27:
	ldr	r2, [sp, #16]	@ p, p
	ldr	r3, [sp, #28]	@ D.5537, p
.LVL258:
	cmp	r2, r3	@ p, D.5537
.LVL259:
.LBB28:
	it	gt
	strgt	r3, [sp, #16]	@ D.5537, p
.LBE28:
	.loc 1 265 0
	ldr	r2, [sp, #20]	@ p, p
.LVL260:
	ldr	r3, [sp, #24]	@ D.5537, p
	cmp	r2, r3	@ p, D.5537
.LVL261:
.LBB29:
	it	gt
	strgt	r3, [sp, #20]	@ D.5537, p
.LBE29:
	ldr	r3, [sp, #8]	@ D.5537, p
	ldr	r2, [sp, #20]	@ D.5537, p
.LVL262:
	cmp	r3, r2	@ D.5537, D.5537
.LVL263:
.LBB30:
	itt	gt
	strgt	r2, [sp, #8]	@ D.5537, p
	strgt	r3, [sp, #20]	@ D.5537, p
.LBE30:
	ldr	r2, [sp, #16]	@ p, p
	ldr	r3, [sp, #8]	@ D.5537, p
.LVL264:
	cmp	r3, r2	@ D.5537, p
.LVL265:
.LBB31:
	it	gt
	strgt	r3, [sp, #16]	@ D.5537, p
.LBE31:
	.loc 1 266 0
	ldr	r2, [sp, #16]	@ p, p
	ldr	r3, [sp, #20]	@ D.5537, p
.LVL266:
	cmp	r2, r3	@ p, D.5537
.LVL267:
.LBB32:
	it	gt
	strgt	r3, [sp, #16]	@ D.5537, p
.LBE32:
	.loc 1 268 0
	ldr	r0, [sp, #16]	@, p
.LVL268:
	add	sp, sp, #32	@,,
.LVL269:
	@ sp needed	@
	bx	lr	@
	.cfi_endproc
.LFE18:
	.size	quickMedianFilter7, .-quickMedianFilter7
	.section	.text.quickMedianFilter9,"ax",%progbits
	.align	1
	.global	quickMedianFilter9
	.thumb
	.thumb_func
	.type	quickMedianFilter9, %function
quickMedianFilter9:
.LFB19:
	.loc 1 271 0
	.cfi_startproc
	@ args = 0, pretend = 0, frame = 40
	@ frame_needed = 0, uses_anonymous_args = 0
	@ link register save eliminated.
.LVL270:
	sub	sp, sp, #40	@,,
	.cfi_def_cfa_offset 40
	.loc 1 271 0
	movs	r3, #0	@ ivtmp.122,
.LVL271:
.L124:
.LBB33:
	.loc 1 273 0 discriminator 2
	ldr	r2, [r0, r3]	@ MEM[base: v_25(D), index: ivtmp.122_2, offset: 0B], MEM[base: v_25(D), index: ivtmp.122_2, offset: 0B]
	add	r1, sp, #4	@ tmp153,,
	str	r2, [r3, r1]	@ MEM[base: v_25(D), index: ivtmp.122_2, offset: 0B], MEM[symbol: p, index: ivtmp.122_2, offset: 0B]
	adds	r3, r3, #4	@ ivtmp.122, ivtmp.122,
	cmp	r3, #36	@ ivtmp.122,
	bne	.L124	@,
.LBE33:
	.loc 1 275 0
	ldr	r3, [sp, #8]	@ D.5560, p
	ldr	r2, [sp, #12]	@ D.5560, p
	cmp	r3, r2	@ D.5560, D.5560
.LVL272:
.LBB34:
	itt	gt
	strgt	r2, [sp, #8]	@ D.5560, p
	strgt	r3, [sp, #12]	@ D.5560, p
.LBE34:
	ldr	r2, [sp, #24]	@ D.5560, p
	ldr	r3, [sp, #20]	@ D.5560, p
.LVL273:
	cmp	r3, r2	@ D.5560, D.5560
.LVL274:
.LBB35:
	itt	gt
	strgt	r2, [sp, #20]	@ D.5560, p
	strgt	r3, [sp, #24]	@ D.5560, p
.LBE35:
	ldr	r2, [sp, #36]	@ D.5560, p
	ldr	r3, [sp, #32]	@ D.5560, p
.LVL275:
	cmp	r3, r2	@ D.5560, D.5560
.LVL276:
.LBB36:
	itt	gt
	strgt	r2, [sp, #32]	@ D.5560, p
	strgt	r3, [sp, #36]	@ D.5560, p
.LBE36:
	.loc 1 276 0
	ldr	r2, [sp, #8]	@ D.5560, p
	ldr	r3, [sp, #4]	@ D.5560, p
.LVL277:
	cmp	r3, r2	@ D.5560, D.5560
.LVL278:
.LBB37:
	itt	gt
	strgt	r3, [sp, #8]	@ D.5560, p
	strgt	r2, [sp, #4]	@ D.5560, p
.LBE37:
	ldr	r3, [sp, #16]	@ D.5560, p
.LVL279:
	ldr	r2, [sp, #20]	@ D.5560, p
	cmp	r3, r2	@ D.5560, D.5560
.LVL280:
.LBB38:
	itt	gt
	strgt	r3, [sp, #20]	@ D.5560, p
	strgt	r2, [sp, #16]	@ D.5560, p
.LBE38:
	ldr	r3, [sp, #28]	@ D.5560, p
.LVL281:
	ldr	r2, [sp, #32]	@ D.5560, p
	cmp	r3, r2	@ D.5560, D.5560
.LVL282:
.LBB39:
	itt	gt
	strgt	r3, [sp, #32]	@ D.5560, p
	strgt	r2, [sp, #28]	@ D.5560, p
.LBE39:
	.loc 1 277 0
	ldr	r3, [sp, #8]	@ D.5560, p
.LVL283:
	ldr	r2, [sp, #12]	@ D.5560, p
	cmp	r3, r2	@ D.5560, D.5560
.LVL284:
.LBB40:
	itt	gt
	strgt	r2, [sp, #8]	@ D.5560, p
	strgt	r3, [sp, #12]	@ D.5560, p
.LBE40:
	ldr	r2, [sp, #24]	@ D.5560, p
	ldr	r3, [sp, #20]	@ D.5560, p
.LVL285:
	cmp	r3, r2	@ D.5560, D.5560
.LVL286:
.LBB41:
	itt	gt
	strgt	r2, [sp, #20]	@ D.5560, p
	strgt	r3, [sp, #24]	@ D.5560, p
.LBE41:
	ldr	r2, [sp, #36]	@ D.5560, p
	ldr	r3, [sp, #32]	@ D.5560, p
.LVL287:
	cmp	r3, r2	@ D.5560, D.5560
.LVL288:
.LBB42:
	itt	gt
	strgt	r2, [sp, #32]	@ D.5560, p
	strgt	r3, [sp, #36]	@ D.5560, p
.LBE42:
	.loc 1 278 0
	ldr	r2, [sp, #16]	@ p, p
	ldr	r3, [sp, #4]	@ D.5560, p
.LVL289:
	cmp	r3, r2	@ D.5560, p
.LVL290:
.LBB43:
	it	gt
	strgt	r3, [sp, #16]	@ D.5560, p
.LBE43:
	ldr	r2, [sp, #24]	@ p, p
	ldr	r3, [sp, #36]	@ D.5560, p
.LVL291:
	cmp	r2, r3	@ p, D.5560
.LVL292:
.LBB44:
	it	gt
	strgt	r3, [sp, #24]	@ D.5560, p
.LBE44:
	ldr	r2, [sp, #32]	@ D.5560, p
.LVL293:
	ldr	r3, [sp, #20]	@ D.5560, p
	cmp	r3, r2	@ D.5560, D.5560
.LVL294:
.LBB45:
	itt	gt
	strgt	r2, [sp, #20]	@ D.5560, p
	strgt	r3, [sp, #32]	@ D.5560, p
.LBE45:
	.loc 1 279 0
	ldr	r2, [sp, #28]	@ p, p
	ldr	r3, [sp, #16]	@ D.5560, p
.LVL295:
	cmp	r3, r2	@ D.5560, p
.LVL296:
.LBB46:
	it	gt
	strgt	r3, [sp, #28]	@ D.5560, p
.LBE46:
	ldr	r2, [sp, #20]	@ p, p
	ldr	r3, [sp, #8]	@ D.5560, p
.LVL297:
	cmp	r3, r2	@ D.5560, p
.LVL298:
.LBB47:
	it	gt
	strgt	r3, [sp, #20]	@ D.5560, p
.LBE47:
	ldr	r2, [sp, #12]	@ p, p
	ldr	r3, [sp, #24]	@ D.5560, p
.LVL299:
	cmp	r2, r3	@ p, D.5560
.LVL300:
.LBB48:
	it	gt
	strgt	r3, [sp, #12]	@ D.5560, p
.LBE48:
	.loc 1 280 0
	ldr	r2, [sp, #20]	@ p, p
.LVL301:
	ldr	r3, [sp, #32]	@ D.5560, p
	cmp	r2, r3	@ p, D.5560
.LVL302:
.LBB49:
	it	gt
	strgt	r3, [sp, #20]	@ D.5560, p
.LBE49:
	ldr	r3, [sp, #20]	@ D.5560, p
	ldr	r2, [sp, #12]	@ D.5560, p
.LVL303:
	cmp	r3, r2	@ D.5560, D.5560
.LVL304:
.LBB50:
	it	gt
	strgt	r2, [sp, #20]	@ D.5560, p
.LBE50:
	ldr	r2, [sp, #20]	@ p, p
.LBB51:
	it	gt
	strgt	r3, [sp, #12]	@ D.5560, p
.LBE51:
	ldr	r3, [sp, #28]	@ D.5560, p
.LVL305:
	cmp	r3, r2	@ D.5560, p
.LVL306:
.LBB52:
	it	gt
	strgt	r3, [sp, #20]	@ D.5560, p
.LBE52:
	.loc 1 281 0
	ldr	r2, [sp, #20]	@ p, p
	ldr	r3, [sp, #12]	@ D.5560, p
.LVL307:
	cmp	r2, r3	@ p, D.5560
.LVL308:
.LBB53:
	it	gt
	strgt	r3, [sp, #20]	@ D.5560, p
.LBE53:
	.loc 1 283 0
	ldr	r0, [sp, #20]	@, p
.LVL309:
	add	sp, sp, #40	@,,
.LVL310:
	@ sp needed	@
	bx	lr	@
	.cfi_endproc
.LFE19:
	.size	quickMedianFilter9, .-quickMedianFilter9
	.section	.text.arraySubInt32,"ax",%progbits
	.align	1
	.global	arraySubInt32
	.thumb
	.thumb_func
	.type	arraySubInt32, %function
arraySubInt32:
.LFB20:
	.loc 1 286 0
	.cfi_startproc
	@ args = 0, pretend = 0, frame = 0
	@ frame_needed = 0, uses_anonymous_args = 0
.LVL311:
	push	{r4, r5, r6, r7, lr}	@
	.cfi_def_cfa_offset 20
	.cfi_offset 4, -20
	.cfi_offset 5, -16
	.cfi_offset 6, -12
	.cfi_offset 7, -8
	.cfi_offset 14, -4
.LBB54:
	.loc 1 287 0
	movs	r4, #0	@ ivtmp.144,
	mov	r5, r4	@ i, ivtmp.144
.LVL312:
.L146:
	.loc 1 287 0 is_stmt 0 discriminator 1
	cmp	r5, r3	@ i, count
	bge	.L148	@,
	.loc 1 288 0 is_stmt 1 discriminator 2
	ldr	r7, [r1, r4]	@ MEM[base: array1_9(D), index: ivtmp.144_18, offset: 0B], MEM[base: array1_9(D), index: ivtmp.144_18, offset: 0B]
	ldr	r6, [r2, r4]	@ MEM[base: array2_12(D), index: ivtmp.144_18, offset: 0B], MEM[base: array2_12(D), index: ivtmp.144_18, offset: 0B]
	.loc 1 287 0 discriminator 2
	adds	r5, r5, #1	@ i, i,
.LVL313:
	.loc 1 288 0 discriminator 2
	subs	r6, r7, r6	@ D.5588, MEM[base: array1_9(D), index: ivtmp.144_18, offset: 0B], MEM[base: array2_12(D), index: ivtmp.144_18, offset: 0B]
	str	r6, [r0, r4]	@ D.5588, MEM[base: dest_7(D), index: ivtmp.144_18, offset: 0B]
	adds	r4, r4, #4	@ ivtmp.144, ivtmp.144,
	b	.L146	@
.L148:
.LBE54:
	.loc 1 290 0
	pop	{r4, r5, r6, r7, pc}	@
	.cfi_endproc
.LFE20:
	.size	arraySubInt32, .-arraySubInt32
	.text
.Letext0:
	.file 2 "c:\\dev\\gcc-arm-none-eabi-4_8-2014q2\\arm-none-eabi\\include\\machine\\_default_types.h"
	.file 3 "c:\\dev\\gcc-arm-none-eabi-4_8-2014q2\\arm-none-eabi\\include\\stdint.h"
	.file 4 "./src/main/common/maths.h"
	.file 5 "c:\\dev\\gcc-arm-none-eabi-4_8-2014q2\\arm-none-eabi\\include\\math.h"
	.file 6 "./src/main/common/axis.h"