	.syntax unified
	.cpu cortex-m3
	.fpu softvfp
	.eabi_attribute 20, 1	@ Tag_ABI_FP_denormal
	.eabi_attribute 21, 1	@ Tag_ABI_FP_exceptions
	.eabi_attribute 23, 3	@ Tag_ABI_FP_number_model
	.eabi_attribute 24, 1	@ Tag_ABI_align8_needed
	.eabi_attribute 25, 1	@ Tag_ABI_align8_preserved
	.eabi_attribute 26, 1	@ Tag_ABI_enum_size
	.eabi_attribute 30, 4	@ Tag_ABI_optimization_goals
	.eabi_attribute 34, 1	@ Tag_CPU_unaligned_access
	.eabi_attribute 18, 4	@ Tag_ABI_PCS_wchar_t
	.file	"boardalignment.c"
@ GNU C (GNU Tools for ARM Embedded Processors) version 4.8.4 20140526 (release) [ARM/embedded-4_8-branch revision 211358] (arm-none-eabi)
@	compiled by GNU C version 4.6.4, GMP version 4.3.2, MPFR version 2.4.2, MPC version 0.8.1
@ GGC heuristics: --param ggc-min-expand=100 --param ggc-min-heapsize=131072
@ options passed:  -fpreprocessed obj/main/NAZE/sensors/boardalignment.i
@ -mthumb -mcpu=cortex-m3
@ -auxbase-strip obj/main/NAZE/sensors/boardalignment.o -ggdb3 -Os -Wall
@ -Wpedantic -Wextra -Wunsafe-loop-optimizations -Wdouble-promotion -Wundef
@ -std=gnu99 -flto -fuse-linker-plugin -ffunction-sections -fdata-sections
@ -fverbose-asm -ffat-lto-objects
@ options enabled:  -faggressive-loop-optimizations -fauto-inc-dec
@ -fbranch-count-reg -fcaller-saves -fcombine-stack-adjustments -fcommon
@ -fcompare-elim -fcprop-registers -fcrossjumping -fcse-follow-jumps
@ -fdata-sections -fdefer-pop -fdelete-null-pointer-checks -fdevirtualize
@ -fdwarf2-cfi-asm -fearly-inlining -feliminate-unused-debug-types
@ -fexpensive-optimizations -fforward-propagate -ffunction-cse
@ -ffunction-sections -fgcse -fgcse-lm -fgnu-runtime
@ -fguess-branch-probability -fhoist-adjacent-loads -fident -fif-conversion
@ -fif-conversion2 -findirect-inlining -finline -finline-atomics
@ -finline-functions -finline-functions-called-once
@ -finline-small-functions -fipa-cp -fipa-profile -fipa-pure-const
@ -fipa-reference -fipa-sra -fira-hoist-pressure -fira-share-save-slots
@ -fira-share-spill-slots -fivopts -fkeep-static-consts
@ -fleading-underscore -fmath-errno -fmerge-constants -fmerge-debug-strings
@ -fomit-frame-pointer -foptimize-register-move -foptimize-sibling-calls
@ -fpartial-inlining -fpeephole -fpeephole2 -fprefetch-loop-arrays
@ -freg-struct-return -fregmove -freorder-blocks -freorder-functions
@ -frerun-cse-after-loop -fsched-critical-path-heuristic
@ -fsched-dep-count-heuristic -fsched-group-heuristic -fsched-interblock
@ -fsched-last-insn-heuristic -fsched-pressure -fsched-rank-heuristic
@ -fsched-spec -fsched-spec-insn-heuristic -fsched-stalled-insns-dep
@ -fschedule-insns2 -fsection-anchors -fshow-column -fshrink-wrap
@ -fsigned-zeros -fsplit-ivs-in-unroller -fsplit-wide-types
@ -fstrict-aliasing -fstrict-overflow -fstrict-volatile-bitfields
@ -fsync-libcalls -fthread-jumps -ftoplevel-reorder -ftrapping-math
@ -ftree-bit-ccp -ftree-builtin-call-dce -ftree-ccp -ftree-ch
@ -ftree-coalesce-vars -ftree-copy-prop -ftree-copyrename -ftree-cselim
@ -ftree-dce -ftree-dominator-opts -ftree-dse -ftree-forwprop -ftree-fre
@ -ftree-loop-if-convert -ftree-loop-im -ftree-loop-ivcanon
@ -ftree-loop-optimize -ftree-parallelize-loops= -ftree-phiprop -ftree-pre
@ -ftree-pta -ftree-reassoc -ftree-scev-cprop -ftree-sink
@ -ftree-slp-vectorize -ftree-slsr -ftree-sra -ftree-switch-conversion
@ -ftree-tail-merge -ftree-ter -ftree-vect-loop-version -ftree-vrp
@ -funit-at-a-time -fvar-tracking -fvar-tracking-assignments -fverbose-asm
@ -fzero-initialized-in-bss -mfix-cortex-m3-ldrd -mlittle-endian
@ -mpic-data-is-text-relative -msched-prolog -mthumb -munaligned-access
@ -mvectorize-with-neon-quad

	.text
.Ltext0:
	.section	.gnu.lto_.jmpfuncs.511ca88e,"",%progbits
	.ascii	"x\234cb`b\300\006\374\2414+\003#\02000@\0203\003\234"
	.ascii	"\011\324\306T\315\360\253\241\243A \223\221!\227\021"
	.ascii	"\254\232\015(\205\020e\314e\004\013\263\26332\003%\312"
	.ascii	"\200L\0006\344\010\307"
	.text
	.section	.gnu.lto_.inline.511ca88e,"",%progbits
	.ascii	"x\234uP\241N\305@\020\234\335\273\266W\372B\032H\250"
	.ascii	"|\347P\010\344S<\014\022\215A\003\202\1778\211\344\023"
	.ascii	"\236|\022\007\006G\302o\020\014$(\022\022\022\024\273"
	.ascii	"{\345\232\020\250\330\235\231\235\335\266\303`\374\365"
	.ascii	"\264\243\\\001\263\206Z\234\235\320\005\211\346\200"
	.ascii	"\363\011\026\265\237\324~R\343\244F\220m\2209\264\306"
	.ascii	" \347\353\325\234A\257MbFu\265\233\204|\270\344\275"
	.ascii	"\260\207m\351\240/J\241W\376\334*\320o\"\354=\202(_"
	.ascii	"\364\213\365\275C\267>\262;btw\203\271\334L\234\327"
	.ascii	"\307\277\333\316\202\300\2337\227\371\325\377\373\240"
	.ascii	"\301\324h\267\304\356W\363b\247\215\237\03548\030\250"
	.ascii	"e\373]'\303\021\271\202|AUAuAMA\0019\030\260T\014\335"
	.ascii	"\355!\272\227\375\034\214\037\033\342\323i\012h\336"
	.ascii	"j\011\311}\262&\306\022\216\037\251\244\2543R\262\224"
	.ascii	"\270\336\3752\317\243*\321\224\250\245W\336\217\313"
	.ascii	"AI\260\241Ao\307|\036Z\214\334Y \370\006\265\275H\342"
	.text
	.section	.gnu.lto_.pureconst.511ca88e,"",%progbits
	.ascii	"x\234cb`b\340f\200\000V\006VF)f\0116\011v)\000\003t"
	.ascii	"\000\217"
	.text
	.section	.gnu.lto_isBoardAlignmentStandard.511ca88e,"",%progbits
	.ascii	"x\234}\221\275K\003A\020\305\347\355\336\355\005\261"
	.ascii	"\023\354\014A\204\200\302\235\340?b\221\200\226\227"
	.ascii	"\030\217\003/\221$}\022M\221\362\012A\324\306 \202`"
	.ascii	"a!\202\205E\204 \026F\020\004\321*\235\235\210\265\020"
	.ascii	"wN.\306\017\\\330\231\235e\346\367\036\273\202\004\375"
	.ascii	"\\\213z\277\201\310\326\031\026A\204\267D\215\204\020"
	.ascii	"\262\225\246\372\230\311q\\\012c\2442\204\272Hru\357"
	.ascii	"\350\312\204\372\034Q\000\037\010T\023\3220\025j\313"
	.ascii	"`\005LS\273^\017\373\207\333=\354lu\232\373\365\367"
	.ascii	"\301\000\360\241\335\244Ay\320\222.\220\212\2220\276"
	.ascii	"\333;\021\235\376`ps\034:\011\220\213\266\206I\004 "
	.ascii	"\203|H\223\203\342`\351\300\223&5\265T\212\230\252W"
	.ascii	"FG\366\224\205\340,{\264\361t\3760\345\342\000&y0\346"
	.ascii	"h\326\207\271G\273ZYy\220\354\300\212ts\210\035\\S\367"
	.ascii	"\271q\246\2063\334#G-fu\331JG\354\327d\334f\376\207"
	.ascii	"\306(\372\024\303\231?\320\006u'\"tX\212\333\324\177"
	.ascii	"h1\212\376r\255~\2413\372\376\362\212d\026*~\232\227"
	.ascii	"\315\311\270\337\362\330\344\035\015\275E\374G\002s"
	.ascii	"\364\017\033G\013\321\211_\234Y`\006k\317\330N\245\234"
	.ascii	"w\002\327/:\225B\261R*W\234\\\311-\257\270k\276W\014"
	.ascii	"\012\305\252\235'\313_\255\006\353\366\374\007?\337"
	.ascii	"|\311"
	.text
	.section	.gnu.lto_alignBoard.511ca88e,"",%progbits
	.ascii	"x\234\255U\317k\023Q\020\236y\273I\266I\372\203\322"
	.ascii	"_i\011M\323\264Vm\033\374_*\330c\214\245\004L\012\215"
	.ascii	"\207\252\207l\232\012\245\364\220\213\322\252\007K)"
	.ascii	"\012\376\254GO\271(TP\361\346A\241(\224\036=\025\025"
	.ascii	"!\316\274\267\273\311n\227\332B\026\362\275\267o\347"
	.ascii	"\233\371\346}\003\021 \300\373\304\350\267n\000L\322"
	.ascii	"\212\032\240\250~\004(\033\002\2217\200P\022X\232E\016"
	.ascii	"\325\222\260e\232\325\375\267\337\017q\323\254\255<"
	.ascii	"2\377\326\353\2109\244\264\347\020\262\010W\350\005"
	.ascii	"\023r\021\272\273\216\342\326\356\275\213V\313\253f"
	.ascii	"\275^\222\264\363\247\244m\270i\027\377G{)j\373\365"
	.ascii	"\372\303\335\225\367\261\013\002\363\010\032dp\013\223"
	.ascii	"\240\323\272Mk\200\326\035Z\203\220C-\304`0\2641\204"
	.ascii	"\031\"\014Q\206v\206\016\206N\206.\206n\002\275\207"
	.ascii	"w\275\014}\014\375\014\003\0141\206A\206!\2068\007\017"
	.ascii	"\363.\3010\302\220d\030eH1\2141\2143Lp0u\020\200\025"
	.ascii	"j<\241T+\315J1p\353\364\314\020\262E\227Q\360\252}\200"
	.ascii	"\3457w\236\256\3073\370\030\0030\217\332\003\270_6M"
	.ascii	"s\226nl\036\005\337R\300\272\235=X\256Yq*?E\003\310"
	.ascii	"\004\317\2436_W\374\256&\272n\323\205M\336\226d\335"
	.ascii	"\"\357:\344\300q\262q\214\274#\311\001I\376\372\345"
	.ascii	"\307\241n\263\203S0IW1\005\317H\277y\227\330A'_\350"
	.ascii	"6\3741Wyg\344\221/\202\223\253\334\274ksF\300\375&\213"
	.ascii	"<\251\034\010\273F\310\352\271\262\246\331G\006U\246"
	.ascii	"\017J\317\317a\373\270\315\245\346\367\231\324\340\211"
	.ascii	"j^8\367\025\266.\261IM\204*\323\007y\272Z9r\204G\245"
	.ascii	"\320\210R\371\252`\037\267\273T~\013\236E\2458Q\345"
	.ascii	"Q\273]\243\303r\253Ie'U\246\017\226\312\327h\237wI\241"
	.ascii	"\235\000\237\300\261\265\333\221\021\316\242\272\031"
	.ascii	"\012\314Y\275\354UC*\320\232\333K\336\271\245\004\252"
	.ascii	"\351_M\243\322\323\262Q\301\346\266+kM\243\322Ke|\346"
	.ascii	"\242\257es\341-\335\230\213~*\3437\004\003RU\277w\010"
	.ascii	"b-\033\002\257\244\306\020\014R\031?\307\207\244\252"
	.ascii	"A\227\343q?\307\207N\343\270\256b\343\252\303\215\203"
	.ascii	"\206\343\303-s\\xzl8\236\2402>\216\217\264\314qo\351"
	.ascii	"\206\343I*\343\347\370\250T\225\364:\236j\231\343^I"
	.ascii	"\015\307\307\250\214\237\343\343R\325\230\313\361\011"
	.ascii	"?\307\307O\343\270\241b'\000>Cy\177sT\005\332\317\014"
	.ascii	"%\243\1779\026\231\232N\027\027\263\351|&WH\027\347"
	.ascii	"\012\305\205\305b\372\352Bf\361Z\346zn\276\220\237+"
	.ascii	"\334\230\316\002.\341M\274\365\017\270\255\322\023"
	.text
	.section	.gnu.lto_initBoardAlignment.part.0.511ca88e,"",%progbits
	.ascii	"x\234\315\222Ak\023A\024\307\337\177fv\333hm\252\037"
	.ascii	"@J\021\004\203\015H\373\001\374\016)\352I71\204\201"
	.ascii	"\356F\262\361b\017\235\210\205\036\203\307\024\304\036"
	.ascii	"\212\342EQ\204\036\2137\021\025o\325C\311\275\227z\023"
	.ascii	"Q\326y;\263+\265\275\344\346@\366\375\331}\277y\277"
	.ascii	"\031\"H\320\277\253f\177W\025\321\262\255\010\010j\370"
	.ascii	"\311\006\005\221W\001\311u0-\001\016\004ZWBb\375\026"
	.ascii	"\030\016\026h\333\230\321xc\364a\033\346\261\031\034"
	.ascii	"eYU\363\247\026\350&40\237\027\241\216\017u\230y\375"
	.ascii	"\334T\236\232_Y&\3773fo\270\367}\247\362\367@R\320e"
	.ascii	"\224\334\035\307\315\034\347^\0123\316\262\257\267\317"
	.ascii	"\2034\224\260\217@rR\234\002N!'\2765zd\314p>\302\016"
	.ascii	"\026\234\216]\015\373\344\033n@q\225+\020y\375H\017"
	.ascii	"w\367\267.Fxf\331-\032\015\214\231\323\010\327\350\247"
	.ascii	"\331\3444\025\3478\033MQ\221B\016\226\374\266\373d\331"
	.ascii	"\221\035\240FW4\246\313-*\345\026\024\003\036tGi\242"
	.ascii	"8\324gR\005/\312\3763-\270\006\273\251\306\331|\322"
	.ascii	"\373\341\005\327X\243\027\306\256\373\366\250>\336\320"
	.ascii	"\230qgmz\256\011\341y\3414\367\017JM9\211\246<\251\251"
	.ascii	"N\323\224\245\346\253\2114\225\347\225\323\374q\260"
	.ascii	"T\214\011&\321\014Nj\206\247i\006\245\346Qu\022\315"
	.ascii	"\320\363!\217\330\030\377\276\347`\242r\310\271\226"
	.ascii	"\277\3625z\2401\3536\360]\256\311\274\265\302\325\030"
	.ascii	"\302\277\325\230c\225w\207\376\205C\226\350\215\331"
	.ascii	"\264\215\305\305\257\330\304\377\322/4\030\037^+\306"
	.ascii	"\272\325\260~\366\033\317\275\264XO{\255z\034\351\244"
	.ascii	"\236\266\223\264\333K\353\315n\324\273\033\255\352N"
	.ascii	"\022\267\223\376b\213f{\335~\324\327\335\344z\322Ym"
	.ascii	"\247\177\000s\241\001\242"
	.text
	.section	.gnu.lto_initBoardAlignment.511ca88e,"",%progbits
	.ascii	"x\234\215Q\277K\303@\030}\337%\327F)\332\177@\020\021"
	.ascii	"\334\032t\325\016\216\356-\250\2231\226z\320&\220ts"
	.ascii	"\350\005+\010.\245K\347\016]ur\317\350\244\350.d\365"
	.ascii	"\307`\335\352\022\357\022+\330\311\017\356\336\361}"
	.ascii	"\357\275\357\30110\314\327\266:;\004\034*\244\002\210"
	.ascii	"\365\357\201\310b\314\234V!\027\215a\031\262d\020\327"
	.ascii	"m2s\214,N\244\037 t\231ar\352\036P\346v\303\342$M\257"
	.ascii	"\237.>\213\234AdM\216\236\224\375\3255\214d\334\217"
	.ascii	"'\343\0059\220\321G\232.\013\"\206\015\202K\330'A\354"
	.ascii	"(\003\2434\037\321\315lj\352\326;\353J\244\320x@/y\035"
	.ascii	"\220C#\342h\022;\303\227\274\224eA\246Ky\230\274\223"
	.ascii	"<\277LV\004\3616\375$\211\257n\367\200\\\347*3\025\263"
	.ascii	"\000\334\241\367\036m\376\272\351$\177B\324\311\300"
	.ascii	"\260\254\266\236[9i\346\2576\026]5\324%\310\312\331"
	.ascii	"521\255\032u\305\323Y\037\021%o[3\335\214Bz\246\177"
	.ascii	"d\275b\207\201k\267\035\341\331a\303\013\375 \264\217"
	.ascii	"}'8qZ\242\351\265\033^\247\342b)\360;NG\370\336\256"
	.ascii	"\327l5\302\177hN\361\015=\220tM"
	.text
	.section	.gnu.lto_alignSensors.511ca88e,"",%progbits
	.ascii	"x\234\225V\335KTA\024?\347~\337\353\256$\206\224\240"
	.ascii	"\244\230\211\211\233\317\275\224\324\177\220P\217\233"
	.ascii	"\206,\344\006\256A\037\017\316\332\012FZK\024Y\275d"
	.ascii	"\021\342SQDa\037\354\223\270\364\375\022\021=H\020="
	.ascii	"\024\025\031\025Zn3sg\356\275\336b\335;\340o\306\373"
	.ascii	";\2773\2773sv\357*\240@x\334\241\177\217m\200\335t\306"
	.ascii	"j@%\377\014 k)\226\372\316\006bi\034u\216\006G\223\243"
	.ascii	"\305\321\346\350pT\261\312\225jr\241\313\205!\027\246"
	.ascii	"\\Xra\313\205#\027UJl\266\021H,\376*\001\304\211a\334"
	.ascii	"}\034Gd\013@\030VTM7L\313v\252bq\034\336\207\254\014"
	.ascii	"\255\031\246\0109\2730z\265\210\027\316\025\262W\310"
	.ascii	"\357R\0111\205\264\344-\010\275\010{\351?h\361I\301"
	.ascii	"\325g\300\264\371|\341\341\334\371\215\344\312H\236"
	.ascii	"\254Pi\012U\005v\370\312M\256R\373\257\362\321\\,\237"
	.ascii	"\035#\245\3220\227uW({\261Z\266k-\331\015\245\260P*"
	.ascii	"\275\275\235{\323\266M\303\001\004\035\222x\015\233"
	.ascii	"\301\240\363u:\233t\236\246\263EI\264)(\325\220B\255"
	.ascii	"\206A-\203:\006\365\014\032\03041ha\320\312\240\215"
	.ascii	"A;\203\016\006\2354\333\024\315F\207\0169B\362\233\334"
	.ascii	"\335\334\275\334\235\200Y\246c\017Ev?=\250\260Y}\012"
	.ascii	"#\263\243\313\343[\2238\203:\364\243~\031.e\011!\207"
	.ascii	"S\250\367\243\306\2523DUE\030)\21087?\215\006\340\011"
	.ascii	"\376\304\244\336p\365\353\002rM\312\025)\276\316\305"
	.ascii	"\206\020O\305\245\330\374Wl\375#\236\346b\023\340\011"
	.ascii	"\\$\017\356\254\227bk\002\306\2639Rxm\244\030\013\320"
	.ascii	"\207*\327\212\347\337\331s\226\323R8\251\005\311\025"
	.ascii	"\217T9\251\007\311IS\222\032'\215 y\313#uN\232A\362"
	.ascii	"\201G\032\234\264\202\344+\21749i\007\311\257\036iq"
	.ascii	"\322\011\264W\017-\354\235\255>\246\2376\267x^)=\313"
	.ascii	"\342\353\217\363\342\234\3045n\347Gi\373\327(\357\254"
	.ascii	"\370\253\\\250\346\206\2727T\234\374\\&\324rCMiM\013"
	.ascii	"[\323\304~\345\222@p\277\231\023\213\023^?V{\206o:k"
	.ascii	"\331\255v\003\357}\211`W\017\333\325\205\207k\247=\017"
	.ascii	"5\225x\020%\324\010\371\264/\257\365\016r\355\022j\305"
	.ascii	"=~\213P\202\021.A\036\343]\337C]%\036D\011u\302\303"
	.ascii	"\342\332\015\"{\251\\h\330\256\031\266k\012\273\037"
	.ascii	"}\273\365\021N\274^x\370Qi?\323\376\362wj\350\027\373"
	.ascii	"\227\333I\224\320 K\260\302%X\302\303\317J{\2748\271"
	.ascii	"T\351\351\322^:\343\331m\212`\267I\332\265\303vm\341"
	.ascii	"a\271\322o\013\332K\276\207\226\010\375\334\"\344\367"
	.ascii	"}yk\204\022Ze\011N\270\004G$\376\340'n\213\320\343m"
	.ascii	"\262\347|y{\204o\232v!\377\342\313;\"\224\325!\313\252"
	.ascii	"\222\357\340\342$\375=$Suz\257A8\016Kd\214\255\354\001"
	.ascii	"\032\014\374\327\206-^\003\363\220\373\224\355\362D"
	.ascii	"\214\202\340\350\301\030\3146\252\317!\267p\362\275"
	.ascii	"\360\004~F\247\027Q\234\206\235\342\311\271&\316-\275"
	.ascii	"\204\354\302\251\315R\343\216=4\236r\354\355\331\322"
	.ascii	"\231\310\014\366&\006\222\251t\"s \23594\230I\354?\224"
	.ascii	"\034\354K\036L\365\247\007\016\244\207:{aCf(\231\356"
	.ascii	"\243\017\273\031\263\323c\272\360\010\036\305c\177\001"
	.ascii	"\331Ux|"
	.text
	.section	.gnu.lto_.symbol_nodes.511ca88e,"",%progbits
	.ascii	"x\234E\311\277\012\202p\024\305\361s\357\365\247\251"
	.ascii	"\375\037\232\202\236\255'9R\020\322\020Bs\015\371&\011"
	.ascii	"\215\215--Ek\217\020\221\246\350]>|\317U(nhN\373\004"
	.ascii	"\262+@\036\322\245\016)]\271\030\036Mg\324v\023\027"
	.ascii	"i\271\271\2368B\007\264\346sLEG\364\272r\241\005\204"
	.ascii	"L\351\352-ID\306\364\273\2300h\303$D\276}/*_\273\332"
	.ascii	"|_j1\212Me\204uc\376\374Je\361(\365\201\325_\303\371"
	.ascii	"3\267@p\272_|\374\000\322\345:E"
	.text
	.section	.gnu.lto_.refs.511ca88e,"",%progbits
	.ascii	"x\234cb`b\320e\200\000NF \007\015\26223\2620\260\202"
	.ascii	" \023\023#\033\023+#;\003\013#\007\023+\003\000\022"
	.ascii	"6\000\230"
	.text
	.section	.gnu.lto_.decls.511ca88e,"",%progbits
	.ascii	"x\234\265Y{l\024\307\031\237\231;\337\371\340p\015\010"
	.ascii	"jP\013&\"QE\213\355P\024EU\025\232\244J\371\247U\012"
	.ascii	"\215\372rt,wk\373T\373\316\271[\207\322\252\312\330"
	.ascii	"\024\207G@\346U;\245\2203O\323\00018\301X\316cy\304"
	.ascii	"qd\012\224\2504\346\3453U\022P\025\240%\205\020\002"
	.ascii	"\327ofgo\037\336\363\235]u\245\357<\273\373}\277\357"
	.ascii	"1\337|\373\315\230 \202\232\010B)\270\346|\035\241^"
	.ascii	"\027B\036\204\320c@n\240V\240\235@\300\202\272\221v"
	.ascii	"\345\003\035\001\352\003\352\007\272\0104\010t\015\350"
	.ascii	"\026\320\027Bv2F\250\010h*\320\3270\262\\G\004\016\343"
	.ascii	"+\000\362\013\035\307\200\332\201v\011\275`\016z\015"
	.ascii	"\250\023\250\013\010\013Y\366\267\327\012\311\355a8"
	.ascii	"\247L\230%H\363\347$\320v\240m\302'\246\367\247\000"
	.ascii	"r]\310\022!\177M\214\317\012\373\315\027\363u\274\260"
	.ascii	"K\307\277/\370K\204\355?\303\206\375?\207\361m\246\037"
	.ascii	"\376\376\002\350\236\320}\027\310+\374\312\203\347~"
	.ascii	"\254\371W\2005\037\013\261\346w\277)\236\354~\252\210"
	.ascii	"\247\335.\026\177\237\320\177\337d\333/\261f\353Q\240"
	.ascii	"r\030\237\023\374n!\303\342\370,\326\3640\310\"\033"
	.ascii	"\356\240\3009f\302\\\204\265x\236\0221ey\322-\374\226"
	.ascii	"\200N\230\3429h\232\223O\200\376\011t\025h1\360\005"
	.ascii	"\201B@2P\005P%P\025PX\344\213\371\032\213VQ\332@\023"
	.ascii	"\215t~o\301x\324D\341*6\217$\\2\006,\220p\201\017-\342"
	.ascii	"\003\277\217ke6m\307\343\371\310\207V0v\015\205s\010"
	.ascii	"\211b]\302-$v`\037\037\211\307\351\001\021\366\010\271"
	.ascii	"\004\321_\314\024\202\333\204*\003\"\243\216V<\326\321"
	.ascii	"\275\011h\035\267\222\272[\012\322\322e\272\264\007"
	.ascii	"\362\200\260\340\022\021\242\007\321\016J\233\222\035"
	.ascii	"\311~\027\245\371\022\336\205'\300\333\022\214f\241"
	.ascii	"=\000\003\001\272<\035\015\275\262i\221\360n\3144=\205"
	.ascii	"a\270\0270%\374*\236\245i\243j\177\002\027k\217\221"
	.ascii	"x\341p\315@\011\306{\3763\025\323\036\277\010>m\244"
	.ascii	"\337h34\026\232#+\\\031\3509\364M\356J;f\3177cl\321"
	.ascii	"\221;\320\037\372\036\242n\011wp\230\3336\030\011\023"
	.ascii	"\237\331Z~\25730,\270\245\364~\212_\370\005\361\004"
	.ascii	"\206h\224R\004\325\023=\230NF\247s\315\2244\226H&;\016"
	.ascii	"_\305-T]\347\322C\263f\304\200\205\226\251\271\264\250"
	.ascii	"e\216\216\365\307\021c\025;M\272\036\026#e$\274\037"
	.ascii	"?\010\277\257\341\031\360\333\311\177\273\3407}eZ ;"
	.ascii	"\215\005\302\347\274\201&w\322\"S\272\346\353\022\330"
	.ascii	"\224<\215\373\264\344\351\346^\355$\016\311\223\023"
	.ascii	"P\363\352\255\245\034\350m\016\264\217\330\323\007\333"
	.ascii	"\322\007[\023\001\373\214\301\220\244\311\302;\035m"
	.ascii	"\245\352\215\344\300\007\373\246\275L\325\006\232J\275"
	.ascii	"@\013'\243M\"\357)\216\345\243\027\271\037\313i=~n\030"
	.ascii	"?\330\372'\022>\206\363\301\207\013\304VV\015\203\030"
	.ascii	"\203>\027\332X\037a\347%\306\204\216\342\311|\344\322"
	.ascii	"\236h3&\341g\\i`\202.\333\3426\023m\247t=\275)\317\327"
	.ascii	"\330\011\272\3139\216\340\351\216\211\220N\203\207\320"
	.ascii	"N\346\361[\027\236.\322M\264HY|\027\006\276\207\011"
	.ascii	"2]ZX\325u=k\247\320D\275\232J\315C\226\240J\370\261"
	.ascii	"I\031\235=au\326R\262-\037\026\347\204N\327\266\343"
	.ascii	"\007p\003(\223\360)\236W\253\\\216\325-\007\250\346"
	.ascii	"\276\316Y<A\317p\240\365.{\202zl\011\352\261&\235\207"
	.ascii	"U*J?7*\225\307\307\233@/\032\265\\\246\245|\322X\312"
	.ascii	"\266\374\370\223\313)?\222\003\033\216\257\303\033\227"
	.ascii	"\321\371\232,A\2739__\306,9i\312\022J\273)\313\022\230"
	.ascii	"M$\204,\016\375\315!-\222\352_\373_\312?M\223\251\324"
	.ascii	"\364\334\223\342\234H\012\303)\202^\265y$\214\202\205"
	.ascii	"\330F]i\243\372\355F\235\037jT\"I\017R\232\007\313?"
	.ascii	"EI\356F]r0\352]g\243\250\325\250\213v\243\006\234\214"
	.ascii	"R\017\367\370G\032\250\313\366R\301\346\313rc~\331\255"
	.ascii	"\325V[\252|\350\230*\364N(\235$\037q\216\301\341\223"
	.ascii	"D\210\275!\247\305\256\216@\354_\317\026\351\337\226"
	.ascii	"kv1K\011J{!\002\275\206./\304\351H\017\332#\375\361"
	.ascii	"\320H'\333\223\003\003\0276\341\365\313\022m\364F*\365"
	.ascii	"\225e41\311\026r\217/c\310\257\333C\016\035\262-\242"
	.ascii	"]nsDEc\251\272\261q\323\353\316\360\3110\231\331\224"
	.ascii	"\354\376\370\312\224f\335J{M5\032\363!&\336\266\233"
	.ascii	"\330\316?\214\026\033\257\270\355\231\253\261\336q\010"
	.ascii	"X\223\332\337\330\207W\254\242_\246R\256\021\324\366"
	.ascii	"\273\303\324\366\211h\275\330c\244\313\233e\203\241"
	.ascii	"UcuS\017\353\210\357\343\211\000q\307fr6\010fB=\231"
	.ascii	"hm\261Sr\261\3664{\207\275\256g\015\246\211\243X\333"
	.ascii	"\351\020\264<\017\013D'mY\373LuC\317&\216'\366\010\331"
	.ascii	"\\\277;\016:\214F\302\266\035+\363\254\236gC \250\231"
	.ascii	"K\254$\266\015\306\315V\026N\3668\273\373\377\371\264"
	.ascii	"\305E\327\373y\246\021\324\232\006tZ\314\331\235\277"
	.ascii	"\365\027\334[&\260v\215\030\253\330\202\365\271\011"
	.ascii	"ko.X\371\016v9]\346\210Ix5a\375\365K\204u\326k\371o"
	.ascii	"\0231\365\327\004\265\2176!\234u\033\271*\341\006\256"
	.ascii	"{\031\327\272\234\344\320\325\3373Z\001\247\345\246"
	.ascii	"\345p&\341\215d\254\305\022K\245\350\314s\256\024\233"
	.ascii	"\210\245R<\200Z\251z\032\232\353\275\323\352\251\372"
	.ascii	"{\312\212\005\306\332\326\235\240\2764H\306=~\263\201"
	.ascii	"\307\260\222\247\325-{|\264\261\211W?}\003\336o\307"
	.ascii	"1\355\2555\230\227\2550\364\214z\340\316a\314\252\225"
	.ascii	"\206\243\365\354\327\3558\266>W\302\233\005\216\251"
	.ascii	"agx\355`\326\275\265\270=\321\300\367\2438\275\341\247"
	.ascii	"\330\264\032)\326\341\330\316Pt\226[\376\255>\002\235"
	.ascii	"\245\303\342\265\262Kx+\314~V6h\211<\314\211\204}\221"
	.ascii	"\277\302\027y\"\207E\336\240\036\370T\305t\225_\354"
	.ascii	"\337\262o\376\325\3766\006\276\203\260\207\207=\216"
	.ascii	"\273\300\\\316\"\032;\277\305\233\354\335\034\350\355"
	.ascii	"Q\0035\257\336\375]\016\364g\016\364\236\307\336\255"
	.ascii	"\273l\335\272\313\332u\273|\306\200}\334\376\217\314"
	.ascii	"\004\235I\317\327h\016*\032 \201z?\302\365\313h[\231"
	.ascii	"\036\270\263#F4\237T4\250\257\313\275e\266:\301\332"
	.ascii	"\253Lu\342\200Q'\010:o\327=\242*\336\240v\336\353\305"
	.ascii	"\360}\261\251g*2\251\177\335\254\376\037\271\250w*\374"
	.ascii	"\342#\362\316E\177\223$Z\210\204'\323\246\220\251\355"
	.ascii	"\264\367\020]\223\210\3664\373\372\352\326\234\224\360"
	.ascii	"<\266\205\177\003j\212&9\232\217h\203\372V\327\373C"
	.ascii	"B\226[;&V\357\346\337\301\342}\0236=\004}b[*\271\267"
	.ascii	"u\357\200\274.\231n1\347\231\366\035\356\241\333\014"
	.ascii	"\323e\005\220\260J\\\266,\261\305\277\333<\3557\271"
	.ascii	"\331\243\010!20n\2158u\212\207\370\240}\246\267\361"
	.ascii	"\317\364v\376\231\336\317\177\333\371o\007\377=dm\027"
	.ascii	"\276\034R\234\264\032mB5j9\312\035w\245\327\366-3\177"
	.ascii	"'\304\206\243\025x\304\374\260Wn\021]\361v\217WlG\304"
	.ascii	"\375~\203{\032:\344\335B[\276\247\377O\240\245\300t"
	.ascii	"\326W\224\375\210\3544\257S\307\275\031\366;\032\203"
	.ascii	"n\2266\326G)\343\214\254J\207\037'\244N\221\221\376"
	.ascii	"\357\341\003\223\036\363\377\036\374\216V\275\313W\352"
	.ascii	"I2\015\356\346\242\016\272B}Z\302[\370\354\260Y\021"
	.ascii	"u\235\210\351\021\267\0361O\277E_\320\02549\260a\367"
	.ascii	"y\354\326\217\357Z\310\003\032t\207\020\320\252\231"
	.ascii	"6\233\232\212B\275\326t\011\226y\"\361m5\222mA3\271"
	.ascii	"\371w\342\374\357\017\255\211\311$\365aF\251\333\303"
	.ascii	"\350\352\317(uw\030\251s\031\245\216\016#u>\243\324"
	.ascii	"\271a\244.\030Rl'{\372F\262\343\312\221\251\372\341"
	.ascii	"\357\014[\315c\023\225\251\350]\"\366\323\037\011\277"
	.ascii	"\217\211\355\003 NS\017\266Q\237~\302*\341\213\304\371"
	.ascii	"\004\304\204b\272\322\031\255f<\251\204\345\301\217"
	.ascii	"\376Gp\202h\213\331\211ab6h\304\254\030\275\302\273"
	.ascii	"\265\015g\177L7\346;\237\262h<\352g\215t\014\031\226"
	.ascii	"\343~V\216\226\027\263q\034\314\312\361fV\216\263Y9"
	.ascii	"nd\346@\236Z)\370+94\263\2444\036\013\226\326H\341H"
	.ascii	"i\\\216\304\243\261x\351\342\250\024\013I\325\341\312"
	.ascii	"H\215\034QJ\252P!\177\362\270\376$\240x~\360\243g\212"
	.ascii	"\237\034\362<\376d\360;\345!\371\371\362\312`p\266\024"
	.ascii	"\253\231\035\211F\344\331\262\2648<{n\340\321\331s\312"
	.ascii	"\036\236\373\334\234r\313\213\362p$X]\027\222\313\343"
	.ascii	"J(\314\225y\341\317\303\217\004\224\205\243\307\252"
	.ascii	"\221\202U\341\210\\\036\010\311\025R]5\030\274\264V"
	.ascii	"\216\003\266/\020\020\350cc\321\352\352\357\313\225"
	.ascii	"1Y\216\373k\303J\260J\334\214Y*-\021Co\0350?\032P@J"
	.ascii	"\214r\210V\020\345\005\236\210F\253\213\302\361',\321"
	.ascii	"Y\250H\221\020<(\260\006\215\271\373\3559\\\211\030"
	.ascii	"\215\341`\\\330\365\274\034\234\022\216\204\025+TI\255"
	.ascii	"\024SJ\312&\014}\343\347\262\0135\323\\`\253;$\307\225"
	.ascii	"\374XT\221\224p4\362\370\377\022S\245\012\"\350\251"
	.ascii	"\216\201\231\025\336HT\251\212E\227\270\253e\251b\252"
	.ascii	")*\301hMM4R\312\270Y\300\013CZ(\177\022] \205\302R$"
	.ascii	">\266\2426 E*\253\345x@q\305\244%\343\214{\230,_\372"
	.ascii	"\316\315\346'\217O\214\013f\304\243=\235\270\270.\\"
	.ascii	"\035Z \274\371\241\244\304\302\277\036\307\343\251?"
	.ascii	"\233dK\311\205K\343\212\\39.\202o\215\326L\213\341\221"
	.ascii	"\212pe)DV\252\221\0259\026\250\214E\353j\301\005\177"
	.ascii	"m\345\002\2712\034WbK\003\361\274\332\312H@\311\257"
	.ascii	"\023Y4F\313\0146t\301\033w<\374\033\331+\205B19\036"
	.ascii	"w\325*\261\261L6.+O\325E\202\244\"\222\027c7f@\345\253"
	.ascii	"6{\3657^>\221r\310]\027\227C\336\270\034d\316\215+\251"
	.ascii	"\255\014\304\004\007r\007\253\244\330\177\001\203\275"
	.ascii	"\352\026"
	.text
	.section	.gnu.lto_.symtab.511ca88e,"",%progbits
	.ascii	"boardAlignment_System\000\000\004\000\006\000\000\000"
	.ascii	"\000\000\000\000\030\001\000\000initBoardAlignment\000"
	.ascii	"\000\000\000\000\000\000\000\000\000\000\000\335\000"
	.ascii	"\000\000alignSensors\000\000\000\000\000\000\000\000"
	.ascii	"\000\000\000\000\341\000\000\000boardAlignment_Regi"
	.ascii	"stry\000\000\000\000\000\000\000\000\000\000\000\000"
	.ascii	"\034\001\000\000degreesToRadians\000\000\002\000\000"
	.ascii	"\000\000\000\000\000\000\000\366\000\000\000buildRo"
	.ascii	"tationMatrix\000\000\002\000\000\000\000\000\000\000"
	.ascii	"\000\000\372\000\000\000"
	.text
	.section	.gnu.lto_.opts,"",%progbits
	.ascii	"'-mthumb' '-mcpu=cortex-m3' '-ggdb3' '-Os' '-flto' "
	.ascii	"'-fuse-linker-plugin' '-ffunction-sections' '-fdata"
	.ascii	"-sections' '-fverbose-asm' '-ffat-lto-objects'\000"
	.text
	.cfi_sections	.debug_frame
	.section	.text.initBoardAlignment,"ax",%progbits
	.align	1
	.global	initBoardAlignment
	.thumb
	.thumb_func
	.type	initBoardAlignment, %function
initBoardAlignment:
.LFB9:
	.file 1 "./src/main/sensors/boardalignment.c"
	.loc 1 49 0
	.cfi_startproc
	@ args = 0, pretend = 0, frame = 16
	@ frame_needed = 0, uses_anonymous_args = 0
.LVL0:
	push	{r0, r1, r2, r3, r4, lr}	@
	.cfi_def_cfa_offset 24
	.cfi_offset 0, -24
	.cfi_offset 1, -20
	.cfi_offset 2, -16
	.cfi_offset 3, -12
	.cfi_offset 4, -8
	.cfi_offset 14, -4
.LBB23:
.LBB24:
	.loc 1 45 0
	ldr	r4, .L7	@ tmp122,
	ldrsh	r0, [r4]	@ unaligned	@ tmp123, boardAlignment_System
	uxth	r3, r0	@ D.5327, tmp123
	cbnz	r3, .L4	@ D.5327,
	ldrsh	r2, [r4, #2]	@ unaligned	@ D.5327,
	cbnz	r2, .L2	@ D.5327,
	ldrsh	r3, [r4, #4]	@ unaligned	@ D.5327,
	rsbs	r3, r3, #1	@ iftmp.0, D.5327,
	it	cc
	movcc	r3, #0	@ iftmp.0,
	b	.L2	@
.L4:
	movs	r3, #0	@ iftmp.0,
.L2:
.LBE24:
.LBE23:
	.loc 1 50 0
	ands	r3, r3, #1	@ tmp138, iftmp.0,
	bne	.L1	@,
.LBB25:
.LBB26:
	.loc 1 54 0
	ldr	r2, .L7+4	@ tmp139,
	.loc 1 57 0
	sxth	r0, r0	@, tmp123
	.loc 1 54 0
	strb	r3, [r2]	@ tmp138, standardBoardAlignment
	.loc 1 57 0
	bl	degreesToRadians	@
.LVL1:
	str	r0, [sp, #4]	@ float	@, rotationAngles.angles.roll
	.loc 1 58 0
	ldrsh	r0, [r4, #2]	@ unaligned	@,
	bl	degreesToRadians	@
.LVL2:
	str	r0, [sp, #8]	@ float	@, rotationAngles.angles.pitch
	.loc 1 59 0
	ldrsh	r0, [r4, #4]	@ unaligned	@,
	bl	degreesToRadians	@
.LVL3:
	.loc 1 61 0
	ldr	r1, .L7+8	@,
	.loc 1 59 0
	str	r0, [sp, #12]	@ float	@, rotationAngles.angles.yaw
	.loc 1 61 0
	add	r0, sp, #4	@,,
	bl	buildRotationMatrix	@
.LVL4:
.L1:
.LBE26:
.LBE25:
	.loc 1 62 0
	add	sp, sp, #16	@,,
	@ sp needed	@
	pop	{r4, pc}	@
.L8:
	.align	2
.L7:
	.word	boardAlignment_System
	.word	.LANCHOR0
	.word	.LANCHOR1
	.cfi_endproc
.LFE9:
	.size	initBoardAlignment, .-initBoardAlignment
	.global	__aeabi_i2f
	.global	__aeabi_fmul
	.global	__aeabi_fadd
	.section	.text.alignSensors,"ax",%progbits
	.align	1
	.global	alignSensors
	.thumb
	.thumb_func
	.type	alignSensors, %function
alignSensors:
.LFB11:
	.loc 1 77 0
	.cfi_startproc
	@ args = 0, pretend = 0, frame = 0
	@ frame_needed = 0, uses_anonymous_args = 0
.LVL5:
	.loc 1 83 0
	subs	r2, r2, #2	@ tmp162, rotation,
.LVL6:
	.loc 1 77 0
	push	{r3, r4, r5, r6, r7, r8, r9, lr}	@
	.cfi_def_cfa_offset 32
	.cfi_offset 3, -32
	.cfi_offset 4, -28
	.cfi_offset 5, -24
	.cfi_offset 6, -20
	.cfi_offset 7, -16
	.cfi_offset 8, -12
	.cfi_offset 9, -8
	.cfi_offset 14, -4
	.loc 1 77 0
	mov	r4, r1	@ dest, dest
	.loc 1 80 0
	ldr	r3, [r0, #8]	@ z, MEM[(int32_t *)src_4(D) + 8B]
	.loc 1 79 0
	ldmia	r0, {r1, r5}	@ src,,
.LVL7:
	.loc 1 83 0
	cmp	r2, #6	@ tmp162,
	bhi	.L10	@
	tbb	[pc, r2]	@ tmp162
.LVL8:
.L12:
	.byte	(.L11-.L12)/2
	.byte	(.L13-.L12)/2
	.byte	(.L14-.L12)/2
	.byte	(.L15-.L12)/2
	.byte	(.L16-.L12)/2
	.byte	(.L17-.L12)/2
	.byte	(.L18-.L12)/2
	.p2align 1
.L10:
	.loc 1 86 0
	str	r1, [r4]	@ x, *dest_9(D)
	b	.L25	@
.L11:
	.loc 1 91 0
	str	r5, [r4]	@ y, *dest_9(D)
	.loc 1 92 0
	negs	r1, r1	@ D.5337, x
	b	.L26	@
.L13:
	.loc 1 96 0
	negs	r1, r1	@ D.5337, x
	str	r1, [r4]	@ D.5337, *dest_9(D)
	.loc 1 97 0
	negs	r5, r5	@ D.5337, y
.LVL9:
.L25:
	str	r5, [r4, #4]	@ D.5337, MEM[(int32_t *)dest_9(D) + 4B]
	b	.L21	@
.LVL10:
.L14:
	.loc 1 101 0
	negs	r5, r5	@ D.5337, y
.LVL11:
	str	r5, [r4]	@ D.5337, *dest_9(D)
.LVL12:
.L26:
	.loc 1 102 0
	str	r1, [r4, #4]	@ x, MEM[(int32_t *)dest_9(D) + 4B]
	b	.L21	@
.LVL13:
.L15:
	.loc 1 106 0
	negs	r1, r1	@ D.5337, x
	str	r1, [r4]	@ D.5337, *dest_9(D)
	b	.L24	@
.L16:
	.loc 1 111 0
	str	r5, [r4]	@ y, *dest_9(D)
	b	.L23	@
.L17:
	.loc 1 116 0
	str	r1, [r4]	@ x, *dest_9(D)
	.loc 1 117 0
	negs	r5, r5	@ D.5337, y
.LVL14:
.L24:
	str	r5, [r4, #4]	@ D.5337, MEM[(int32_t *)dest_9(D) + 4B]
	b	.L22	@
.LVL15:
.L18:
	.loc 1 121 0
	negs	r5, r5	@ D.5337, y
.LVL16:
	str	r5, [r4]	@ D.5337, *dest_9(D)
	.loc 1 122 0
	negs	r1, r1	@ D.5337, x
.LVL17:
.L23:
	str	r1, [r4, #4]	@ D.5337, MEM[(int32_t *)dest_9(D) + 4B]
.L22:
	.loc 1 123 0
	negs	r3, r3	@ D.5337, z
.LVL18:
.L21:
	str	r3, [r4, #8]	@ D.5337, MEM[(int32_t *)dest_9(D) + 8B]
	.loc 1 128 0
	ldr	r3, .L27	@ tmp175,
	ldrb	r3, [r3]	@ zero_extendqisi2	@ standardBoardAlignment, standardBoardAlignment
	cmp	r3, #0	@ standardBoardAlignment
	bne	.L9	@
.LVL19:
.LBB29:
.LBB30:
	.loc 1 70 0
	ldr	r0, [r4]	@, *dest_9(D)
	bl	__aeabi_i2f	@
.LVL20:
	mov	r8, r0	@ D.5338,
	ldr	r0, [r4, #4]	@, MEM[(int32_t *)dest_9(D) + 4B]
.LVL21:
	bl	__aeabi_i2f	@
.LVL22:
	mov	r7, r0	@ D.5338,
	ldr	r0, [r4, #8]	@, MEM[(int32_t *)dest_9(D) + 8B]
.LVL23:
	bl	__aeabi_i2f	@
.LVL24:
	ldr	r5, .L27+4	@ tmp177,
	mov	r6, r0	@ D.5338,
	ldr	r1, [r5]	@ float	@, boardRotation
	mov	r0, r8	@, D.5338
	bl	__aeabi_fmul	@
.LVL25:
	ldr	r1, [r5, #12]	@ float	@, boardRotation
	mov	r9, r0	@ D.5338,
	mov	r0, r7	@, D.5338
	bl	__aeabi_fmul	@
.LVL26:
	mov	r1, r0	@ D.5338,
	mov	r0, r9	@, D.5338
	bl	__aeabi_fadd	@
.LVL27:
	ldr	r1, [r5, #24]	@ float	@, boardRotation
	mov	r9, r0	@ D.5338,
	mov	r0, r6	@, D.5338
	bl	__aeabi_fmul	@
.LVL28:
	mov	r1, r0	@ D.5338,
	mov	r0, r9	@, D.5338
	bl	__aeabi_fadd	@
.LVL29:
	bl	lrintf	@
.LVL30:
	.loc 1 71 0
	ldr	r1, [r5, #4]	@ float	@, boardRotation
	.loc 1 70 0
	str	r0, [r4]	@, *dest_9(D)
	.loc 1 71 0
	mov	r0, r8	@, D.5338
	bl	__aeabi_fmul	@
.LVL31:
	ldr	r1, [r5, #16]	@ float	@, boardRotation
	mov	r9, r0	@ D.5338,
	mov	r0, r7	@, D.5338
	bl	__aeabi_fmul	@
.LVL32:
	mov	r1, r0	@ D.5338,
	mov	r0, r9	@, D.5338
	bl	__aeabi_fadd	@
.LVL33:
	ldr	r1, [r5, #28]	@ float	@, boardRotation
	mov	r9, r0	@ D.5338,
	mov	r0, r6	@, D.5338
	bl	__aeabi_fmul	@
.LVL34:
	mov	r1, r0	@ D.5338,
	mov	r0, r9	@, D.5338
	bl	__aeabi_fadd	@
.LVL35:
	bl	lrintf	@
.LVL36:
	.loc 1 72 0
	ldr	r1, [r5, #8]	@ float	@, boardRotation
	.loc 1 71 0
	str	r0, [r4, #4]	@, MEM[(int32_t *)dest_9(D) + 4B]
	.loc 1 72 0
	mov	r0, r8	@, D.5338
	bl	__aeabi_fmul	@
.LVL37:
	ldr	r1, [r5, #20]	@ float	@, boardRotation
	mov	r8, r0	@ D.5338,
	mov	r0, r7	@, D.5338
	bl	__aeabi_fmul	@
.LVL38:
	mov	r1, r0	@ D.5338,
	mov	r0, r8	@, D.5338
	bl	__aeabi_fadd	@
.LVL39:
	ldr	r1, [r5, #32]	@ float	@, boardRotation
	mov	r7, r0	@ D.5338,
	mov	r0, r6	@, D.5338
	bl	__aeabi_fmul	@
.LVL40:
	mov	r1, r0	@ D.5338,
	mov	r0, r7	@, D.5338
	bl	__aeabi_fadd	@
.LVL41:
	bl	lrintf	@
.LVL42:
	str	r0, [r4, #8]	@, MEM[(int32_t *)dest_9(D) + 8B]
.LVL43:
.L9:
	pop	{r3, r4, r5, r6, r7, r8, r9, pc}	@
.LVL44:
.L28:
	.align	2
.L27:
	.word	.LANCHOR0
	.word	.LANCHOR1
.LBE30:
.LBE29:
	.cfi_endproc
.LFE11:
	.size	alignSensors, .-alignSensors
	.global	boardAlignment_Registry
	.comm	boardAlignment_System,6,1
	.section	.bss.boardRotation,"aw",%nobits
	.align	2
	.set	.LANCHOR1,. + 0
	.type	boardRotation, %object
	.size	boardRotation, 36
boardRotation:
	.space	36
	.section	.data.standardBoardAlignment,"aw",%progbits
	.set	.LANCHOR0,. + 0
	.type	standardBoardAlignment, %object
	.size	standardBoardAlignment, 1
standardBoardAlignment:
	.byte	1
	.section	.pg_registry,"a",%progbits
	.align	2
	.type	boardAlignment_Registry, %object
	.size	boardAlignment_Registry, 16
boardAlignment_Registry:
@ pgn:
	.short	2
@ size:
	.short	6
@ address:
	.word	boardAlignment_System
@ ptr:
	.word	0
@ reset:
@ ptr:
	.word	0
	.text
.Letext0:
	.file 2 "c:\\dev\\gcc-arm-none-eabi-4_8-2014q2\\arm-none-eabi\\include\\machine\\_default_types.h"
	.file 3 "c:\\dev\\gcc-arm-none-eabi-4_8-2014q2\\arm-none-eabi\\include\\stdint.h"
	.file 4 "./src/main/common/maths.h"
	.file 5 "./src/main/config/parameter_group.h"
	.file 6 "./src/main/common/axis.h"
	.file 7 "./src/main/sensors/sensors.h"
	.file 8 "./src/main/sensors/boardalignment.h"
	.file 9 "c:\\dev\\gcc-arm-none-eabi-4_8-2014q2\\arm-none-eabi\\include\\math.h"