	.syntax unified
	.cpu cortex-m3
	.fpu softvfp
	.eabi_attribute 20, 1	@ Tag_ABI_FP_denormal
	.eabi_attribute 21, 1	@ Tag_ABI_FP_exceptions
	.eabi_attribute 23, 3	@ Tag_ABI_FP_number_model
	.eabi_attribute 24, 1	@ Tag_ABI_align8_needed
	.eabi_attribute 25, 1	@ Tag_ABI_align8_preserved
	.eabi_attribute 26, 1	@ Tag_ABI_enum_size
	.eabi_attribute 30, 4	@ Tag_ABI_optimization_goals
	.eabi_attribute 34, 1	@ Tag_CPU_unaligned_access
	.eabi_attribute 18, 4	@ Tag_ABI_PCS_wchar_t
	.file	"parameter_group.c"
@ GNU C (GNU Tools for ARM Embedded Processors) version 4.8.4 20140526 (release) [ARM/embedded-4_8-branch revision 211358] (arm-none-eabi)
@	compiled by GNU C version 4.6.4, GMP version 4.3.2, MPFR version 2.4.2, MPC version 0.8.1
@ GGC heuristics: --param ggc-min-expand=100 --param ggc-min-heapsize=131072
@ options passed:  -fpreprocessed obj/main/NAZE/config/parameter_group.i
@ -mthumb -mcpu=cortex-m3
@ -auxbase-strip obj/main/NAZE/config/parameter_group.o -ggdb3 -Os -Wall
@ -Wpedantic -Wextra -Wunsafe-loop-optimizations -Wdouble-promotion -Wundef
@ -std=gnu99 -flto -fuse-linker-plugin -ffunction-sections -fdata-sections
@ -fverbose-asm -ffat-lto-objects
@ options enabled:  -faggressive-loop-optimizations -fauto-inc-dec
@ -fbranch-count-reg -fcaller-saves -fcombine-stack-adjustments -fcommon
@ -fcompare-elim -fcprop-registers -fcrossjumping -fcse-follow-jumps
@ -fdata-sections -fdefer-pop -fdelete-null-pointer-checks -fdevirtualize
@ -fdwarf2-cfi-asm -fearly-inlining -feliminate-unused-debug-types
@ -fexpensive-optimizations -fforward-propagate -ffunction-cse
@ -ffunction-sections -fgcse -fgcse-lm -fgnu-runtime
@ -fguess-branch-probability -fhoist-adjacent-loads -fident -fif-conversion
@ -fif-conversion2 -findirect-inlining -finline -finline-atomics
@ -finline-functions -finline-functions-called-once
@ -finline-small-functions -fipa-cp -fipa-profile -fipa-pure-const
@ -fipa-reference -fipa-sra -fira-hoist-pressure -fira-share-save-slots
@ -fira-share-spill-slots -fivopts -fkeep-static-consts
@ -fleading-underscore -fmath-errno -fmerge-constants -fmerge-debug-strings
@ -fomit-frame-pointer -foptimize-register-move -foptimize-sibling-calls
@ -fpartial-inlining -fpeephole -fpeephole2 -fprefetch-loop-arrays
@ -freg-struct-return -fregmove -freorder-blocks -freorder-functions
@ -frerun-cse-after-loop -fsched-critical-path-heuristic
@ -fsched-dep-count-heuristic -fsched-group-heuristic -fsched-interblock
@ -fsched-last-insn-heuristic -fsched-pressure -fsched-rank-heuristic
@ -fsched-spec -fsched-spec-insn-heuristic -fsched-stalled-insns-dep
@ -fschedule-insns2 -fsection-anchors -fshow-column -fshrink-wrap
@ -fsigned-zeros -fsplit-ivs-in-unroller -fsplit-wide-types
@ -fstrict-aliasing -fstrict-overflow -fstrict-volatile-bitfields
@ -fsync-libcalls -fthread-jumps -ftoplevel-reorder -ftrapping-math
@ -ftree-bit-ccp -ftree-builtin-call-dce -ftree-ccp -ftree-ch
@ -ftree-coalesce-vars -ftree-copy-prop -ftree-copyrename -ftree-cselim
@ -ftree-dce -ftree-dominator-opts -ftree-dse -ftree-forwprop -ftree-fre
@ -ftree-loop-if-convert -ftree-loop-im -ftree-loop-ivcanon
@ -ftree-loop-optimize -ftree-parallelize-loops= -ftree-phiprop -ftree-pre
@ -ftree-pta -ftree-reassoc -ftree-scev-cprop -ftree-sink
@ -ftree-slp-vectorize -ftree-slsr -ftree-sra -ftree-switch-conversion
@ -ftree-tail-merge -ftree-ter -ftree-vect-loop-version -ftree-vrp
@ -funit-at-a-time -fvar-tracking -fvar-tracking-assignments -fverbose-asm
@ -fzero-initialized-in-bss -mfix-cortex-m3-ldrd -mlittle-endian
@ -mpic-data-is-text-relative -msched-prolog -mthumb -munaligned-access
@ -mvectorize-with-neon-quad

	.text
.Ltext0:
	.section	.gnu.lto_.jmpfuncs.511cb7c9,"",%progbits
	.ascii	"x\234u\217\321\015\200 \014D\357ZM\0245\216\340Z\256"
	.ascii	"\340\002\375uBw\022,\002\037\332\220\364\335]!E \370"
	.ascii	"\252+\367\000\245\252\00247^\226\235\007\335\222\022"
	.ascii	"\237@\307$a)\3539hU\225F2s\365\302\0261\0361\224\331"
	.ascii	"?\232V\337\202@\363n\272\037\343\231\317\217\244Yqq"
	.ascii	"\0137\315r\012\266"
	.text
	.section	.gnu.lto_.inline.511cb7c9,"",%progbits
	.ascii	"x\234uO\273N\303@\020\234\335\254\343\213\037\261\235"
	.ascii	"\216P\340\002)R\012JjD\033\311\037\302gP\245\274\232"
	.ascii	"*J\205\204\004?\3007 \012\012>\200\002\321@K\307\356"
	.ascii	"\235\355\002\302\335iow53\273\303`\034:\017\024\377"
	.ascii	"L\237#\206\226\223\226\254)\271\277D\272]i\357=\225"
	.ascii	"\030\015I8:%p\355\257\340\276\316\202\252\224\312\362"
	.ascii	"\235\335>\205\357\222\006\340\320\202\253U\321\224/"
	.ascii	"\204\237+Lw'\277E'E\017N\220=)\224\347\373\273Y\004"
	.ascii	"\352q\310\216\211\302VV\017\355\221dCC2C\321\364\243"
	.ascii	"ZI\266\253~\377o\221\030\215\305\271z\360\335H\316\260"
	.ascii	"\\\017\342\363\373\015\334\365\372\220\251\200\375;"
	.ascii	"1G\325\352\272\351\353y\234\365\017\261\300\342m\032"
	.ascii	"7\003/n^\226\321\204\004\027\014\376lL\234\014\214\022"
	.ascii	"\325\007\006l\375x\353F\303RR\224\303\017f\011=E"
	.text
	.section	.gnu.lto_.pureconst.511cb7c9,"",%progbits
	.ascii	"x\234cb`b\020e\200\000.\006VFI\026IVV\016\011NI.InI"
	.ascii	"\036I^)\000\015<\001?"
	.text
	.section	.gnu.lto_pgOffset.511cb7c9,"",%progbits
	.ascii	"x\234\215R\275k\024A\024\177of\366v\357+\261\025\202"
	.ascii	"\006\021,\014w\304\177E\003\011\010\2629\326u\213M\342"
	.ascii	"F\2334\231\273\213MR\270$6\232&Q\361\013%\244\260\321"
	.ascii	"\302\363\243\360\320\010ge\2649\204h'be\021\\\337\314"
	.ascii	"\354\236\336!\304\205\235\2177\277\367{\357\367\233"
	.ascii	"a\300`\360;E\377M\016p\226f\264\000Y\374\016\240\356"
	.ascii	"0\306;# \013\342\3318\310\022Ga\302\002Q-\000a\221q"
	.ascii	"\201\213S\2508\360\030lJ\271\332\335[\273zXn4b\371+"
	.ascii	"I0@\252v\002\241\2060I\033\034\325\023\023\375\345\267"
	.ascii	"X\253\233$o\357\307\225!\004\0277\211\212c\210  @n\245"
	.ascii	"\221\034m\204Mat\324*\257\206\002\015\254\230\002J\264"
	.ascii	"\261\3124\344\210\322\202%)\343Q\325S\274\332Z\337~"
	.ascii	"\216rY\326\277'\311p\2006\203\261?-\0352-\015\230b("
	.ascii	"A\241\350;C\243\222<\201L\315\274\015/\034\200\020Y"
	.ascii	"\250\216w\240\361\344\312\326\017\013\300G\261\0167"
	.ascii	"\210\316\366\221+Z'\245mC\243\2733\351\342-r7DN\231"
	.ascii	":F$\251k\273\333/\371u\331Z\332\220\373d\233\311\234"
	.ascii	":\3107bR\325\233O\233_x*8S\336zsg\314\305\273Z\203)"
	.ascii	"[C-\305\307\022u\251\330\254\344\250\356\214\231s\027"
	.ascii	"ok\264\326\363\361\347\332\260\011\373h\235\204\007"
	.ascii	"2\226\362b\200y\243\256\220\251\323\360i\314\372!E\255"
	.ascii	"#\031\233\362\217\222\215\366\017=\355\342\037\332\037"
	.ascii	"\017jw\361\036\241\016\022/t\253\337\232\237\207\006"
	.ascii	"\305\257<$\361\217\372\3043#\276\354\253\264\327\360"
	.ascii	"j\257>\236\011,+\372\334\337\334\023dlg\204k\366\257"
	.ascii	"\357y\006\314\221y\246f/\344\370h\353;X\356\205\362"
	.ascii	"\032\350\244\315-da2-\257\221+=d\221\374\241\203\276"
	.ascii	"K0\266\025\263>D\372\336\224]\331!\371\335\201z\367"
	.ascii	"S!\343\321\027\260\013Htl\277Mo\257\310\257\025\325"
	.ascii	"\253E\225\255\224\037\257T\347\243Z5t\203\231jmv\346"
	.ascii	"|\340W\347\334\310\015\275K^t\316\217f/\317Uj \246\335"
	.ascii	"y\317\216<\377t\260\340\375G\306\005\340\004\376\015"
	.ascii	"\337k\3641"
	.text
	.section	.gnu.lto_pgResetInstance.511cb7c9,"",%progbits
	.ascii	"x\234\215R\315k\023A\024\177of\277L\326&*\236-E\310"
	.ascii	"Ai\360\"xP\377\210\246X\275\310\272\304u\017\333\226"
	.ascii	"\250\027=t\266I%\330K(\210\037\275X\301\213\202R\360"
	.ascii	"\324\202\306\017\244\025\264T\361\322\036\014\210\037"
	.ascii	"\007\225^\004m\205\365\315L6\222\364\342\302\276\231"
	.ascii	"y\363~\277\367\373\275]\006\014z\237S\364\016q\200\023"
	.ascii	"\264\242\003\310\032o\000b\2071^/\200\310\2302\272\234"
	.ascii	"\031\327\363\362\364\373(\235\014\264u\221\311\254Y"
	.ascii	"Jd\354\237t\351Zi\332F\224\033@\230`\3340-\033'N\242"
	.ascii	"j\366\2205[I\362\340\361\324[;\3071B0 D0)\240EG\352"
	.ascii	"\037\"\313P\340Y\031\\\012F\037\005\223\260&\324\204"
	.ascii	"h\364\017\300\234h\3144W\347\237\242\270*\342\215$\311"
	.ascii	"\205h1( \370\010#\030\242\235W\213\263\315\253\257D"
	.ascii	"\224(Jy\303\310\344\312\227\341\231\003\020!\213\344"
	.ascii	"\365k\230\\\230\332ze\001\004h\314\302-\"\262\002\344"
	.ascii	"\222pG\233p\031&[_G<\234#Y\021rB\252\034\221Hmb\246"
	.ascii	"\365d\3769\277)\232\265\333\342O\222\240F\226\376\311"
	.ascii	"\353\327\362\214nq\304$\273W\027\253\237y\333j\352\271"
	.ascii	"9\375\350\240\207wq\200\312t[\037\225\225\000\373H\245"
	.ascii	"d3\223}J\031\323\367\036\336Q\325\312\317\217\352\375"
	.ascii	"u\324\371\000M\302\000\254\200\245\023\000\227aS\324"
	.ascii	"E>\304\214\217\332`\200\226\2444\344\316\0141\253H\326"
	.ascii	"~\255\355M9\234\003pO\"\\\2716\2048\022\342N=\252\276"
	.ascii	"tT\212\350\214\376\350\264\2667\260\004\265/\361\241"
	.ascii	"\016\217\354}C\210k\204\310E\330=\220a\232G\275\300"
	.ascii	"\227\340\305\247\370\003\366B\336[\012b\366@\014\230"
	.ascii	"v\370\012\\i}?\266\315_\336\227\023\326\376\210Hy\333"
	.ascii	"\225\002i\320/\201\253a-\276\343i\267\014\325)\321\337"
	.ascii	"\342\343\235\234\364\267\273\273\255\005\033\2075\370"
	.ascii	"\343:K\013\263\012\254\262\013\035\375n{\374f*/\220"
	.ascii	"\363U\212\334\020\367\244\204\266\3723W!nm\262\264R"
	.ascii	"?%\232%\335\311/\265\177\260x\276\342\027#/\034-\372"
	.ascii	"c\243g\303\2408\356U\274\250|\241\\9\035T\306.\216\017"
	.ascii	"\372`W\312\301Px\251\374\037\305\347\200S\361_G\341"
	.ascii	"\344z"
	.text
	.section	.gnu.lto_pgResetCurrent.part.4.511cb7c9,"",%progbits
	.ascii	"x\234]P\273N\303@\020\334\271;\007\323\245\244D\200"
	.ascii	"\322D\212;\276\304\221\240B\306\012\326\025N\"\003\025"
	.ascii	"E\316\010$D\345\022B\003H44P\363\017\274:\224\312\012"
	.ascii	"\022\037A\201\331;c\212\254t;+\315\316\314\352\004\011"
	.ascii	"Z\254.\277M\020u\030\341\021T\361\302\203\202p( -\346"
	.ascii	"\276\004\354@\240\211\022\022\223mX1\326\350\306\230"
	.ascii	"iy7\177\\9\277\316\013\363SU\320\226\212A[<\241\355"
	.ascii	"@,\344>\010SV\325\345\227\337\002R\360U\032RrS\314y"
	.ascii	"tbL\261\352,\270B\35669d\222Q\366!\034>\323\361\354"
	.ascii	"\343\363ME\270\345\263\023\210.\335\233\266\206wE\323"
	.ascii	"\334\330\251\225\0006|\311E\356\242\011g\345\323\351"
	.ascii	"\034\215P\376\013\024\273X\201\367\267\370J^\275DtD"
	.ascii	"\337\346\314\356\3701j#6g\255\306r\275\333\207tg\275"
	.ascii	"S^^\2547\262\272B\2260g\377`\243\027\354gq\220Fz\030"
	.ascii	"\304\243\341\236N\202q\224E\351\340`\220\355$\331\350"
	.ascii	"p\334\213\351\027\017\326VD"
	.text
	.section	.gnu.lto_pgFind.511cb7c9,"",%progbits
	.ascii	"x\234\215R\277k\024A\030}\337\374\272#\246\260\025\213"
	.ascii	"\004\011h\225+\305?B\2640\240\225,\313\271^\261IX\265"
	.ascii	"\022\314\334]\254bqh\023\025\343E\205# X\012\211\305"
	.ascii	"\371\0034B\016-\005\213k\202\245\226\"\222\365\373v"
	.ascii	"vCT\020\007vg\366\315\373\276y\357\315*(\3749N\363\343"
	.ascii	"\031>\3033\325@\2527\002\332uE6,\264r\2574\374\204\031"
	.ascii	"\275g\342\244\011\370\313\272U\272@&\212\355IG$8\010"
	.ascii	"KJ\033\353h\351\002I{:\206u\357o\217wG\017\217\370~"
	.ascii	"\247\347\367\362\234Z\304B\216\023b\302y\376\240\351"
	.ascii	"bR\346we\317\324p\234\347O\007\037f\352\204\210\326"
	.ascii	"\271\225\002\227\032~iK)\301\225p\215\021)\266X\366"
	.ascii	"\2767\015i\314\343\034\277\2779\314\221\342Io\2433\336"
	.ascii	"\272QRB\035\270\3761Y\024\013\001\256\343\207_\365\376"
	.ascii	"\001\253\261)\321\276\2249\322`\267z\007\235\315\233"
	.ascii	"{\214'd\356\343\036\323\\B$\342+\246\234\362\342lDO"
	.ascii	"\270mJ*\221&\214\325\2012\210\347\033\257\365]?\\\356"
	.ascii	"\373\237\234\204TF\364\210\025\376;\013n\005\354\240"
	.ascii	"\273\325\335\324\373.\303b\270\262v\"\242AiG\316\215"
	.ascii	"\203\362\204j,S\272\231|\212\277\337\341\315\227\366"
	.ascii	"\251@)\366,\016\0304\350\277\025\203\335\225\356\327"
	.ascii	"\355\243\025\253\262\247\016\027\336T\300CX\274[\025"
	.ascii	"[\360\345\353\340\263\332\244\342\304\335\366\241\252"
	.ascii	"\027\225\351\336qE\272\372\200\275O\240\277\243W\337"
	.ascii	"Y\2433\253'\345\004'W\370\221\377G\361\245B\215\244"
	.ascii	"\253?\017je\376\366\326\006\311\245\023S\20513\333\270"
	.ascii	"\222\305\2154j\3157\342\205\371K\255\244\261\030eQ\332"
	.ascii	"\274\332\314.&\331\302\265\305\331\030:k&\377A\274\214"
	.ascii	"_\370\177\267q"
	.text
	.section	.gnu.lto_pgReset.511cb7c9,"",%progbits
	.ascii	"x\234]\216?\016\001A\024\306\337\367\354\204R\253S\210"
	.ascii	"\322^\206B%\233\311\232L\261\310\242R\354\372\227(\367"
	.ascii	"\012.\300\025\\\000q\003\211\322\015V\261\336\020$^"
	.ascii	"\362f\276\231\371}\337<&\246\377\252I\237\244\233\322"
	.ascii	"(\0218\223\323\274\302\200\023\004J\030I\027/v\317\207"
	.ascii	"kQ\354\362u^.\003\021$\316\202<QP\242\034\244h\225\246"
	.ascii	"Y\235H\277,mY]N\007\354\366\322\221\026\367\345\343"
	.ascii	"\306\001\266b1`\343\\gR\237\0135\243<\335\244U\013\326"
	.ascii	"x\377j\340\011he\270\037H\364\345<\015\376q\312\272"
	.ascii	"\327\013\315\257\005\177\320w\265%NFpl\243\345\217c"
	.ascii	"\355G\201\035\370z8\350[\343\217\2028\210\302I\030\367"
	.ascii	"L<\234\216Z\232\236uC=6"
	.text
	.section	.gnu.lto_pgResetCurrent.511cb7c9,"",%progbits
	.ascii	"x\234\215\221\261K\034Q\020\306\277\357\275]\263\236"
	.ascii	"\022\362\007X\210\246\013x\\'\370/\010i\024b%\233\345"
	.ascii	"\\\267X\2255V)|\247'\004\222B\222\024\027-T,\204\024"
	.ascii	"\021\013\033\253E1DB\242i\255\016-\354RK\010\\\346\355"
	.ascii	"s\005c\343\203\235y\314\314\357\233\231\267\012\012"
	.ascii	"\377\237\021\371\256\011<\027\317.P\255\376\004\032"
	.ascii	"\201R:\257\301T\274\263>\230^M\337\205=w\241OZ\017b"
	.ascii	"Qi\317\347\342\004\013\265]\225\267;\235/\037\277n\266"
	.ascii	"\310n\305\224\320H\010O\014\0031v\000\037McV\373\201"
	.ascii	"\250\200\306\304Z\261qI\212\327'8\014\200\224\026\006"
	.ascii	"~`\351`e\347\335\004\020S\257c\215\011uL\365B\274w\263"
	.ascii	"\315\011\226\332o/+!\267\350\013\247\004-\202\2422\200"
	.ascii	"-c\336\2677\366\217\364'\22377\315\337N\207\016\035"
	.ascii	"\245\355ou\374\376\302uyw_&\265\303J\373\337\313\027"
	.ascii	"\217oGv\227\374\373\361\236\037r\233\003R\347\372F,"
	.ascii	"\226\211\031\310\234\30074\257\0325\227\222\230\325"
	.ascii	"\277\363\366\343R\224\327\264\310\237\267.s]\026z\317"
	.ascii	"\360\331<I\370H6m\030c>\010\027\224\353\026\340K\226"
	.ascii	"\022\247X\311\207\035\010\274\306\037\363\306\222\335"
	.ascii	"\321M#\241D/a\245l\350\341\254O\237\242\031\334cz\""
	.ascii	";\262c\022\366\226\200_\374\216_h\264[\203%\343\316"
	.ascii	"\230,+9\333\350\351Pu>\213\252i\230\314T\243\331\231"
	.ascii	"\251$\256\316\205Y\230\326_\325\263\3118\233]\230\033"
	.ascii	"\212\036R4\015\235\325\343\177\014\301\222j"
	.text
	.section	.gnu.lto_pgLoad.511cb7c9,"",%progbits
	.ascii	"x\234\255\223MHTQ\024\307\317\271\357k\276g\314\017"
	.ascii	"(\220\304\00271\243\320\276u\264M\250U=^\343\353\021"
	.ascii	"Oe\262U\220o>\004I\241)\332XP\212DaZ\211\320\242ZL\031"
	.ascii	"\242E\015\266\251h3 \346\302\030\243\026BI\323\271\357"
	.ascii	"\316W%\331\242\007\357\334{\317\375\337s\316\375\335"
	.ascii	"{\0310\370\375;B\377\206\014`P\213\032 \313\276\006"
	.ascii	"Hz\030\223\026Z\301\361\251/:\301\011HL\031\356\240"
	.ascii	"\221\314m@FE\210\024TEGE\344\035@\030d\222\254\2508"
	.ascii	"x\034yp\326\016\023\216\223-\254\256\275\323\306\256"
	.ascii	">\315\214;[\245\022\242\205TH\007\202\201p\214\006\330"
	.ascii	"\3466\214\252\000\276 \233u\336\236Zt2\271R\351\220"
	.ascii	"\205\022\203\330\266\322\355>7\337\225\334\362\302\245"
	.ascii	"\335\027\307SY\347\007\245\263Pfpp\247\020\367Y\256"
	.ascii	"P*=\231\313\274\331\323\202\240\343\004\266\203\204"
	.ascii	"6\202\014\026\322\216l$:\026\252^2\232\217\014\370\311"
	.ascii	"\307\002|\030\344\303\020\015\2450\227Dh\371-Z\336@"
	.ascii	"\036\271\221\013\232\310x\232\311x)\223\002\031b\322"
	.ascii	"\006\274 \372\216\222\345\360\272\221\361VZ\202g\036"
	.ascii	"\000\033\025\312\010\360\012R\353\351\257\243\007t\274"
	.ascii	"\215\012\230(\233(\001\344A\2518\264\363\360\315\031"
	.ascii	"v\"\026\372\014t\003\222S%\241\205\376:!@U\0270\220"
	.ascii	"\325t\232\205A7\315\243\241\365\321\303\334\351\275"
	.ascii	"\016\327\010P\210\2469\250p\031\320\022\244\0127&\303"
	.ascii	"\"\234\215\252\315\243\222\323S\241^\330\234\371\316"
	.ascii	"\306\234\\\355\224\303\014N\356\304\235\"\361\364\351"
	.ascii	"{\351\242T%#:\271\221\374\262\246\343]B\011 \362\032"
	.ascii	"|\367\274\310F\252\223\207\203\000\010H\363\033\037"
	.ascii	"\036Rq3.\224&\022\270\356\342\374H\376r\225\225\217"
	.ascii	"f\000\026\341\371Z\262\253\342\363\223\273VM7\305_h"
	.ascii	"\225\352q\004\004\216H\005\007\253\341\270\271\322R"
	.ascii	".Y\307\311\272*\335mi\333\000\232\235\227~\005\244\343"
	.ascii	"4\035\306N\2044\227\320\343\364\307?\010\275\314\317"
	.ascii	"\372u\234-\347~\340\022\222\005\241f*\235\207\363\226"
	.ascii	"\366\012D\305\364\024\023\032\023\2034\357\222XMnb\305"
	.ascii	"I'\036\254G!\303J\210\256c*7*\011\311\377\336\224H\243"
	.ascii	"p\342\024\362\363\227\271\351r-\002\247\311\357s\036"
	.ascii	"\206\012w\322\241J\215\341\277^ww\227\027*\332H9\200"
	.ascii	"*\034uO\240\301\020\247\304\003\232\330@R\013w\361\361"
	.ascii	"{@\342 m\315}\222\010\206\354\326\247\272\317r\031\222"
	.ascii	"\205\251}\325\363\005\361t\221\317\361\033\261?\032"
	.ascii	";\2330b\266n\365\306\214\276\336\036\313\214\365\353"
	.ascii	"\011\335\216\017\304\023'\314D\337\271\376\250\001\232"
	.ascii	"\3253`\367G;\345\001\375L\\\345&\332\365\017\013O\203"
	.ascii	"\224\210\233?\001\012\010K\360"
	.text
	.section	.gnu.lto_pgStore.511cb7c9,"",%progbits
	.ascii	"x\234\225RMh\023Q\020\376\346\275\335\315&\246\"x\022"
	.ascii	"AK\021\274e\241z\357\271w\013z\322eM\237\213lZb<)t\363"
	.ascii	"S(J!\210\227\352\245\245\210\350\301\"\022\020-\270"
	.ascii	"\376\322\012*BA\004\241\213\242\027E\364\244\024q\235"
	.ascii	"\267\233D\220B\353@\346\345\315\233\231o\276oV@\340"
	.ascii	"_\033\346\337\210\004<>\311\004\211\366K\240n\013a,"
	.ascii	"\357CX\220k\016\302\242$#\013\033D\372\017\010SB\032"
	.ascii	"4u\214t\0171\204\2050l\307O?\377\264\346.?l\315\207"
	.ascii	"\277\222\204\310'\306;H\360\010G\371B\203\351!\014\256"
	.ascii	"\320\005\355v\370\340\344J\330\212\222d\304')\340l\232"
	.ascii	"\272\231\245x\227\242\365g\263{.\3147\332\341o\206\363"
	.ascii	"\311\0208\274U\213%\021\305I\362\256\323z\276w\200\340"
	.ascii	"\322\002\015AR@0\340\223i\262\203\305W\312\261\0236"
	.ascii	"_\255<g]\343\254\002Gd\221#9nc\242\305\204\007]Z\344"
	.ascii	"\027hL\266#\354\265:c$\364)W\361\310\006\0022\002\375"
	.ascii	"\374\002\215{\323wfG\001E\306U\\\341\341lER\017\231"
	.ascii	"\357\256e\025\215\370\326\207\335.]\347M\004dri\032"
	.ascii	"\264{\214\343\037\267\037\313\2710\372\2530\227\236"
	.ascii	"\330\2123w\322\360\315\373\315O\262;x\217At\361\315"
	.ascii	"\367\274K7R\026\031\256G)\031EE\236S\267\313%\373\263"
	.ascii	"\361\27767(\313Qd\362;\260\202'\037\353\353\375\240"
	.ascii	"\2454R\317\306Hb\315a\025\032\321\214\374/N.\335d\011"
	.ascii	"\267A*\2031\272j7\276\275\357\234\317\200\262\305(M"
	.ascii	"\345\025\246\343\245\346\316\336\214\3669l\2043\341"
	.ascii	".\237\012\036e\272\363\026\024\345|\332\321eY\351\345"
	.ascii	"\346\273\015\254,\000\364k\213\036\223\313j\013J\357"
	.ascii	"1\357\323\000\360\032\365\370\356b_\217T\310\267 VF"
	.ascii	"|\351,3\212)\323\357\204\364\304\032\374@\3119S\365"
	.ascii	"\234\300\365+\2167Q\031\367\2253\351V\335\240\\+W\217"
	.ascii	"\253\352\304\331\311\222\207\234?^\013&K\303F\315=]"
	.ascii	"\266\264+\035\332F\341)\310jY\375\001\302\267\347f"
	.text
	.section	.gnu.lto_pgResetAll.511cb7c9,"",%progbits
	.ascii	"x\234\215R\335KTA\024?g\346~\357\207\276\366\020\210"
	.ascii	"\025\021\201\373\024\021\375\005\275'\030\004q\331\326"
	.ascii	"\333\205Ve+(zp\326\273\222\320\007\213=hE\340&\011>"
	.ascii	"\204OQV\324\332\007\031e\341[B\320\242To\205o\222\341"
	.ascii	"vf\346\336\305,\252\201{g\346|\374~\347\374\3460`\260"
	.ascii	"u\235\243o\221\003\034\245\035S\200\254\372\026\240"
	.ascii	"\3540t\365\2013S\354\001\341\031\325] \322\006\332\322"
	.ascii	"\214&:\332mi\303\234c3\353\322K\240@\247bS\240\243\363"
	.ascii	"\347\034\227qm\367\224\335C\224v@\030d\3340-\333q=\034"
	.ascii	"<\202\262\024\326\0115!F\033/\276\255\361k\242^\231"
	.ascii	"\020?\232M\304\020\251\354\335\010y\204\036\272`\207"
	.ascii	"\332\230\361k\037*\267Z\037\2730\266ML\014U\305\006"
	.ascii	"\245\206\310\031\354\375W\346\014\2537\232\315\017\367"
	.ascii	"*O\267\267!\370X\303N\"\364q\222v\033B4\334\370\342"
	.ascii	"a\021!\035_2qd\226\"LB1\241B\374\035 \311h\035\246\377"
	.ascii	"C\204nd\264\361W0\324x\274\322\026\307\350D \200\333"
	.ascii	"*5F:\017\337\305\270\0207\251D\253\210\330\252\257\033"
	.ascii	"9|\316\362\005\030z0\274A\346\000\355\033p\235\242\354"
	.ascii	"\000\261G\313\243\226dy\262\222\362q\212`\213\310\002"
	.ascii	"\011BF'Vg\264\261z\367\331\026e}\274E%\376] \202\002"
	.ascii	" \372\257\321r\266\325\246>\324_\177\\5}\234\216\373"
	.ascii	"\221\304y]z\200Y*\024`\036*_\312\007\264\213l\022\337"
	.ascii	"\334\014\336\215\006Tl\032\300%p\245\223N\374\321\354"
	.ascii	"}\224\036\023\226m\376\016\206\033\363Q\334\025(\225"
	.ascii	"FD{\210N\036u\337\261\012\224\030\242\233\200Z@S\247"
	.ascii	"r\337D\331\226\356\223\233\352T\353\217h\0012\205\264"
	.ascii	"\000\321H4se\232\373xGU\237&\217\242B\2456\323v\015"
	.ascii	"K\336\204\333\006\032q\324\302'N&\225x\376\251|0\301"
	.ascii	"\242\327\361\022\015\226\200n\256A\304ik|\237\204p\364"
	.ascii	"\213G\027\243\365\313\263<Q/\023\267\312\332\023\376"
	.ascii	")\305_S\024\231\204\337\205Z;O\350\265\017c\372T\002"
	.ascii	"\205\361\264]\265\324\264\361M/\262\004\370\373(\262"
	.ascii	"5\232\266\2143\276_\022xr\246\027\241\334x\277\2435"
	.ascii	"\303\240\247\036\311%\205\334\331\225;U\312\347\212"
	.ascii	"~\330\227\313\367\367\365\206An\300/\371\305\302\351"
	.ascii	"B\351XP\352?3\320\225\007^*\004\351\201R\177ox\262p"
	.ascii	"\250\357x\341\354\177d\235\200\237*\345\011s"
	.text
	.section	.gnu.lto_pgActivateProfile.511cb7c9,"",%progbits
	.ascii	"x\234\215SKk\023Q\024>\347\336y\245\223\246\005q\341"
	.ascii	"FJ\025\\\024\222\245\024\377\202;\215\324\225\214C\034"
	.ascii	"g\2216\214u\345\242w\362@\305RB]\330*Bc\261\240\010"
	.ascii	"\272q\341\223\010\202\226\342s\247(\004\305\215B\021"
	.ascii	"\\4h\351x\356\334\231\020\025\324\013\311\3349\367;"
	.ascii	"\3379\337w\3170`\360\373:D\277\263\034\340\000=\321"
	.ascii	"\002d\315\347\000\241\305\320P\033\316\264\331\355 "
	.ascii	"\006\364\3728\210\254\206\272\012\353\352\374\221e0"
	.ascii	">\373\004\010`\326M\002\230\2102\016\0103\214k\272a"
	.ascii	"\342\314a\224u\330(\264\204\230\35746\272|Q\264\353"
	.ascii	"Kb3\212\020}\244\236\366 \270\010\023\364\202#\361\203"
	.ascii	"i\2776\251r\333\017N_\330!\226\252M\261E\251>r\006c"
	.ascii	"\377\312\274\311\332\235(\272\177\257\376z\347 \202"
	.ascii	"\203-\034\005\035|\324\014,#\230\264\323-\012/S8C/\206"
	.ascii	"\235`\262\364bR\276\016u!\232# \313\320:H\377\244\263"
	.ascii	"\210\214\036|\025\252\235w\037\207\022\214J\004\"\270"
	.ascii	"\212:\304\033\0318\005\337\305\202\020\227\2519\253"
	.ascii	"\214\330\353\254\210\034\3109\376\014\252w\033[\024"
	.ascii	"\367P\277\004\027\011\226\361\020'\2243\361\222e\336"
	.ascii	"\327r\016\256\020o\031\231'Y(h\245\306t\036\336^C1/"
	.ascii	"\302\257Q4\344K\231W\250\301\277\033C<\000T{\275\366"
	.ascii	"!\327\023\2516\355\265\365\320t\360Z\242FVuU\343\036"
	.ascii	"f=\251\355)<\376\024\216\253#\212I~\263\237\274\210"
	.ascii	"\032,n\223\322\276\324~\314\355\357\031\264\334G\031"
	.ascii	"\323\231\036\032\000/\240\321\316;x#f\263\244ag\304"
	.ascii	"\260\217\003.*\007H0A}\264\245l\246\200\212\214\340"
	.ascii	"\261\212\267\335\215\227,e\310\214\301u\231\237Uv\016"
	.ascii	"\246v\306\353h\357\006(m\365VN%\0212\024B\354\243\241"
	.ascii	"\242|\211\316&\225\255T\221\236\334V\355\\\355\333\334"
	.ascii	"\035\236\212\267\023v6\014Iw+qw\255\270;;\3156\200>"
	.ascii	"\013\256.-=\304\304H;\345\302dV\316\033\361\254\360"
	.ascii	">G\337\000\3769H\254K\376\331\372\302^Y\301\224\023"
	.ascii	"\371\012\302\316\347]\275\011\0045\263HG\322\311\335"
	.ascii	"\371\302\211\300-\224\035\177\262\340NM\036\363\275"
	.ascii	"B\305\011\234ri\272\024\034\361\202\251\223\225\274"
	.ascii	"\013<(y\2742\035\374\007\3708\374\004z\332\362+"
	.text
	.section	.gnu.lto_.symbol_nodes.511cb7c9,"",%progbits
	.ascii	"x\234M\212\273J\304`\020\205\317\314\237?\367\213n\031"
	.ascii	"\013_\307\327\360I&D\210am\004k-\354\367\021\226\205"
	.ascii	"\210\226\332YYh\202\210 \370\004^&\311\222d\212\371"
	.ascii	"\346;g\030\214\023\3028l\005\270|\004D\256\353Sv\205"
	.ascii	"f\263\007z\300\036\222n>\022\236\032bG\314\336nj\262"
	.ascii	")\367\177\211\351\377<q\346\206}\261\013\013\304]X("
	.ascii	"\336\302\"\361\027\026K0\033\255$\034\255(\2102\211"
	.ascii	"&1\224\241{\373U\246\350\036>\310!\\\255\377r\243l^"
	.ascii	"5\366\201\333\201{\017\010\355\373\223\322AY}[\023b"
	.ascii	"\314C\315\007\002\345\305\217\346)\356zF\332W_\307&"
	.ascii	"Jqv\256\214}4\233\227\274g\273\275\337\031\223\000\355"
	.ascii	"\347\263\305?\201\277^R"
	.text
	.section	.gnu.lto_.refs.511cb7c9,"",%progbits
	.ascii	"x\234cb`b\220d\200\000&F&&&f&V&6&v&\0360\311\013\"\031"
	.ascii	"\000\010R\000\201"
	.text
	.section	.gnu.lto_.decls.511cb7c9,"",%progbits
	.ascii	"x\234\305Y\015l\024\307\025\236\331;\377a\027\014\004"
	.ascii	"\004\212\024LDR\224\012\033\"T!Z\305%T\011\250UB\240"
	.ascii	"\251\252\310\355e\271[\037\247\332\347\343\356LB\244"
	.ascii	"(\203\011\016\242j\3428\240\202\222`\003&8\212\011\220"
	.ascii	"\330q]DX\205b\214I]\010M)\230\210#\265)\245Jk'\2451"
	.ascii	"M\360\365\315\354\354\355\356\334\356z\355\252\352J"
	.ascii	"\317\267;;\357\357{\337\374\354XB\022\032\360#\224\206"
	.ascii	"\353\341\022\204\036\364!T\210\020z\000\004\203\300"
	.ascii	"+v\025\201\354\001\351\007\031\000\271\0012\0042\002"
	.ascii	"2\0122\031:\337\011r7\310\275 K\261\246\373}\370]\011"
	.ascii	"\362\003\220G1\262\\\324\036\365\265\217\352s\037>\356"
	.ascii	"\263\023\3441\350\277\032\244\015\356\327\300\357A\036"
	.ascii	"\223\312\373Q\375\037A\303\023 9p\377G\220?\201\374"
	.ascii	"\014\236\003 O\012\376h\354wp]\332\277\034\244\327\344"
	.ascii	"\217\372\322\343\240>ex\376\016\310Z\220 \367\037\202"
	.ascii	"_\005\244\022\244\012\344\014\264I 'Az\270\255~\036"
	.ascii	"\327R\216E.<\247@\256\202T\363\330t\\\314\027\305u\022"
	.ascii	"\217E\217\343\004\307'\312\375\323\270j\340\3762\307"
	.ascii	"\342\003\356\177\200\373\245m\327\255fY\255\362\270"
	.ascii	"\256\031g\352'\006\012\353y\034\022\357\033\347\265"
	.ascii	"\373;\322j\266\201\327\317|\321\332\347r\1774\276\247"
	.ascii	"\340f\257)6\304}\014!\2037\324\376\277@n\012\361Q\016"
	.ascii	"}\203\367\247\266\314u\327\343\325\353\257\333\177\032"
	.ascii	"~\007\221\301\007?\267C\271\240s\224\332\373\032d\243"
	.ascii	"\015\027(g\247s=\335\3073\234GzNT\277\205\343$\346\267"
	.ascii	"\236\307\267\332\304\007\3041\0315\345\374,\326\270"
	.ascii	"@y\220O\353@\371\000R\0102\211\266\201l\006y\236\363"
	.ascii	"\302|M\346|\264\213Q\307J\347m\233)Fs<~n\207\306@c\322"
	.ascii	"\3718\003~g\201\314\006\231\011\262\305\306?\035\317"
	.ascii	"\224\217\346:\370\271oZ\243\030\257S=\310\260\251\346"
	.ascii	"w\36219\304\373\317\341c\377I\033\036\335\315s4\373"
	.ascii	"\320\261\247]O\010\276\364\034\365\361\240\217\001\037"
	.ascii	"\267\365\004\317\223\372\235\347\342w\016\332M\324\241"
	.ascii	"\324\340G\333g\223\346Mj:]\236?\023\355 \364\252'\004"
	.ascii	"\307\013\3216B\352Hs=Y\3213\271\000m\245\017\251\375"
	.ascii	"d\326N\010\362'X\306\320\226\317n\212\012X\014\367\240"
	.ascii	"\026B\032RM\177\275$\021\222/\343\026\\\000|\3779F\367"
	.ascii	"\2417\301f\003!\237.\025B`\227w\3237_\330]\306L\267"
	.ascii	"2\323}\030\303\004u\000\337\307\015\311\030\232M\027"
	.ascii	"{\326;Pk\3545\277I[C\031\263/\017\253D\017\313\317\325"
	.ascii	"\366\341B\335\006\357R\254w\221x\227\275x&'\006k\261"
	.ascii	"\340:\015\275L\001o\006\300{\214\344\011\326m\024\033"
	.ascii	"\331\017\277\330\356\203\354\271F\211cw\031\277\215"
	.ascii	"\357Acv\223\320m\206\337a<\215'\316\374\020\265i\017"
	.ascii	".\321\232\221\005^\3135\027A\310u\352\221\317TL\266"
	.ascii	"\025\361\022\002o\346\267N\266\007BKB\275\330J\215\267"
	.ascii	"\263\372m\223\254\365\363l%\325\324\365g\215c\235\314"
	.ascii	"P\303\204\015\335|\341\300w\231\241\3370C\273$\221Q"
	.ascii	">\201Q>+K|\005\306M:\355C\377\303\316\022j\221\364z"
	.ascii	"\331e\304o-T\264\024+5\334\327v\327N\242\326\371t\334"
	.ascii	"Z\307m\260\330R\375v\245g\2416\002$tP\264e\031)v\266"
	.ascii	"J,\266:o\367`\322Xd\031\034\232m\247\221w\302\030y\022"
	.ascii	"\352\360\342>\337\011\033\242\036\377\244\250A\236\216"
	.ascii	"\032\331`\3145\015\232,\267\335x\272u\274t\315\220\264"
	.ascii	"\326\261\207\313Q-I\031\227\027B\337\337b\211\333\363"
	.ascii	"\012\231\325\332\261\256\323Y\220Yfp\031?0\303m0\276"
	.ascii	"\372,\214\30530;I\250K`\2767;4\343>\320\3275\371\014"
	.ascii	"\307\362\313\334\373\013\264\337\307\255\214\317\020"
	.ascii	"\337l@\306\277\307>\201%\002\376\275\346\262\237daO"
	.ascii	"\000Bd\330\350\0317uJ\262r\240\321\313\370\035\230w"
	.ascii	"e\374.\236\013\177\337g\177U\366\367\003\366\367$\374"
	.ascii	"5\271\355\313\232k\264)\327d\325\230\232\221W\273N\250"
	.ascii	"\265\031\250e\012\323\202\263+#\241~!\256yh\037!\215"
	.ascii	"\251\301\306C\260M\2204K\360\301\304z\355\301sl=r\177"
	.ascii	"\232*\371\362\247\263\364\335\300uQ\315\262\314gB\272"
	.ascii	"\027\355\247\224>?\260j\205\276\302:;\343\031~\214%"
	.ascii	"3z\332\356F=v\023F\3346\3625\235B\275s\372\262u\305"
	.ascii	"\326\322\311<\360%_\300\355\246-n\344\274\262BS\227"
	.ascii	"\361\0056\336\373=a\226VV\3503\353\026\037vU\343\341"
	.ascii	"0\314\0109JV\315b\271!\256da\324\025\033\220R\352+\365"
	.ascii	"g6M\000\245A;\224\004T\266\371lQyWDe\300\035\025\236"
	.ascii	"^\003\371%\331R\2143\371\015\210\371\375%;\277\346\224"
	.ascii	"\372E\373i\236\336fHJ\314\260\315Xc\262R\374\233\230"
	.ascii	"b;\333&ZRl\266Oq\207<_\357~\214\245x\303H\321\342G\353"
	.ascii	"\2052\254\357g\254o\343\254\277\341\316\372\317\262"
	.ascii	"\023N\015\251\267.\026\235%\251tz\216\367b\016\273R"
	.ascii	"\336f\016\227\320\001\207\304\305\332\016y`|\003\351"
	.ascii	"\244j~\012\327\3051\264\374\006ZD \304\220H\210\177"
	.ascii	"\332\022\242\261[\303\247\351{\336\001\272\345\201\355"
	.ascii	"\207<\262}\304\023\333\305\344F\304\344\276\262M\256"
	.ascii	"\275{\334\305O{(~\346qY\241\345Qxk\313\224\367\355q"
	.ascii	"yE\304e\324\023S:\004\2468k\321`\270\257]\335E\015\230"
	.ascii	"\005\017\273\006\026\216\263\3322\303\3271M\215y;\356"
	.ascii	"\325[\003\031\316\250I\250w\014o.t\036\025+\276E\262"
	.ascii	"\253\370\305\356^\247\351\033\214;\025\375%\311\255"
	.ascii	"\350\345\256U\266\337:|\344\261\314/J^\226\300.\252"
	.ascii	"VN\353u\211\331u\326*7\352u1\303\215\343c\2702qcGw\341"
	.ascii	"B-'\235R&5\227\035\012!o\325o)\366st\234\235q\300\267"
	.ascii	"\333\026\357V\375\231\011\254\275\257\211\305\363g\255"
	.ascii	"K\237\330U\243\201\364\207Vpb^g\035^uE\310\201\230T"
	.ascii	"\311B\314\335\266\271\265\237\342S\221\0260l\222\354"
	.ascii	"c\272\025\262\216\350\275\023\211i\257\030\323\276\354"
	.ascii	"\230R\207SM\237\216\324\341\22777\267\222\241tz\312"
	.ascii	"f\322\374-\001\365r\273\355\000\303YBg\374X\007]B\347"
	.ascii	"\341\201\343\177\027\352\367\277N\362\021\262Fp@\254"
	.ascii	"\222\371\273\3102\217\362#\013\355#\316~\033\317\217"
	.ascii	",\276\272\226Z\3726!\3052>\"\321\310\016\345\210\337"
	.ascii	"\0219\302\231E\216\365d!\247\300\270\241\377\363\230"
	.ascii	"b\015\221\241i\242\321{\026\373<\365c9&\034N\346\330"
	.ascii	"\035\353e\343\336\263\331\214\373Y\357\270\313\370M"
	.ascii	"VJ\376\360\226D9\322&\031d\227\361Q7\244\205\311\213"
	.ascii	"\342\206\262&\257\336\354<e\334i\366\333e\345\223x\335"
	.ascii	"\215\366\220!zLw\352*n$\315;U\242\246\323x\316T\324"
	.ascii	"\300\016\342v\032g\250\252\343A\247\214\367\263oH\217"
	.ascii	"\007\227\206\355\314\304\304\3618%Mu\010SB\347\004\306"
	.ascii	"\320\376=FnZ\036\352\356n(\313a\262\211\244\323\317"
	.ascii	"\301G&\330\223\3205\033\315\336,\315_u\277\216\311\236"
	.ascii	"\272:2\012\371\353!\322\323\234\203\246\017\\s\373!"
	.ascii	"S\273\214\177\347\022\372-\233\000\372\262\002\330N"
	.ascii	"Co\330\304C\377\220\205\376\213\334l\315\263\206&\253"
	.ascii	"\015q=2\244\032\3474\352\260fz"
	.ascii	"Oh\216\364\302\317\351MiZ\240\314\011\244\352hN\306"
	.ascii	"\277f\245\036\353\334/s\274\243\262\0231Zf\247\217|"
	.ascii	"\323Y4\373\262;\013d|o\311.\242\326Q$\346\012\343\255"
	.ascii	"\023;\357\015>\266\333\033\010\003\246)\327v\265\277"
	.ascii	" \256\366\177p_\3553\337=\303\251U\363\265\250\220U"
	.ascii	"K\210\216\275\276\220=\267\253g\325K\012\233]^j\316"
	.ascii	"\327R\220\320\033\366A^\021\203\2744\241 /\271\007\331"
	.ascii	"o\015\362\233\350\015@?u\362\337[go\365[\216d\314\357"
	.ascii	"\311;\315\305\343})\234\232\322\311\320\211#W\245\302"
	.ascii	",-\215Y\306n#K\211\035Wf@\324\217I\353-\377\263p9(e"
	.ascii	"\023\014;\253:m>\253\022\242\246S\214\223\255\001\233"
	.ascii	"\2505\255\003.\271\016\032Z^\326\032\031\267\2625E\306"
	.ascii	"\327$\373\377\330<?>\240\354\325\037tV_f\256\253\353"
	.ascii	"z%\324\216\036\342z80\365F\"u<G\357B9.\273\004\362\017"
	.ascii	"\307\"~\350R\372!C\313\323\254\332\341iV\315\314\217"
	.ascii	"\035\306\374\250\317\031G\354\347\214s\342\234\361\371"
	.ascii	"\204\346\214\317\335\347\214/\3067g\010@\356u\201\377"
	.ascii	"KG\370\007]\264F$o\354\341\013\250\306\036\227\015,"
	.ascii	"\375?\260\304?@:r\0356\216\374c\300\250\237\237.\265"
	.ascii	"\204\214\030K\255_\333\274\346\031\245\354\353(sZ\352"
	.ascii	"Z\\\226\272Q\017K]\227=#\372EF\334\366\310\210+\227"
	.ascii	"W\315\322wl\026-\313f\220\007H|\377\237Ud\330\205\025"
	.ascii	"\365>Cw^iY\"\036,\253\226#\321\262`M\2642\022.\213\311"
	.ascii	"q\271ZI*\361@8^S\033+\015\242\345\301\245\025!eCE8\030"
	.ascii	"\\ \307\253\027Dk\242\312\002E^\033Y\2608\260d\301\375"
	.ascii	"\013\027-^\177\177\205\345EE$\032\254\252\015)\025\211"
	.ascii	"d(\022M\226\256Cy\265\360\273$\220\314}\370\221\307"
	.ascii	"K\226\2435\0237Y-\007\327E\242JE \244T\312\265U\311"
	.ascii	"@rcLI\200\213\202@\200;\361\220\325:T\024\013\257V\302"
	.ascii	"\221D2\2761\220\310\211\205\243\201d>\325_\364\355@"
	.ascii	"r\222f\212\336\372\340\215?\021yF\311\223C\241\270\222"
	.ascii	"H\370b\311x!\325M(\311\207j\243A\2512\232\023\247\017"
	.ascii	"f\203\311\374X\370\321\312Jh\365\305\225pQ,^S\031\251"
	.ascii	"RVFC\312\323S\270\356\312h\")G\203\212\177\255\234P"
	.ascii	"f\360\306\345\265\361\270\002\200A\270\311\322\305\271"
	.ascii	"\261\360C\221h(\217\277\234l\355\004o\177X#\207\374"
	.ascii	"\225\361\232\352\274\015J<\021\251\211B\3275\311\232"
	.ascii	"\270\"%k&\361\336\313\252\252t\377\313kj\243\311\251"
	.ascii	"\261\360\262`2\262AN*\253x\363\177S\337x$\032\246\365"
	.ascii	"\205w\321\332\252\252\274\312hI\"\246\004\361\242\307"
	.ascii	"\274X\255\212\254\245\035\004\353\213K\227\224.6s\010"
	.ascii	"J\015>ri\031\200B\325Ju0\266\021<&\327\305k\236\362"
	.ascii	"W)r%m\203\\\357\010\004b\341\000\253FHN\312\001@8\236"
	.ascii	"\234&4*\321\320T\336\304\253\005-\323\255-L\021\000"
	.ascii	"^\003\036\001\310\225\2115\033\023I\245\032\310\360"
	.ascii	"\210\017\210Q\020\013\377X\003\374?\376Tb#"
	.text
	.section	.gnu.lto_.symtab.511cb7c9,"",%progbits
	.ascii	"pgFind\000\000\000\000\000\000\000\000\000\000\000\000"
	.ascii	"\352\000\000\000pgReset\000\000\000\000\000\000\000"
	.ascii	"\000\000\000\000\000\360\000\000\000pgResetCurrent\000"
	.ascii	"\000\000\000\000\000\000\000\000\000\000\000\370\000"
	.ascii	"\000\000pgLoad\000\000\000\000\000\000\000\000\000\000"
	.ascii	"\000\000\376\000\000\000pgStore\000\000\000\000\000"
	.ascii	"\000\000\000\000\000\000\000\016\001\000\000pgReset"
	.ascii	"All\000\000\000\000\000\000\000\000\000\000\000\000"
	.ascii	"\033\001\000\000pgActivateProfile\000\000\000\000\000"
	.ascii	"\000\000\000\000\000\000\000\"\001\000\000__pg_rese"
	.ascii	"tdata_start\000\000\002\000\000\000\000\000\000\000"
	.ascii	"\000\000D\001\000\000__pg_resetdata_end\000\000\002"
	.ascii	"\000\000\000\000\000\000\000\000\000I\001\000\000__"
	.ascii	"pg_registry_end\000\000\002\000\000\000\000\000\000"
	.ascii	"\000\000\000K\001\000\000__pg_registry_start\000\000"
	.ascii	"\002\000\000\000\000\000\000\000\000\000O\001\000\000"
	.text
	.section	.gnu.lto_.opts,"",%progbits
	.ascii	"'-mthumb' '-mcpu=cortex-m3' '-ggdb3' '-Os' '-flto' "
	.ascii	"'-fuse-linker-plugin' '-ffunction-sections' '-fdata"
	.ascii	"-sections' '-fverbose-asm' '-ffat-lto-objects'\000"
	.text
	.cfi_sections	.debug_frame
	.section	.text.pgResetInstance,"ax",%progbits
	.align	1
	.thumb
	.thumb_func
	.type	pgResetInstance, %function
pgResetInstance:
.LFB6:
	.file 1 "./src/main/config/parameter_group.c"
	.loc 1 47 0
	.cfi_startproc
	@ args = 0, pretend = 0, frame = 0
	@ frame_needed = 0, uses_anonymous_args = 0
.LVL0:
	push	{r4, r5, r6, lr}	@
	.cfi_def_cfa_offset 16
	.cfi_offset 4, -16
	.cfi_offset 5, -12
	.cfi_offset 6, -8
	.cfi_offset 14, -4
.LBB34:
.LBB35:
	.file 2 "./src/main/config/parameter_group.h"
	.loc 2 52 0
	ldrh	r4, [r0, #2]	@, MEM[(const struct pgRegistry_t *)reg_3(D) + 2B]
.LBE35:
.LBE34:
	.loc 1 47 0
	mov	r6, r0	@ reg, reg
.LBB37:
.LBB36:
	.loc 2 52 0
	ubfx	r4, r4, #0, #12	@ D.4835, MEM[(const struct pgRegistry_t *)reg_3(D) + 2B],,
.LBE36:
.LBE37:
	.loc 1 50 0
	mov	r0, r1	@, base
.LVL1:
	mov	r2, r4	@, D.4835
	.loc 1 47 0
	mov	r5, r1	@ base, base
	.loc 1 50 0
	movs	r1, #0	@,
.LVL2:
	bl	memset	@
.LVL3:
	.loc 1 51 0
	ldr	r3, [r6, #12]	@ D.4832, reg_3(D)->reset.ptr
	ldr	r2, .L8	@ tmp123,
	cmp	r3, r2	@ D.4832, tmp123
	bcc	.L2	@,
	.loc 1 51 0 is_stmt 0 discriminator 1
	ldr	r2, .L8+4	@ tmp124,
	cmp	r3, r2	@ D.4832, tmp124
	bcs	.L2	@,
	.loc 1 53 0 is_stmt 1
	mov	r0, r5	@, base
	mov	r2, r4	@, D.4835
	mov	r1, r3	@, D.4832
	.loc 1 58 0
	pop	{r4, r5, r6, lr}	@
.LVL4:
	.loc 1 53 0
	b	memcpy	@
.LVL5:
.L2:
	.loc 1 54 0
	cbz	r3, .L1	@ D.4832,
	.loc 1 56 0
	mov	r0, r5	@, base
	mov	r1, r4	@, D.4835
	blx	r3	@ D.4832
.LVL6:
.L1:
	pop	{r4, r5, r6, pc}	@
.LVL7:
.L9:
	.align	2
.L8:
	.word	__pg_resetdata_start
	.word	__pg_resetdata_end
	.cfi_endproc
.LFE6:
	.size	pgResetInstance, .-pgResetInstance
	.section	.text.pgFind,"ax",%progbits
	.align	1
	.global	pgFind
	.thumb
	.thumb_func
	.type	pgFind, %function
pgFind:
.LFB4:
	.loc 1 26 0
	.cfi_startproc
	@ args = 0, pretend = 0, frame = 0
	@ frame_needed = 0, uses_anonymous_args = 0
	@ link register save eliminated.
.LVL8:
.LBB38:
	.loc 1 27 0
	ldr	r3, .L16	@ reg,
.LVL9:
.L11:
	.loc 1 27 0 is_stmt 0 discriminator 1
	ldr	r2, .L16+4	@ tmp142,
	cmp	r3, r2	@ reg, tmp142
	bcs	.L15	@,
.LVL10:
.LBB39:
.LBB40:
	.loc 2 50 0 is_stmt 1
	ldrh	r2, [r3]	@, MEM[base: reg_1, offset: 0B]
.LBE40:
.LBE39:
	.loc 1 28 0
	ubfx	r2, r2, #0, #12	@ tmp141, MEM[base: reg_1, offset: 0B],,
	cmp	r2, r0	@ tmp141, pgn
	beq	.L14	@,
	.loc 1 27 0
	adds	r3, r3, #16	@ reg, reg,
.LVL11:
	b	.L11	@
.LVL12:
.L15:
.LBE38:
	.loc 1 32 0
	movs	r0, #0	@ D.4854,
.LVL13:
.LBB41:
	bx	lr	@
.LVL14:
.L14:
	mov	r0, r3	@ D.4854, reg
.LVL15:
.LBE41:
	.loc 1 33 0
	bx	lr	@
.L17:
	.align	2
.L16:
	.word	__pg_registry_start
	.word	__pg_registry_end
	.cfi_endproc
.LFE4:
	.size	pgFind, .-pgFind
	.section	.text.pgReset,"ax",%progbits
	.align	1
	.global	pgReset
	.thumb
	.thumb_func
	.type	pgReset, %function
pgReset:
.LFB7:
	.loc 1 61 0
	.cfi_startproc
	@ args = 0, pretend = 0, frame = 0
	@ frame_needed = 0, uses_anonymous_args = 0
	@ link register save eliminated.
.LVL16:
	.loc 1 35 0
	ldrh	r2, [r0, #2]	@ D.4866, MEM[(const struct pgRegistry_t *)reg_4(D) + 2B]
.LVL17:
.LBB48:
.LBB49:
	.loc 1 39 0
	ldr	r3, [r0, #4]	@ base, reg_4(D)->address
.LVL18:
	.loc 1 40 0
	tst	r2, #32768	@ D.4866,
	beq	.L19	@,
	.loc 1 41 0
	ubfx	r2, r2, #0, #12	@ D.4869, D.4866,,
	uxtb	r1, r1	@ D.4869, profileIndex
.LVL19:
	mla	r3, r1, r2, r3	@ base, D.4869, D.4869, base
.LVL20:
.L19:
.LBE49:
.LBE48:
	.loc 1 62 0
	mov	r1, r3	@, base
	b	pgResetInstance	@
.LVL21:
	.cfi_endproc
.LFE7:
	.size	pgReset, .-pgReset
	.section	.text.pgResetCurrent,"ax",%progbits
	.align	1
	.global	pgResetCurrent
	.thumb
	.thumb_func
	.type	pgResetCurrent, %function
pgResetCurrent:
.LFB8:
	.loc 1 66 0
	.cfi_startproc
	@ args = 0, pretend = 0, frame = 0
	@ frame_needed = 0, uses_anonymous_args = 0
	@ link register save eliminated.
.LVL22:
	.loc 1 67 0
	ldrsh	r2, [r0, #2]	@ MEM[(const struct pgRegistry_t *)reg_2(D) + 2B], MEM[(const struct pgRegistry_t *)reg_2(D) + 2B]
	.loc 1 66 0
	mov	r3, r0	@ reg, reg
	.loc 1 67 0
	cmp	r2, #0	@ MEM[(const struct pgRegistry_t *)reg_2(D) + 2B],
.LBB56:
.LBB57:
	.loc 1 70 0
	itet	lt
	ldrlt	r3, [r0, #8]	@ reg_2(D)->ptr, reg_2(D)->ptr
.LBE57:
.LBE56:
	.loc 1 68 0
	ldrge	r1, [r0, #4]	@, reg_2(D)->address
.LVL23:
.LBB59:
.LBB58:
	.loc 1 70 0
	ldrlt	r1, [r3]	@, *_9
	b	pgResetInstance	@
.LVL24:
.LBE58:
.LBE59:
	.cfi_endproc
.LFE8:
	.size	pgResetCurrent, .-pgResetCurrent
	.section	.text.pgLoad,"ax",%progbits
	.align	1
	.global	pgLoad
	.thumb
	.thumb_func
	.type	pgLoad, %function
pgLoad:
.LFB9:
	.loc 1 75 0
	.cfi_startproc
	@ args = 4, pretend = 0, frame = 0
	@ frame_needed = 0, uses_anonymous_args = 0
.LVL25:
	push	{r3, r4, r5, r6, r7, r8, r9, lr}	@
	.cfi_def_cfa_offset 32
	.cfi_offset 3, -32
	.cfi_offset 4, -28
	.cfi_offset 5, -24
	.cfi_offset 6, -20
	.cfi_offset 7, -16
	.cfi_offset 8, -12
	.cfi_offset 9, -8
	.cfi_offset 14, -4
	.loc 1 75 0
	mov	r4, r0	@ reg, reg
	.loc 1 35 0
	ldrh	r0, [r0, #2]	@ D.4896, MEM[(const struct pgRegistry_t *)reg_6(D) + 2B]
.LVL26:
	.loc 1 75 0
	mov	r8, r2	@ from, from
.LBB77:
.LBB78:
	.loc 1 40 0
	lsls	r2, r0, #16	@, D.4896,
.LVL27:
.LBE78:
.LBE77:
	.loc 1 75 0
	mov	r6, r1	@ profileIndex, profileIndex
.LVL28:
	mov	r9, r3	@ size, size
	ldr	r7, [sp, #32]	@ version, version
.LBB80:
.LBB79:
	.loc 1 39 0
	ldr	r1, [r4, #4]	@ base, reg_6(D)->address
.LVL29:
	.loc 1 40 0
	bpl	.L24	@,
	.loc 1 41 0
	ubfx	r0, r0, #0, #12	@ D.4897, D.4896,,
	uxtb	r3, r6	@ D.4897, profileIndex
.LVL30:
	mla	r1, r3, r0, r1	@ base, D.4897, D.4897, base
.LVL31:
.L24:
.LBE79:
.LBE80:
	.loc 1 76 0
	mov	r0, r4	@, reg
	bl	pgResetInstance	@
.LVL32:
.LBB81:
.LBB82:
	.loc 2 51 0
	ldrh	r3, [r4]	@ MEM[(const struct pgRegistry_t *)reg_6(D)], MEM[(const struct pgRegistry_t *)reg_6(D)]
.LBE82:
.LBE81:
	.loc 1 78 0
	cmp	r7, r3, lsr #12	@ version, MEM[(const struct pgRegistry_t *)reg_6(D)],
	bne	.L23	@,
	.loc 1 74 0
	ldrh	r7, [r4, #2]	@ D.4896, MEM[(const struct pgRegistry_t *)reg_6(D) + 2B]
.LVL33:
.LBB83:
.LBB84:
.LBB85:
	.loc 1 39 0
	ldr	r0, [r4, #4]	@ base, reg_6(D)->address
.LBE85:
.LBE84:
	.loc 1 79 0
	ubfx	r5, r7, #0, #12	@ D.4897, D.4896,,
	cmp	r5, r9	@ D.4897, size
	ite	lt
	movlt	r2, r5	@ iftmp.0, D.4897
	movge	r2, r9	@ iftmp.0, size
.LVL34:
.LBB87:
.LBB86:
	.loc 1 40 0
	lsls	r3, r7, #16	@, D.4896,
	.loc 1 41 0
	itt	mi
	uxtbmi	r6, r6	@ D.4897, profileIndex
.LVL35:
	mlami	r0, r6, r5, r0	@ base, D.4897, D.4897, base
.LVL36:
.LBE86:
.LBE87:
	.loc 1 80 0
	mov	r1, r8	@, from
.LBE83:
	.loc 1 82 0
	pop	{r3, r4, r5, r6, r7, r8, r9, lr}	@
.LVL37:
.LBB88:
	.loc 1 80 0
	b	memcpy	@
.LVL38:
.L23:
	pop	{r3, r4, r5, r6, r7, r8, r9, pc}	@
.LBE88:
	.cfi_endproc
.LFE9:
	.size	pgLoad, .-pgLoad
	.section	.text.pgStore,"ax",%progbits
	.align	1
	.global	pgStore
	.thumb
	.thumb_func
	.type	pgStore, %function
pgStore:
.LFB10:
	.loc 1 85 0
	.cfi_startproc
	@ args = 0, pretend = 0, frame = 0
	@ frame_needed = 0, uses_anonymous_args = 0
.LVL39:
	push	{r3, r4, r5, r6, r7, lr}	@
	.cfi_def_cfa_offset 24
	.cfi_offset 3, -24
	.cfi_offset 4, -20
	.cfi_offset 5, -16
	.cfi_offset 6, -12
	.cfi_offset 7, -8
	.cfi_offset 14, -4
	.loc 1 84 0
	ldrh	r6, [r0, #2]	@ D.4914, MEM[(const struct pgRegistry_t *)reg_3(D) + 2B]
.LVL40:
	.loc 1 85 0
	mov	r7, r1	@ to, to
	.loc 1 86 0
	ubfx	r5, r6, #0, #12	@ D.4915, D.4914,,
.LBB97:
.LBB98:
	.loc 1 39 0
	ldr	r1, [r0, #4]	@ base, reg_3(D)->address
.LVL41:
	cmp	r5, r2	@ D.4915, size
	ite	lt
	movlt	r4, r5	@ iftmp.2, D.4915
	movge	r4, r2	@ iftmp.2, size
.LVL42:
	.loc 1 40 0
	lsls	r2, r6, #16	@, D.4914,
.LVL43:
	.loc 1 41 0
	it	mi
	mlami	r1, r3, r5, r1	@ base, profileIndex, D.4915, base
.LVL44:
.LBE98:
.LBE97:
	.loc 1 87 0
	mov	r0, r7	@, to
.LVL45:
	mov	r2, r4	@, iftmp.2
	bl	memcpy	@
.LVL46:
	.loc 1 89 0
	mov	r0, r4	@, iftmp.2
	pop	{r3, r4, r5, r6, r7, pc}	@
	.cfi_endproc
.LFE10:
	.size	pgStore, .-pgStore
	.section	.text.pgResetAll,"ax",%progbits
	.align	1
	.global	pgResetAll
	.thumb
	.thumb_func
	.type	pgResetAll, %function
pgResetAll:
.LFB11:
	.loc 1 93 0
	.cfi_startproc
	@ args = 0, pretend = 0, frame = 0
	@ frame_needed = 0, uses_anonymous_args = 0
.LVL47:
	push	{r4, r5, r6, lr}	@
	.cfi_def_cfa_offset 16
	.cfi_offset 4, -16
	.cfi_offset 5, -12
	.cfi_offset 6, -8
	.cfi_offset 14, -4
.LBB99:
	.loc 1 94 0
	ldr	r4, .L37	@ reg,
.LBE99:
	.loc 1 93 0
	mov	r6, r0	@ profileCount, profileCount
.LVL48:
.L30:
.LBB101:
	.loc 1 94 0 discriminator 1
	ldr	r3, .L37+4	@ tmp116,
	cmp	r4, r3	@ reg, tmp116
	bcs	.L36	@,
.LVL49:
	.loc 1 95 0
	ldrsh	r3, [r4, #2]	@ MEM[base: reg_1, offset: 2B], MEM[base: reg_1, offset: 2B]
	cmp	r3, #0	@ MEM[base: reg_1, offset: 2B],
	bge	.L31	@,
	movs	r5, #0	@ profileIndex,
	b	.L32	@
.L31:
	.loc 1 96 0
	mov	r0, r4	@, reg
	movs	r1, #0	@,
	bl	pgReset	@
.LVL50:
	b	.L33	@
.L32:
.LVL51:
.LBB100:
	.loc 1 99 0 discriminator 1
	cmp	r5, r6	@ profileIndex, profileCount
	bge	.L33	@,
	.loc 1 100 0 discriminator 2
	mov	r1, r5	@, profileIndex
	mov	r0, r4	@, reg
	bl	pgReset	@
.LVL52:
	.loc 1 99 0 discriminator 2
	adds	r5, r5, #1	@ profileIndex, profileIndex,
.LVL53:
	b	.L32	@
.LVL54:
.L33:
.LBE100:
	.loc 1 94 0
	adds	r4, r4, #16	@ reg, reg,
.LVL55:
	b	.L30	@
.LVL56:
.L36:
.LBE101:
	.loc 1 104 0
	pop	{r4, r5, r6, pc}	@
.LVL57:
.L38:
	.align	2
.L37:
	.word	__pg_registry_start
	.word	__pg_registry_end
	.cfi_endproc
.LFE11:
	.size	pgResetAll, .-pgResetAll
	.section	.text.pgActivateProfile,"ax",%progbits
	.align	1
	.global	pgActivateProfile
	.thumb
	.thumb_func
	.type	pgActivateProfile, %function
pgActivateProfile:
.LFB12:
	.loc 1 107 0
	.cfi_startproc
	@ args = 0, pretend = 0, frame = 0
	@ frame_needed = 0, uses_anonymous_args = 0
.LVL58:
	push	{r4, r5, lr}	@
	.cfi_def_cfa_offset 12
	.cfi_offset 4, -12
	.cfi_offset 5, -8
	.cfi_offset 14, -4
	ldr	r3, .L44	@ ivtmp.58,
.LVL59:
.L40:
.LBB112:
	.loc 1 108 0 discriminator 1
	ldr	r2, .L44+4	@ tmp155,
	sub	r1, r3, #16	@ D.4952, ivtmp.58,
.LVL60:
	cmp	r1, r2	@ D.4952, tmp155
	bcs	.L43	@,
.LBE112:
	.loc 1 108 0 is_stmt 0
	ldrh	r2, [r3, #-14]	@ D.4951, MEM[base: _16, offset: 4294967282B]
.LVL61:
.LBB116:
	.loc 1 109 0 is_stmt 1
	lsls	r1, r2, #16	@, D.4951,
.LVL62:
	bpl	.L41	@,
.LVL63:
.LBB113:
.LBB114:
.LBB115:
	.loc 1 39 0
	ldr	r4, [r3, #-12]	@ ptr, MEM[base: _16, offset: 4294967284B]
.LVL64:
	.loc 1 41 0
	ubfx	r2, r2, #0, #12	@ D.4957, D.4951,,
	uxtb	r5, r0	@ D.4957, profileIndex
	mla	r4, r5, r2, r4	@ ptr, D.4957, D.4957, ptr
.LVL65:
.LBE115:
.LBE114:
	.loc 1 111 0
	ldr	r1, [r3, #-8]	@ D.4953, MEM[base: _16, offset: 4294967288B]
	str	r4, [r1]	@ ptr, *_9
.LVL66:
.L41:
	adds	r3, r3, #16	@ ivtmp.58, ivtmp.58,
.LVL67:
	b	.L40	@
.LVL68:
.L43:
.LBE113:
.LBE116:
	.loc 1 114 0
	pop	{r4, r5, pc}	@
.L45:
	.align	2
.L44:
	.word	__pg_registry_start+16
	.word	__pg_registry_end
	.cfi_endproc
.LFE12:
	.size	pgActivateProfile, .-pgActivateProfile
	.text
.Letext0:
	.file 3 "c:\\dev\\gcc-arm-none-eabi-4_8-2014q2\\arm-none-eabi\\include\\machine\\_default_types.h"
	.file 4 "c:\\dev\\gcc-arm-none-eabi-4_8-2014q2\\arm-none-eabi\\include\\stdint.h"