Archive member included because of file (symbol)

c:/dev/gcc-arm-none-eabi-4_8-2014q2/bin/../lib/gcc/arm-none-eabi/4.8.4/../../../../arm-none-eabi/lib/armv7-m\libc_s.a(lib_a-atoi.o)
                              obj/main/NAZE/io/ledstrip.o (symbol from plugin) (atoi)
c:/dev/gcc-arm-none-eabi-4_8-2014q2/bin/../lib/gcc/arm-none-eabi/4.8.4/../../../../arm-none-eabi/lib/armv7-m\libc_s.a(lib_a-ctype_.o)
                              obj/main/NAZE/flight/gps_conversion.o (symbol from plugin) (__ctype_ptr__)
c:/dev/gcc-arm-none-eabi-4_8-2014q2/bin/../lib/gcc/arm-none-eabi/4.8.4/../../../../arm-none-eabi/lib/armv7-m\libc_s.a(lib_a-memcpy-stub.o)
                              obj/main/NAZE/io/ledstrip.o (symbol from plugin) (memcpy)
c:/dev/gcc-arm-none-eabi-4_8-2014q2/bin/../lib/gcc/arm-none-eabi/4.8.4/../../../../arm-none-eabi/lib/armv7-m\libc_s.a(lib_a-strtok.o)
                              obj/main/NAZE/io/serial_cli.o (symbol from plugin) (strtok)
c:/dev/gcc-arm-none-eabi-4_8-2014q2/bin/../lib/gcc/arm-none-eabi/4.8.4/../../../../arm-none-eabi/lib/armv7-m\libc_s.a(lib_a-strtok_r.o)
                              c:/dev/gcc-arm-none-eabi-4_8-2014q2/bin/../lib/gcc/arm-none-eabi/4.8.4/../../../../arm-none-eabi/lib/armv7-m\libc_s.a(lib_a-strtok.o) (__strtok_r)
c:/dev/gcc-arm-none-eabi-4_8-2014q2/bin/../lib/gcc/arm-none-eabi/4.8.4/../../../../arm-none-eabi/lib/armv7-m\libc_s.a(lib_a-strtol.o)
                              c:/dev/gcc-arm-none-eabi-4_8-2014q2/bin/../lib/gcc/arm-none-eabi/4.8.4/../../../../arm-none-eabi/lib/armv7-m\libc_s.a(lib_a-atoi.o) (_strtol_r)
c:/dev/gcc-arm-none-eabi-4_8-2014q2/bin/../lib/gcc/arm-none-eabi/4.8.4/../../../../arm-none-eabi/lib/armv7-m\libc_s.a(lib_a-impure.o)
                              c:/dev/gcc-arm-none-eabi-4_8-2014q2/bin/../lib/gcc/arm-none-eabi/4.8.4/../../../../arm-none-eabi/lib/armv7-m\libc_s.a(lib_a-strtok.o) (_impure_ptr)
c:/dev/gcc-arm-none-eabi-4_8-2014q2/bin/../lib/gcc/arm-none-eabi/4.8.4/../../../../arm-none-eabi/lib/armv7-m\libc_s.a(lib_a-malloc.o)
                              c:/dev/gcc-arm-none-eabi-4_8-2014q2/bin/../lib/gcc/arm-none-eabi/4.8.4/../../../../arm-none-eabi/lib/armv7-m\libc_s.a(lib_a-strtok.o) (malloc)
c:/dev/gcc-arm-none-eabi-4_8-2014q2/bin/../lib/gcc/arm-none-eabi/4.8.4/../../../../arm-none-eabi/lib/armv7-m\libc_s.a(lib_a-nano-freer.o)
                              c:/dev/gcc-arm-none-eabi-4_8-2014q2/bin/../lib/gcc/arm-none-eabi/4.8.4/../../../../arm-none-eabi/lib/armv7-m\libc_s.a(lib_a-malloc.o) (_free_r)
c:/dev/gcc-arm-none-eabi-4_8-2014q2/bin/../lib/gcc/arm-none-eabi/4.8.4/../../../../arm-none-eabi/lib/armv7-m\libc_s.a(lib_a-nano-mallocr.o)
                              c:/dev/gcc-arm-none-eabi-4_8-2014q2/bin/../lib/gcc/arm-none-eabi/4.8.4/../../../../arm-none-eabi/lib/armv7-m\libc_s.a(lib_a-malloc.o) (_malloc_r)
c:/dev/gcc-arm-none-eabi-4_8-2014q2/bin/../lib/gcc/arm-none-eabi/4.8.4/../../../../arm-none-eabi/lib/armv7-m\libc_s.a(lib_a-sbrkr.o)
                              c:/dev/gcc-arm-none-eabi-4_8-2014q2/bin/../lib/gcc/arm-none-eabi/4.8.4/../../../../arm-none-eabi/lib/armv7-m\libc_s.a(lib_a-nano-mallocr.o) (_sbrk_r)
c:/dev/gcc-arm-none-eabi-4_8-2014q2/bin/../lib/gcc/arm-none-eabi/4.8.4/../../../../arm-none-eabi/lib/armv7-m\libc_s.a(lib_a-reent.o)
                              c:/dev/gcc-arm-none-eabi-4_8-2014q2/bin/../lib/gcc/arm-none-eabi/4.8.4/../../../../arm-none-eabi/lib/armv7-m\libc_s.a(lib_a-sbrkr.o) (errno)
c:/dev/gcc-arm-none-eabi-4_8-2014q2/bin/../lib/gcc/arm-none-eabi/4.8.4/../../../../arm-none-eabi/lib/armv7-m\libnosys.a(sbrk.o)
                              c:/dev/gcc-arm-none-eabi-4_8-2014q2/bin/../lib/gcc/arm-none-eabi/4.8.4/../../../../arm-none-eabi/lib/armv7-m\libc_s.a(lib_a-sbrkr.o) (_sbrk)
c:/dev/gcc-arm-none-eabi-4_8-2014q2/bin/../lib/gcc/arm-none-eabi/4.8.4/armv7-m\libgcc.a(_arm_addsubdf3.o)
                              C:\cygwin64\tmp\ccWFxnfo.ltrans3.ltrans.o (__aeabi_i2d)
c:/dev/gcc-arm-none-eabi-4_8-2014q2/bin/../lib/gcc/arm-none-eabi/4.8.4/armv7-m\libgcc.a(_arm_muldivdf3.o)
                              C:\cygwin64\tmp\ccWFxnfo.ltrans3.ltrans.o (__aeabi_ddiv)
c:/dev/gcc-arm-none-eabi-4_8-2014q2/bin/../lib/gcc/arm-none-eabi/4.8.4/armv7-m\libgcc.a(_arm_truncdfsf2.o)
                              C:\cygwin64\tmp\ccWFxnfo.ltrans3.ltrans.o (__aeabi_d2f)
c:/dev/gcc-arm-none-eabi-4_8-2014q2/bin/../lib/gcc/arm-none-eabi/4.8.4/armv7-m\libgcc.a(_arm_addsubsf3.o)
                              C:\cygwin64\tmp\ccWFxnfo.ltrans0.ltrans.o (__aeabi_fsub)
c:/dev/gcc-arm-none-eabi-4_8-2014q2/bin/../lib/gcc/arm-none-eabi/4.8.4/armv7-m\libgcc.a(_arm_muldivsf3.o)
                              C:\cygwin64\tmp\ccWFxnfo.ltrans0.ltrans.o (__aeabi_fmul)
c:/dev/gcc-arm-none-eabi-4_8-2014q2/bin/../lib/gcc/arm-none-eabi/4.8.4/armv7-m\libgcc.a(_arm_cmpsf2.o)
                              C:\cygwin64\tmp\ccWFxnfo.ltrans0.ltrans.o (__aeabi_fcmpeq)
c:/dev/gcc-arm-none-eabi-4_8-2014q2/bin/../lib/gcc/arm-none-eabi/4.8.4/armv7-m\libgcc.a(_arm_fixsfsi.o)
                              C:\cygwin64\tmp\ccWFxnfo.ltrans2.ltrans.o (__aeabi_f2iz)
c:/dev/gcc-arm-none-eabi-4_8-2014q2/bin/../lib/gcc/arm-none-eabi/4.8.4/armv7-m\libgcc.a(_arm_fixunssfsi.o)
                              C:\cygwin64\tmp\ccWFxnfo.ltrans4.ltrans.o (__aeabi_f2uiz)
c:/dev/gcc-arm-none-eabi-4_8-2014q2/bin/../lib/gcc/arm-none-eabi/4.8.4/armv7-m\libgcc.a(_aeabi_ldivmod.o)
                              C:\cygwin64\tmp\ccWFxnfo.ltrans10.ltrans.o (__aeabi_ldivmod)
c:/dev/gcc-arm-none-eabi-4_8-2014q2/bin/../lib/gcc/arm-none-eabi/4.8.4/armv7-m\libgcc.a(_popcountsi2.o)
                              C:\cygwin64\tmp\ccWFxnfo.ltrans7.ltrans.o (__popcountsi2)
c:/dev/gcc-arm-none-eabi-4_8-2014q2/bin/../lib/gcc/arm-none-eabi/4.8.4/armv7-m\libgcc.a(bpabi.o)
                              c:/dev/gcc-arm-none-eabi-4_8-2014q2/bin/../lib/gcc/arm-none-eabi/4.8.4/armv7-m\libgcc.a(_aeabi_ldivmod.o) (__gnu_ldivmod_helper)
c:/dev/gcc-arm-none-eabi-4_8-2014q2/bin/../lib/gcc/arm-none-eabi/4.8.4/armv7-m\libgcc.a(_dvmd_tls.o)
                              c:/dev/gcc-arm-none-eabi-4_8-2014q2/bin/../lib/gcc/arm-none-eabi/4.8.4/armv7-m\libgcc.a(_aeabi_ldivmod.o) (__aeabi_ldiv0)
c:/dev/gcc-arm-none-eabi-4_8-2014q2/bin/../lib/gcc/arm-none-eabi/4.8.4/armv7-m\libgcc.a(_popcount_tab.o)
                              c:/dev/gcc-arm-none-eabi-4_8-2014q2/bin/../lib/gcc/arm-none-eabi/4.8.4/armv7-m\libgcc.a(_popcountsi2.o) (__popcount_tab)
c:/dev/gcc-arm-none-eabi-4_8-2014q2/bin/../lib/gcc/arm-none-eabi/4.8.4/armv7-m\libgcc.a(_divdi3.o)
                              c:/dev/gcc-arm-none-eabi-4_8-2014q2/bin/../lib/gcc/arm-none-eabi/4.8.4/armv7-m\libgcc.a(bpabi.o) (__divdi3)
c:/dev/gcc-arm-none-eabi-4_8-2014q2/bin/../lib/gcc/arm-none-eabi/4.8.4/armv7-m\libgcc.a(_udivdi3.o)
                              c:/dev/gcc-arm-none-eabi-4_8-2014q2/bin/../lib/gcc/arm-none-eabi/4.8.4/armv7-m\libgcc.a(bpabi.o) (__udivdi3)
c:/dev/gcc-arm-none-eabi-4_8-2014q2/bin/../lib/gcc/arm-none-eabi/4.8.4/../../../../arm-none-eabi/lib/armv7-m\libg_s.a(lib_a-memcmp.o)
                              C:\cygwin64\tmp\ccWFxnfo.ltrans9.ltrans.o (memcmp)
c:/dev/gcc-arm-none-eabi-4_8-2014q2/bin/../lib/gcc/arm-none-eabi/4.8.4/../../../../arm-none-eabi/lib/armv7-m\libg_s.a(lib_a-memmove.o)
                              C:\cygwin64\tmp\ccWFxnfo.ltrans3.ltrans.o (memmove)
c:/dev/gcc-arm-none-eabi-4_8-2014q2/bin/../lib/gcc/arm-none-eabi/4.8.4/../../../../arm-none-eabi/lib/armv7-m\libg_s.a(lib_a-memset.o)
                              C:\cygwin64\tmp\ccWFxnfo.ltrans0.ltrans.o (memset)
c:/dev/gcc-arm-none-eabi-4_8-2014q2/bin/../lib/gcc/arm-none-eabi/4.8.4/../../../../arm-none-eabi/lib/armv7-m\libg_s.a(lib_a-strcasecmp.o)
                              C:\cygwin64\tmp\ccWFxnfo.ltrans5.ltrans.o (strcasecmp)
c:/dev/gcc-arm-none-eabi-4_8-2014q2/bin/../lib/gcc/arm-none-eabi/4.8.4/../../../../arm-none-eabi/lib/armv7-m\libg_s.a(lib_a-strcat.o)
                              C:\cygwin64\tmp\ccWFxnfo.ltrans6.ltrans.o (strcat)
c:/dev/gcc-arm-none-eabi-4_8-2014q2/bin/../lib/gcc/arm-none-eabi/4.8.4/../../../../arm-none-eabi/lib/armv7-m\libg_s.a(lib_a-strchr.o)
                              C:\cygwin64\tmp\ccWFxnfo.ltrans5.ltrans.o (strchr)
c:/dev/gcc-arm-none-eabi-4_8-2014q2/bin/../lib/gcc/arm-none-eabi/4.8.4/../../../../arm-none-eabi/lib/armv7-m\libg_s.a(lib_a-strlen.o)
                              C:\cygwin64\tmp\ccWFxnfo.ltrans1.ltrans.o (strlen)
c:/dev/gcc-arm-none-eabi-4_8-2014q2/bin/../lib/gcc/arm-none-eabi/4.8.4/../../../../arm-none-eabi/lib/armv7-m\libg_s.a(lib_a-strncasecmp.o)
                              C:\cygwin64\tmp\ccWFxnfo.ltrans5.ltrans.o (strncasecmp)
c:/dev/gcc-arm-none-eabi-4_8-2014q2/bin/../lib/gcc/arm-none-eabi/4.8.4/../../../../arm-none-eabi/lib/armv7-m\libg_s.a(lib_a-strncpy.o)
                              C:\cygwin64\tmp\ccWFxnfo.ltrans6.ltrans.o (strncpy)
c:/dev/gcc-arm-none-eabi-4_8-2014q2/bin/../lib/gcc/arm-none-eabi/4.8.4/../../../../arm-none-eabi/lib/armv7-m\libg_s.a(lib_a-strstr.o)
                              C:\cygwin64\tmp\ccWFxnfo.ltrans8.ltrans.o (strstr)
c:/dev/gcc-arm-none-eabi-4_8-2014q2/bin/../lib/gcc/arm-none-eabi/4.8.4/../../../../arm-none-eabi/lib/armv7-m\libm.a(lib_a-sf_log2.o)
                              C:\cygwin64\tmp\ccWFxnfo.ltrans14.ltrans.o (log2f)
c:/dev/gcc-arm-none-eabi-4_8-2014q2/bin/../lib/gcc/arm-none-eabi/4.8.4/../../../../arm-none-eabi/lib/armv7-m\libm.a(lib_a-sf_lrint.o)
                              C:\cygwin64\tmp\ccWFxnfo.ltrans2.ltrans.o (lrintf)
c:/dev/gcc-arm-none-eabi-4_8-2014q2/bin/../lib/gcc/arm-none-eabi/4.8.4/../../../../arm-none-eabi/lib/armv7-m\libm.a(lib_a-wf_log.o)
                              c:/dev/gcc-arm-none-eabi-4_8-2014q2/bin/../lib/gcc/arm-none-eabi/4.8.4/../../../../arm-none-eabi/lib/armv7-m\libm.a(lib_a-sf_log2.o) (logf)
c:/dev/gcc-arm-none-eabi-4_8-2014q2/bin/../lib/gcc/arm-none-eabi/4.8.4/../../../../arm-none-eabi/lib/armv7-m\libm.a(lib_a-wf_pow.o)
                              C:\cygwin64\tmp\ccWFxnfo.ltrans11.ltrans.o (powf)
c:/dev/gcc-arm-none-eabi-4_8-2014q2/bin/../lib/gcc/arm-none-eabi/4.8.4/../../../../arm-none-eabi/lib/armv7-m\libm.a(lib_a-wf_sqrt.o)
                              C:\cygwin64\tmp\ccWFxnfo.ltrans7.ltrans.o (sqrtf)
c:/dev/gcc-arm-none-eabi-4_8-2014q2/bin/../lib/gcc/arm-none-eabi/4.8.4/../../../../arm-none-eabi/lib/armv7-m\libm.a(lib_a-ef_log.o)
                              c:/dev/gcc-arm-none-eabi-4_8-2014q2/bin/../lib/gcc/arm-none-eabi/4.8.4/../../../../arm-none-eabi/lib/armv7-m\libm.a(lib_a-wf_log.o) (__ieee754_logf)
c:/dev/gcc-arm-none-eabi-4_8-2014q2/bin/../lib/gcc/arm-none-eabi/4.8.4/../../../../arm-none-eabi/lib/armv7-m\libm.a(lib_a-ef_pow.o)
                              c:/dev/gcc-arm-none-eabi-4_8-2014q2/bin/../lib/gcc/arm-none-eabi/4.8.4/../../../../arm-none-eabi/lib/armv7-m\libm.a(lib_a-wf_pow.o) (__ieee754_powf)
c:/dev/gcc-arm-none-eabi-4_8-2014q2/bin/../lib/gcc/arm-none-eabi/4.8.4/../../../../arm-none-eabi/lib/armv7-m\libm.a(lib_a-ef_sqrt.o)
                              c:/dev/gcc-arm-none-eabi-4_8-2014q2/bin/../lib/gcc/arm-none-eabi/4.8.4/../../../../arm-none-eabi/lib/armv7-m\libm.a(lib_a-wf_sqrt.o) (__ieee754_sqrtf)
c:/dev/gcc-arm-none-eabi-4_8-2014q2/bin/../lib/gcc/arm-none-eabi/4.8.4/../../../../arm-none-eabi/lib/armv7-m\libm.a(lib_a-s_lib_ver.o)
                              c:/dev/gcc-arm-none-eabi-4_8-2014q2/bin/../lib/gcc/arm-none-eabi/4.8.4/../../../../arm-none-eabi/lib/armv7-m\libm.a(lib_a-wf_log.o) (__fdlib_version)
c:/dev/gcc-arm-none-eabi-4_8-2014q2/bin/../lib/gcc/arm-none-eabi/4.8.4/../../../../arm-none-eabi/lib/armv7-m\libm.a(lib_a-s_matherr.o)
                              c:/dev/gcc-arm-none-eabi-4_8-2014q2/bin/../lib/gcc/arm-none-eabi/4.8.4/../../../../arm-none-eabi/lib/armv7-m\libm.a(lib_a-wf_log.o) (matherr)
c:/dev/gcc-arm-none-eabi-4_8-2014q2/bin/../lib/gcc/arm-none-eabi/4.8.4/../../../../arm-none-eabi/lib/armv7-m\libm.a(lib_a-s_nan.o)
                              c:/dev/gcc-arm-none-eabi-4_8-2014q2/bin/../lib/gcc/arm-none-eabi/4.8.4/../../../../arm-none-eabi/lib/armv7-m\libm.a(lib_a-wf_log.o) (nan)
c:/dev/gcc-arm-none-eabi-4_8-2014q2/bin/../lib/gcc/arm-none-eabi/4.8.4/../../../../arm-none-eabi/lib/armv7-m\libm.a(lib_a-s_rint.o)
                              c:/dev/gcc-arm-none-eabi-4_8-2014q2/bin/../lib/gcc/arm-none-eabi/4.8.4/../../../../arm-none-eabi/lib/armv7-m\libm.a(lib_a-wf_pow.o) (rint)
c:/dev/gcc-arm-none-eabi-4_8-2014q2/bin/../lib/gcc/arm-none-eabi/4.8.4/../../../../arm-none-eabi/lib/armv7-m\libm.a(lib_a-sf_fabs.o)
                              c:/dev/gcc-arm-none-eabi-4_8-2014q2/bin/../lib/gcc/arm-none-eabi/4.8.4/../../../../arm-none-eabi/lib/armv7-m\libm.a(lib_a-ef_pow.o) (fabsf)
c:/dev/gcc-arm-none-eabi-4_8-2014q2/bin/../lib/gcc/arm-none-eabi/4.8.4/../../../../arm-none-eabi/lib/armv7-m\libm.a(lib_a-sf_finite.o)
                              c:/dev/gcc-arm-none-eabi-4_8-2014q2/bin/../lib/gcc/arm-none-eabi/4.8.4/../../../../arm-none-eabi/lib/armv7-m\libm.a(lib_a-wf_pow.o) (finitef)
c:/dev/gcc-arm-none-eabi-4_8-2014q2/bin/../lib/gcc/arm-none-eabi/4.8.4/../../../../arm-none-eabi/lib/armv7-m\libm.a(lib_a-sf_fpclassify.o)
                              c:/dev/gcc-arm-none-eabi-4_8-2014q2/bin/../lib/gcc/arm-none-eabi/4.8.4/../../../../arm-none-eabi/lib/armv7-m\libm.a(lib_a-wf_log.o) (__fpclassifyf)
c:/dev/gcc-arm-none-eabi-4_8-2014q2/bin/../lib/gcc/arm-none-eabi/4.8.4/../../../../arm-none-eabi/lib/armv7-m\libm.a(lib_a-sf_nan.o)
                              c:/dev/gcc-arm-none-eabi-4_8-2014q2/bin/../lib/gcc/arm-none-eabi/4.8.4/../../../../arm-none-eabi/lib/armv7-m\libm.a(lib_a-ef_pow.o) (nanf)
c:/dev/gcc-arm-none-eabi-4_8-2014q2/bin/../lib/gcc/arm-none-eabi/4.8.4/../../../../arm-none-eabi/lib/armv7-m\libm.a(lib_a-sf_scalbn.o)
                              c:/dev/gcc-arm-none-eabi-4_8-2014q2/bin/../lib/gcc/arm-none-eabi/4.8.4/../../../../arm-none-eabi/lib/armv7-m\libm.a(lib_a-ef_pow.o) (scalbnf)
c:/dev/gcc-arm-none-eabi-4_8-2014q2/bin/../lib/gcc/arm-none-eabi/4.8.4/../../../../arm-none-eabi/lib/armv7-m\libm.a(lib_a-sf_copysign.o)
                              c:/dev/gcc-arm-none-eabi-4_8-2014q2/bin/../lib/gcc/arm-none-eabi/4.8.4/../../../../arm-none-eabi/lib/armv7-m\libm.a(lib_a-sf_scalbn.o) (copysignf)
c:/dev/gcc-arm-none-eabi-4_8-2014q2/bin/../lib/gcc/arm-none-eabi/4.8.4/../../../../arm-none-eabi/lib/armv7-m\libc_s.a(lib_a-errno.o)
                              c:/dev/gcc-arm-none-eabi-4_8-2014q2/bin/../lib/gcc/arm-none-eabi/4.8.4/../../../../arm-none-eabi/lib/armv7-m\libm.a(lib_a-wf_log.o) (__errno)
c:/dev/gcc-arm-none-eabi-4_8-2014q2/bin/../lib/gcc/arm-none-eabi/4.8.4/armv7-m\libgcc.a(_arm_cmpdf2.o)
                              c:/dev/gcc-arm-none-eabi-4_8-2014q2/bin/../lib/gcc/arm-none-eabi/4.8.4/../../../../arm-none-eabi/lib/armv7-m\libm.a(lib_a-wf_pow.o) (__aeabi_dcmpeq)

Allocating common symbols
Common symbol       size              file

airplaneConfig_System
                    0x1               obj/main/NAZE/flight/altitudehold.o (symbol from plugin)
timerChannelInfo    0xe               obj/main/NAZE/drivers/timer.o (symbol from plugin)
debugConfig_System  0x1               obj/main/NAZE/fc/fc_debug.o (symbol from plugin)
ITermLimit          0xc               obj/main/NAZE/flight/pid.o (symbol from plugin)
rateProfileSelection_ProfileCurrent
                    0x4               obj/main/NAZE/fc/rate_profile.o (symbol from plugin)
yawFilter           0xc               obj/main/NAZE/flight/pid.o (symbol from plugin)
baro_cf_alt         0x4               obj/main/NAZE/sensors/sonar.o (symbol from plugin)
ubx_nav_status_bits
                    0x1               obj/main/NAZE/io/gps.o (symbol from plugin)
softSerialPorts     0x4a0             obj/main/NAZE/drivers/serial_softserial.o (symbol from plugin)
telemTemperature1   0x2               obj/main/NAZE/fc/cleanflight_fc.o (symbol from plugin)
sonarMaxRangeCm     0x2               obj/main/NAZE/sensors/sonar.o (symbol from plugin)
errno               0x4               c:/dev/gcc-arm-none-eabi-4_8-2014q2/bin/../lib/gcc/arm-none-eabi/4.8.4/../../../../arm-none-eabi/lib/armv7-m\libc_s.a(lib_a-reent.o)
rcRaw               0x24              obj/main/NAZE/rx/rx.o (symbol from plugin)
ubx_protocol_bytes  0x1               obj/main/NAZE/io/gps.o (symbol from plugin)
accFilterApplyFn    0x4               obj/main/NAZE/sensors/acceleration.o (symbol from plugin)
motorLimitReached   0x1               obj/main/NAZE/flight/mixer.o (symbol from plugin)
gimbalConfig_ProfileCurrent
                    0x4               obj/main/NAZE/io/gimbal.o (symbol from plugin)
hottTelemetryConfig_System
                    0x1               obj/main/NAZE/telemetry/hott.o (symbol from plugin)
inputSource_e       0x1               obj/main/NAZE/blackbox/blackbox.o (symbol from plugin)
timerInfo           0x4               obj/main/NAZE/drivers/timer.o (symbol from plugin)
ITermLimitf         0xc               obj/main/NAZE/flight/pid.o (symbol from plugin)
ibusTelemetryConfig_System
                    0x1               obj/main/NAZE/telemetry/ibus.o (symbol from plugin)
deltaFilter         0x24              obj/main/NAZE/flight/pid.o (symbol from plugin)
sensorSelectionConfig_System
                    0x3               obj/main/NAZE/sensors/sensors.o (symbol from plugin)
magADCRaw           0x6               obj/main/NAZE/sensors/compass.o (symbol from plugin)
PIDweight           0x3               obj/main/NAZE/flight/pid.o (symbol from plugin)
mspServerConfig_System
                    0x1               obj/main/NAZE/msp/msp_server.o (symbol from plugin)
gtuneConfig_ProfileCurrent
                    0x4               obj/main/NAZE/flight/gtune.o (symbol from plugin)
lastITerm           0xc               obj/main/NAZE/flight/pid.o (symbol from plugin)
hcsr04_extiCallbackRec
                    0x4               obj/main/NAZE/drivers/sonar_hcsr04.o (symbol from plugin)
mpuIntCallbackRec   0x4               obj/main/NAZE/drivers/accgyro_mpu.o (symbol from plugin)
flashchipConfig_System
                    0x8               obj/main/NAZE/fc/boot.o (symbol from plugin)
servoConfig_System  0x4               obj/main/NAZE/io/servos.o (symbol from plugin)
axisPID             0x6               obj/main/NAZE/flight/pid.o (symbol from plugin)
barometerConfig_ProfileCurrent
                    0x4               obj/main/NAZE/sensors/barometer.o (symbol from plugin)
pwmRxConfig_System  0x1               obj/main/NAZE/fc/boot.o (symbol from plugin)
sensorTrims_System  0xc               obj/main/NAZE/sensors/sensors.o (symbol from plugin)
sectionTimes        0x20              obj/main/NAZE/build/debug.o (symbol from plugin)
systemConfig_System
                    0x2               obj/main/NAZE/fc/boot.o (symbol from plugin)
customMixers        0x4               obj/main/NAZE/flight/mixer.o (symbol from plugin)
baro_cf_vel         0x4               obj/main/NAZE/sensors/sonar.o (symbol from plugin)
ubs_nav_fix_type    0x1               obj/main/NAZE/io/gps.o (symbol from plugin)

Discarded input sections

 .text          0x00000000       0x14 obj/main/NAZE/startup_stm32f10x_md_gcc.o
 .data          0x00000000        0x0 obj/main/NAZE/startup_stm32f10x_md_gcc.o
 .bss           0x00000000        0x0 obj/main/NAZE/startup_stm32f10x_md_gcc.o
 .text          0x00000000        0x0 obj/main/NAZE/drivers/adc.o (symbol from plugin)
 .text          0x00000000        0x0 C:\cygwin64\tmp\ccWFxnfo.ltrans0.ltrans.o
 .data          0x00000000        0x0 C:\cygwin64\tmp\ccWFxnfo.ltrans1.ltrans.o
 .data          0x00000000        0x0 C:\cygwin64\tmp\ccWFxnfo.ltrans5.ltrans.o
 .data          0x00000000        0x0 C:\cygwin64\tmp\ccWFxnfo.ltrans6.ltrans.o
 .text.unlikely
                0x00000000       0x10 C:\cygwin64\tmp\ccWFxnfo.ltrans6.ltrans.o
 .data          0x00000000        0x0 C:\cygwin64\tmp\ccWFxnfo.ltrans7.ltrans.o
 .data          0x00000000        0x0 C:\cygwin64\tmp\ccWFxnfo.ltrans9.ltrans.o
 .data          0x00000000        0x0 C:\cygwin64\tmp\ccWFxnfo.ltrans10.ltrans.o
 .data          0x00000000        0x0 C:\cygwin64\tmp\ccWFxnfo.ltrans12.ltrans.o
 .data          0x00000000        0x0 C:\cygwin64\tmp\ccWFxnfo.ltrans13.ltrans.o
 .data          0x00000000        0x0 C:\cygwin64\tmp\ccWFxnfo.ltrans14.ltrans.o
 .data          0x00000000        0x0 C:\cygwin64\tmp\ccWFxnfo.ltrans16.ltrans.o
 .data          0x00000000        0x0 C:\cygwin64\tmp\ccWFxnfo.ltrans18.ltrans.o
 .data          0x00000000        0x0 C:\cygwin64\tmp\ccWFxnfo.ltrans21.ltrans.o
 .data          0x00000000        0x0 C:\cygwin64\tmp\ccWFxnfo.ltrans22.ltrans.o
 .data          0x00000000        0x0 C:\cygwin64\tmp\ccWFxnfo.ltrans23.ltrans.o
 .data          0x00000000        0x0 C:\cygwin64\tmp\ccWFxnfo.ltrans25.ltrans.o
 .data          0x00000000        0x0 C:\cygwin64\tmp\ccWFxnfo.ltrans26.ltrans.o
 .data          0x00000000        0x0 C:\cygwin64\tmp\ccWFxnfo.ltrans27.ltrans.o
 .data          0x00000000        0x0 C:\cygwin64\tmp\ccWFxnfo.ltrans28.ltrans.o
 .data          0x00000000        0x0 C:\cygwin64\tmp\ccWFxnfo.ltrans29.ltrans.o
 .data          0x00000000        0x0 C:\cygwin64\tmp\ccWFxnfo.ltrans30.ltrans.o
 .data          0x00000000        0x0 C:\cygwin64\tmp\ccWFxnfo.ltrans31.ltrans.o
 .data          0x00000000        0x0 c:/dev/gcc-arm-none-eabi-4_8-2014q2/bin/../lib/gcc/arm-none-eabi/4.8.4/armv7-m\libgcc.a(_arm_addsubdf3.o)
 .bss           0x00000000        0x0 c:/dev/gcc-arm-none-eabi-4_8-2014q2/bin/../lib/gcc/arm-none-eabi/4.8.4/armv7-m\libgcc.a(_arm_addsubdf3.o)
 .data          0x00000000        0x0 c:/dev/gcc-arm-none-eabi-4_8-2014q2/bin/../lib/gcc/arm-none-eabi/4.8.4/armv7-m\libgcc.a(_arm_muldivdf3.o)
 .bss           0x00000000        0x0 c:/dev/gcc-arm-none-eabi-4_8-2014q2/bin/../lib/gcc/arm-none-eabi/4.8.4/armv7-m\libgcc.a(_arm_muldivdf3.o)
 .data          0x00000000        0x0 c:/dev/gcc-arm-none-eabi-4_8-2014q2/bin/../lib/gcc/arm-none-eabi/4.8.4/armv7-m\libgcc.a(_arm_truncdfsf2.o)
 .bss           0x00000000        0x0 c:/dev/gcc-arm-none-eabi-4_8-2014q2/bin/../lib/gcc/arm-none-eabi/4.8.4/armv7-m\libgcc.a(_arm_truncdfsf2.o)
 .data          0x00000000        0x0 c:/dev/gcc-arm-none-eabi-4_8-2014q2/bin/../lib/gcc/arm-none-eabi/4.8.4/armv7-m\libgcc.a(_arm_addsubsf3.o)
 .bss           0x00000000        0x0 c:/dev/gcc-arm-none-eabi-4_8-2014q2/bin/../lib/gcc/arm-none-eabi/4.8.4/armv7-m\libgcc.a(_arm_addsubsf3.o)
 .data          0x00000000        0x0 c:/dev/gcc-arm-none-eabi-4_8-2014q2/bin/../lib/gcc/arm-none-eabi/4.8.4/armv7-m\libgcc.a(_arm_muldivsf3.o)
 .bss           0x00000000        0x0 c:/dev/gcc-arm-none-eabi-4_8-2014q2/bin/../lib/gcc/arm-none-eabi/4.8.4/armv7-m\libgcc.a(_arm_muldivsf3.o)
 .data          0x00000000        0x0 c:/dev/gcc-arm-none-eabi-4_8-2014q2/bin/../lib/gcc/arm-none-eabi/4.8.4/armv7-m\libgcc.a(_arm_cmpsf2.o)
 .bss           0x00000000        0x0 c:/dev/gcc-arm-none-eabi-4_8-2014q2/bin/../lib/gcc/arm-none-eabi/4.8.4/armv7-m\libgcc.a(_arm_cmpsf2.o)
 .data          0x00000000        0x0 c:/dev/gcc-arm-none-eabi-4_8-2014q2/bin/../lib/gcc/arm-none-eabi/4.8.4/armv7-m\libgcc.a(_arm_fixsfsi.o)
 .bss           0x00000000        0x0 c:/dev/gcc-arm-none-eabi-4_8-2014q2/bin/../lib/gcc/arm-none-eabi/4.8.4/armv7-m\libgcc.a(_arm_fixsfsi.o)
 .data          0x00000000        0x0 c:/dev/gcc-arm-none-eabi-4_8-2014q2/bin/../lib/gcc/arm-none-eabi/4.8.4/armv7-m\libgcc.a(_arm_fixunssfsi.o)
 .bss           0x00000000        0x0 c:/dev/gcc-arm-none-eabi-4_8-2014q2/bin/../lib/gcc/arm-none-eabi/4.8.4/armv7-m\libgcc.a(_arm_fixunssfsi.o)
 .data          0x00000000        0x0 c:/dev/gcc-arm-none-eabi-4_8-2014q2/bin/../lib/gcc/arm-none-eabi/4.8.4/armv7-m\libgcc.a(_aeabi_ldivmod.o)
 .bss           0x00000000        0x0 c:/dev/gcc-arm-none-eabi-4_8-2014q2/bin/../lib/gcc/arm-none-eabi/4.8.4/armv7-m\libgcc.a(_aeabi_ldivmod.o)
 .data          0x00000000        0x0 c:/dev/gcc-arm-none-eabi-4_8-2014q2/bin/../lib/gcc/arm-none-eabi/4.8.4/armv7-m\libgcc.a(_popcountsi2.o)
 .bss           0x00000000        0x0 c:/dev/gcc-arm-none-eabi-4_8-2014q2/bin/../lib/gcc/arm-none-eabi/4.8.4/armv7-m\libgcc.a(_popcountsi2.o)
 .data          0x00000000        0x0 c:/dev/gcc-arm-none-eabi-4_8-2014q2/bin/../lib/gcc/arm-none-eabi/4.8.4/armv7-m\libgcc.a(bpabi.o)
 .bss           0x00000000        0x0 c:/dev/gcc-arm-none-eabi-4_8-2014q2/bin/../lib/gcc/arm-none-eabi/4.8.4/armv7-m\libgcc.a(bpabi.o)
 .data          0x00000000        0x0 c:/dev/gcc-arm-none-eabi-4_8-2014q2/bin/../lib/gcc/arm-none-eabi/4.8.4/armv7-m\libgcc.a(_dvmd_tls.o)
 .bss           0x00000000        0x0 c:/dev/gcc-arm-none-eabi-4_8-2014q2/bin/../lib/gcc/arm-none-eabi/4.8.4/armv7-m\libgcc.a(_dvmd_tls.o)
 .text          0x00000000        0x0 c:/dev/gcc-arm-none-eabi-4_8-2014q2/bin/../lib/gcc/arm-none-eabi/4.8.4/armv7-m\libgcc.a(_popcount_tab.o)
 .data          0x00000000        0x0 c:/dev/gcc-arm-none-eabi-4_8-2014q2/bin/../lib/gcc/arm-none-eabi/4.8.4/armv7-m\libgcc.a(_popcount_tab.o)
 .bss           0x00000000        0x0 c:/dev/gcc-arm-none-eabi-4_8-2014q2/bin/../lib/gcc/arm-none-eabi/4.8.4/armv7-m\libgcc.a(_popcount_tab.o)
 .data          0x00000000        0x0 c:/dev/gcc-arm-none-eabi-4_8-2014q2/bin/../lib/gcc/arm-none-eabi/4.8.4/armv7-m\libgcc.a(_divdi3.o)
 .bss           0x00000000        0x0 c:/dev/gcc-arm-none-eabi-4_8-2014q2/bin/../lib/gcc/arm-none-eabi/4.8.4/armv7-m\libgcc.a(_divdi3.o)
 .ARM.extab     0x00000000        0x0 c:/dev/gcc-arm-none-eabi-4_8-2014q2/bin/../lib/gcc/arm-none-eabi/4.8.4/armv7-m\libgcc.a(_divdi3.o)
 .data          0x00000000        0x0 c:/dev/gcc-arm-none-eabi-4_8-2014q2/bin/../lib/gcc/arm-none-eabi/4.8.4/armv7-m\libgcc.a(_udivdi3.o)
 .bss           0x00000000        0x0 c:/dev/gcc-arm-none-eabi-4_8-2014q2/bin/../lib/gcc/arm-none-eabi/4.8.4/armv7-m\libgcc.a(_udivdi3.o)
 .ARM.extab     0x00000000        0x0 c:/dev/gcc-arm-none-eabi-4_8-2014q2/bin/../lib/gcc/arm-none-eabi/4.8.4/armv7-m\libgcc.a(_udivdi3.o)
 .text          0x00000000        0x0 c:/dev/gcc-arm-none-eabi-4_8-2014q2/bin/../lib/gcc/arm-none-eabi/4.8.4/../../../../arm-none-eabi/lib/armv7-m\libg_s.a(lib_a-memcmp.o)
 .data          0x00000000        0x0 c:/dev/gcc-arm-none-eabi-4_8-2014q2/bin/../lib/gcc/arm-none-eabi/4.8.4/../../../../arm-none-eabi/lib/armv7-m\libg_s.a(lib_a-memcmp.o)
 .bss           0x00000000        0x0 c:/dev/gcc-arm-none-eabi-4_8-2014q2/bin/../lib/gcc/arm-none-eabi/4.8.4/../../../../arm-none-eabi/lib/armv7-m\libg_s.a(lib_a-memcmp.o)
 .text          0x00000000        0x0 c:/dev/gcc-arm-none-eabi-4_8-2014q2/bin/../lib/gcc/arm-none-eabi/4.8.4/../../../../arm-none-eabi/lib/armv7-m\libg_s.a(lib_a-memmove.o)
 .data          0x00000000        0x0 c:/dev/gcc-arm-none-eabi-4_8-2014q2/bin/../lib/gcc/arm-none-eabi/4.8.4/../../../../arm-none-eabi/lib/armv7-m\libg_s.a(lib_a-memmove.o)
 .bss           0x00000000        0x0 c:/dev/gcc-arm-none-eabi-4_8-2014q2/bin/../lib/gcc/arm-none-eabi/4.8.4/../../../../arm-none-eabi/lib/armv7-m\libg_s.a(lib_a-memmove.o)
 .text          0x00000000        0x0 c:/dev/gcc-arm-none-eabi-4_8-2014q2/bin/../lib/gcc/arm-none-eabi/4.8.4/../../../../arm-none-eabi/lib/armv7-m\libg_s.a(lib_a-memset.o)
 .data          0x00000000        0x0 c:/dev/gcc-arm-none-eabi-4_8-2014q2/bin/../lib/gcc/arm-none-eabi/4.8.4/../../../../arm-none-eabi/lib/armv7-m\libg_s.a(lib_a-memset.o)
 .bss           0x00000000        0x0 c:/dev/gcc-arm-none-eabi-4_8-2014q2/bin/../lib/gcc/arm-none-eabi/4.8.4/../../../../arm-none-eabi/lib/armv7-m\libg_s.a(lib_a-memset.o)
 .text          0x00000000        0x0 c:/dev/gcc-arm-none-eabi-4_8-2014q2/bin/../lib/gcc/arm-none-eabi/4.8.4/../../../../arm-none-eabi/lib/armv7-m\libg_s.a(lib_a-strcasecmp.o)
 .data          0x00000000        0x0 c:/dev/gcc-arm-none-eabi-4_8-2014q2/bin/../lib/gcc/arm-none-eabi/4.8.4/../../../../arm-none-eabi/lib/armv7-m\libg_s.a(lib_a-strcasecmp.o)
 .bss           0x00000000        0x0 c:/dev/gcc-arm-none-eabi-4_8-2014q2/bin/../lib/gcc/arm-none-eabi/4.8.4/../../../../arm-none-eabi/lib/armv7-m\libg_s.a(lib_a-strcasecmp.o)
 .text          0x00000000        0x0 c:/dev/gcc-arm-none-eabi-4_8-2014q2/bin/../lib/gcc/arm-none-eabi/4.8.4/../../../../arm-none-eabi/lib/armv7-m\libg_s.a(lib_a-strcat.o)
 .data          0x00000000        0x0 c:/dev/gcc-arm-none-eabi-4_8-2014q2/bin/../lib/gcc/arm-none-eabi/4.8.4/../../../../arm-none-eabi/lib/armv7-m\libg_s.a(lib_a-strcat.o)
 .bss           0x00000000        0x0 c:/dev/gcc-arm-none-eabi-4_8-2014q2/bin/../lib/gcc/arm-none-eabi/4.8.4/../../../../arm-none-eabi/lib/armv7-m\libg_s.a(lib_a-strcat.o)
 .text          0x00000000        0x0 c:/dev/gcc-arm-none-eabi-4_8-2014q2/bin/../lib/gcc/arm-none-eabi/4.8.4/../../../../arm-none-eabi/lib/armv7-m\libg_s.a(lib_a-strchr.o)
 .data          0x00000000        0x0 c:/dev/gcc-arm-none-eabi-4_8-2014q2/bin/../lib/gcc/arm-none-eabi/4.8.4/../../../../arm-none-eabi/lib/armv7-m\libg_s.a(lib_a-strchr.o)
 .bss           0x00000000        0x0 c:/dev/gcc-arm-none-eabi-4_8-2014q2/bin/../lib/gcc/arm-none-eabi/4.8.4/../../../../arm-none-eabi/lib/armv7-m\libg_s.a(lib_a-strchr.o)
 .text          0x00000000        0x0 c:/dev/gcc-arm-none-eabi-4_8-2014q2/bin/../lib/gcc/arm-none-eabi/4.8.4/../../../../arm-none-eabi/lib/armv7-m\libg_s.a(lib_a-strlen.o)
 .data          0x00000000        0x0 c:/dev/gcc-arm-none-eabi-4_8-2014q2/bin/../lib/gcc/arm-none-eabi/4.8.4/../../../../arm-none-eabi/lib/armv7-m\libg_s.a(lib_a-strlen.o)
 .bss           0x00000000        0x0 c:/dev/gcc-arm-none-eabi-4_8-2014q2/bin/../lib/gcc/arm-none-eabi/4.8.4/../../../../arm-none-eabi/lib/armv7-m\libg_s.a(lib_a-strlen.o)
 .text          0x00000000        0x0 c:/dev/gcc-arm-none-eabi-4_8-2014q2/bin/../lib/gcc/arm-none-eabi/4.8.4/../../../../arm-none-eabi/lib/armv7-m\libg_s.a(lib_a-strncasecmp.o)
 .data          0x00000000        0x0 c:/dev/gcc-arm-none-eabi-4_8-2014q2/bin/../lib/gcc/arm-none-eabi/4.8.4/../../../../arm-none-eabi/lib/armv7-m\libg_s.a(lib_a-strncasecmp.o)
 .bss           0x00000000        0x0 c:/dev/gcc-arm-none-eabi-4_8-2014q2/bin/../lib/gcc/arm-none-eabi/4.8.4/../../../../arm-none-eabi/lib/armv7-m\libg_s.a(lib_a-strncasecmp.o)
 .text          0x00000000        0x0 c:/dev/gcc-arm-none-eabi-4_8-2014q2/bin/../lib/gcc/arm-none-eabi/4.8.4/../../../../arm-none-eabi/lib/armv7-m\libg_s.a(lib_a-strncpy.o)
 .data          0x00000000        0x0 c:/dev/gcc-arm-none-eabi-4_8-2014q2/bin/../lib/gcc/arm-none-eabi/4.8.4/../../../../arm-none-eabi/lib/armv7-m\libg_s.a(lib_a-strncpy.o)
 .bss           0x00000000        0x0 c:/dev/gcc-arm-none-eabi-4_8-2014q2/bin/../lib/gcc/arm-none-eabi/4.8.4/../../../../arm-none-eabi/lib/armv7-m\libg_s.a(lib_a-strncpy.o)
 .text          0x00000000        0x0 c:/dev/gcc-arm-none-eabi-4_8-2014q2/bin/../lib/gcc/arm-none-eabi/4.8.4/../../../../arm-none-eabi/lib/armv7-m\libg_s.a(lib_a-strstr.o)
 .data          0x00000000        0x0 c:/dev/gcc-arm-none-eabi-4_8-2014q2/bin/../lib/gcc/arm-none-eabi/4.8.4/../../../../arm-none-eabi/lib/armv7-m\libg_s.a(lib_a-strstr.o)
 .bss           0x00000000        0x0 c:/dev/gcc-arm-none-eabi-4_8-2014q2/bin/../lib/gcc/arm-none-eabi/4.8.4/../../../../arm-none-eabi/lib/armv7-m\libg_s.a(lib_a-strstr.o)
 .text          0x00000000        0x0 obj/main/NAZE/drivers/adc_stm32f10x.o (symbol from plugin)
 .text          0x00000000        0x0 obj/main/NAZE/drivers/bus_i2c_stm32f10x.o (symbol from plugin)
 .text          0x00000000        0x0 obj/main/NAZE/drivers/gpio_stm32f10x.o (symbol from plugin)
 .text          0x00000000        0x0 obj/main/NAZE/drivers/light_led_stm32f10x.o (symbol from plugin)
 .text          0x00000000        0x0 obj/main/NAZE/drivers/serial_uart.o (symbol from plugin)
 .text          0x00000000        0x0 obj/main/NAZE/drivers/serial_uart_stm32f10x.o (symbol from plugin)
 .text          0x00000000        0x0 obj/main/NAZE/drivers/system_stm32f10x.o (symbol from plugin)
 .text          0x00000000        0x0 obj/main/NAZE/drivers/accgyro_adxl345.o (symbol from plugin)
 .text          0x00000000        0x0 obj/main/NAZE/drivers/accgyro_bma280.o (symbol from plugin)
 .text          0x00000000        0x0 obj/main/NAZE/drivers/accgyro_l3g4200d.o (symbol from plugin)
 .text          0x00000000        0x0 obj/main/NAZE/drivers/accgyro_mma845x.o (symbol from plugin)
 .text          0x00000000        0x0 obj/main/NAZE/drivers/accgyro_mpu.o (symbol from plugin)
 .text          0x00000000        0x0 obj/main/NAZE/drivers/accgyro_mpu3050.o (symbol from plugin)
 .text          0x00000000        0x0 obj/main/NAZE/drivers/accgyro_mpu6050.o (symbol from plugin)
 .text          0x00000000        0x0 obj/main/NAZE/drivers/accgyro_mpu6500.o (symbol from plugin)
 .text          0x00000000        0x0 obj/main/NAZE/drivers/accgyro_spi_mpu6500.o (symbol from plugin)
 .text          0x00000000        0x0 obj/main/NAZE/drivers/barometer_bmp085.o (symbol from plugin)
 .text          0x00000000        0x0 obj/main/NAZE/drivers/barometer_ms5611.o (symbol from plugin)
 .text          0x00000000        0x0 obj/main/NAZE/drivers/barometer_bmp280.o (symbol from plugin)
 .text          0x00000000        0x0 obj/main/NAZE/drivers/bus_spi.o (symbol from plugin)
 .text          0x00000000        0x0 obj/main/NAZE/drivers/compass_hmc5883l.o (symbol from plugin)
 .text          0x00000000        0x0 obj/main/NAZE/drivers/display_ug2864hsweg01.o (symbol from plugin)
 .text          0x00000000        0x0 obj/main/NAZE/drivers/flash_m25p16.o (symbol from plugin)
 .text          0x00000000        0x0 obj/main/NAZE/drivers/inverter.o (symbol from plugin)
 .text          0x00000000        0x0 obj/main/NAZE/drivers/light_ws2811strip.o (symbol from plugin)
 .text          0x00000000        0x0 obj/main/NAZE/drivers/light_ws2811strip_stm32f10x.o (symbol from plugin)
 .text          0x00000000        0x0 obj/main/NAZE/drivers/sonar_hcsr04.o (symbol from plugin)
 .text          0x00000000        0x0 obj/main/NAZE/drivers/pwm_mapping.o (symbol from plugin)
 .text          0x00000000        0x0 obj/main/NAZE/drivers/pwm_output.o (symbol from plugin)
 .text          0x00000000        0x0 obj/main/NAZE/drivers/pwm_rx.o (symbol from plugin)
 .text          0x00000000        0x0 obj/main/NAZE/drivers/serial_softserial.o (symbol from plugin)
 .text          0x00000000        0x0 obj/main/NAZE/drivers/sound_beeper_stm32f10x.o (symbol from plugin)
 .text          0x00000000        0x0 obj/main/NAZE/drivers/timer.o (symbol from plugin)
 .text          0x00000000        0x0 obj/main/NAZE/drivers/timer_stm32f10x.o (symbol from plugin)
 .text          0x00000000        0x0 obj/main/NAZE/io/flashfs.o (symbol from plugin)
 .text          0x00000000        0x0 obj/main/NAZE/hardware_revision.o (symbol from plugin)
 .text          0x00000000        0x0 obj/main/NAZE/flight/gtune.o (symbol from plugin)
 .text          0x00000000        0x0 obj/main/NAZE/flight/navigation.o (symbol from plugin)
 .text          0x00000000        0x0 obj/main/NAZE/flight/gps_conversion.o (symbol from plugin)
 .text          0x00000000        0x0 obj/main/NAZE/common/colorconversion.o (symbol from plugin)
 .text          0x00000000        0x0 obj/main/NAZE/io/gps.o (symbol from plugin)
 .text          0x00000000        0x0 obj/main/NAZE/io/ledstrip.o (symbol from plugin)
 .text          0x00000000        0x0 obj/main/NAZE/io/display.o (symbol from plugin)
 .text          0x00000000        0x0 obj/main/NAZE/telemetry/telemetry.o (symbol from plugin)
 .text          0x00000000        0x0 obj/main/NAZE/telemetry/frsky.o (symbol from plugin)
 .text          0x00000000        0x0 obj/main/NAZE/telemetry/hott.o (symbol from plugin)
 .text          0x00000000        0x0 obj/main/NAZE/telemetry/smartport.o (symbol from plugin)
 .text          0x00000000        0x0 obj/main/NAZE/telemetry/ltm.o (symbol from plugin)
 .text          0x00000000        0x0 obj/main/NAZE/telemetry/mavlink.o (symbol from plugin)
 .text          0x00000000        0x0 obj/main/NAZE/telemetry/ibus.o (symbol from plugin)
 .text          0x00000000        0x0 obj/main/NAZE/sensors/sonar.o (symbol from plugin)
 .text          0x00000000        0x0 obj/main/NAZE/sensors/barometer.o (symbol from plugin)
 .text          0x00000000        0x0 obj/main/NAZE/blackbox/blackbox.o (symbol from plugin)
 .text          0x00000000        0x0 obj/main/NAZE/blackbox/blackbox_io.o (symbol from plugin)
 .text          0x00000000        0x0 obj/main/NAZE/config/feature.o (symbol from plugin)
 .text          0x00000000        0x0 obj/main/NAZE/config/profile.o (symbol from plugin)
 .text          0x00000000        0x0 obj/main/NAZE/fc/boot.o (symbol from plugin)
 .text          0x00000000        0x0 obj/main/NAZE/fc/fc_debug.o (symbol from plugin)
 .text          0x00000000        0x0 obj/main/NAZE/fc/cleanflight_fc.o (symbol from plugin)
 .text          0x00000000        0x0 obj/main/NAZE/fc/fc_tasks.o (symbol from plugin)
 .text          0x00000000        0x0 obj/main/NAZE/fc/rate_profile.o (symbol from plugin)
 .text          0x00000000        0x0 obj/main/NAZE/fc/rc_adjustments.o (symbol from plugin)
 .text          0x00000000        0x0 obj/main/NAZE/fc/rc_controls.o (symbol from plugin)
 .text          0x00000000        0x0 obj/main/NAZE/fc/rc_curves.o (symbol from plugin)
 .text          0x00000000        0x0 obj/main/NAZE/fc/fc_serial.o (symbol from plugin)
 .text          0x00000000        0x0 obj/main/NAZE/fc/config.o (symbol from plugin)
 .text          0x00000000        0x0 obj/main/NAZE/fc/runtime_config.o (symbol from plugin)
 .text          0x00000000        0x0 obj/main/NAZE/fc/msp_server_fc.o (symbol from plugin)
 .text          0x00000000        0x0 obj/main/NAZE/flight/altitudehold.o (symbol from plugin)
 .text          0x00000000        0x0 obj/main/NAZE/flight/failsafe.o (symbol from plugin)
 .text          0x00000000        0x0 obj/main/NAZE/flight/pid.o (symbol from plugin)
 .text          0x00000000        0x0 obj/main/NAZE/flight/pid_luxfloat.o (symbol from plugin)
 .text          0x00000000        0x0 obj/main/NAZE/flight/imu.o (symbol from plugin)
 .text          0x00000000        0x0 obj/main/NAZE/flight/mixer.o (symbol from plugin)
 .text          0x00000000        0x0 obj/main/NAZE/flight/servos.o (symbol from plugin)
 .text          0x00000000        0x0 obj/main/NAZE/drivers/bus_i2c_soft.o (symbol from plugin)
 .text          0x00000000        0x0 obj/main/NAZE/drivers/exti.o (symbol from plugin)
 .text          0x00000000        0x0 obj/main/NAZE/drivers/io.o (symbol from plugin)
 .text          0x00000000        0x0 obj/main/NAZE/drivers/rcc.o (symbol from plugin)
 .text          0x00000000        0x0 obj/main/NAZE/drivers/sound_beeper.o (symbol from plugin)
 .text          0x00000000        0x0 obj/main/NAZE/drivers/gyro_sync.o (symbol from plugin)
 .text          0x00000000        0x0 obj/main/NAZE/io/beeper.o (symbol from plugin)
 .text          0x00000000        0x0 obj/main/NAZE/io/gimbal.o (symbol from plugin)
 .text          0x00000000        0x0 obj/main/NAZE/io/servos.o (symbol from plugin)
 .text          0x00000000        0x0 obj/main/NAZE/io/motors.o (symbol from plugin)
 .text          0x00000000        0x0 obj/main/NAZE/io/serial_4way.o (symbol from plugin)
 .text          0x00000000        0x0 obj/main/NAZE/io/serial_4way_avrootloader.o (symbol from plugin)
 .text          0x00000000        0x0 obj/main/NAZE/io/serial_4way_stk500v2.o (symbol from plugin)
 .text          0x00000000        0x0 obj/main/NAZE/io/serial_cli.o (symbol from plugin)
 .text          0x00000000        0x0 obj/main/NAZE/io/statusindicator.o (symbol from plugin)
 .text          0x00000000        0x0 obj/main/NAZE/rx/rx.o (symbol from plugin)
 .text          0x00000000        0x0 obj/main/NAZE/rx/pwm.o (symbol from plugin)
 .text          0x00000000        0x0 obj/main/NAZE/rx/msp.o (symbol from plugin)
 .text          0x00000000        0x0 obj/main/NAZE/rx/sbus.o (symbol from plugin)
 .text          0x00000000        0x0 obj/main/NAZE/rx/sumd.o (symbol from plugin)
 .text          0x00000000        0x0 obj/main/NAZE/rx/sumh.o (symbol from plugin)
 .text          0x00000000        0x0 obj/main/NAZE/rx/spektrum.o (symbol from plugin)
 .text          0x00000000        0x0 obj/main/NAZE/rx/xbus.o (symbol from plugin)
 .text          0x00000000        0x0 obj/main/NAZE/rx/ibus.o (symbol from plugin)
 .text          0x00000000        0x0 obj/main/NAZE/rx/srxl.o (symbol from plugin)
 .text          0x00000000        0x0 obj/main/NAZE/sensors/sensors.o (symbol from plugin)
 .text          0x00000000        0x0 obj/main/NAZE/sensors/acceleration.o (symbol from plugin)
 .text          0x00000000        0x0 obj/main/NAZE/sensors/battery.o (symbol from plugin)
 .text          0x00000000        0x0 obj/main/NAZE/sensors/voltage.o (symbol from plugin)
 .text          0x00000000        0x0 obj/main/NAZE/sensors/amperage.o (symbol from plugin)
 .text          0x00000000        0x0 obj/main/NAZE/sensors/boardalignment.o (symbol from plugin)
 .text          0x00000000        0x0 obj/main/NAZE/sensors/compass.o (symbol from plugin)
 .text          0x00000000        0x0 obj/main/NAZE/sensors/gyro.o (symbol from plugin)
 .text          0x00000000        0x0 obj/main/NAZE/sensors/initialisation.o (symbol from plugin)
 .text          0x00000000        0x0 obj/main/NAZE/build/build_config.o (symbol from plugin)
 .text          0x00000000        0x0 obj/main/NAZE/build/debug.o (symbol from plugin)
 .text          0x00000000        0x0 obj/main/NAZE/build/version.o (symbol from plugin)
 .text          0x00000000        0x0 obj/main/NAZE/config/config_streamer.o (symbol from plugin)
 .text          0x00000000        0x0 obj/main/NAZE/config/parameter_group.o (symbol from plugin)
 .text          0x00000000        0x0 obj/main/NAZE/config/config_eeprom.o (symbol from plugin)
 .text          0x00000000        0x0 obj/main/NAZE/common/encoding.o (symbol from plugin)
 .text          0x00000000        0x0 obj/main/NAZE/common/filter.o (symbol from plugin)
 .text          0x00000000        0x0 obj/main/NAZE/common/maths.o (symbol from plugin)
 .text          0x00000000        0x0 obj/main/NAZE/common/printf.o (symbol from plugin)
 .text          0x00000000        0x0 obj/main/NAZE/common/streambuf.o (symbol from plugin)
 .text          0x00000000        0x0 obj/main/NAZE/common/typeconversion.o (symbol from plugin)
 .text          0x00000000        0x0 obj/main/NAZE/common/crc.o (symbol from plugin)
 .text          0x00000000        0x0 obj/main/NAZE/common/pilot.o (symbol from plugin)
 .text          0x00000000        0x0 obj/main/NAZE/drivers/buf_writer.o (symbol from plugin)
 .text          0x00000000        0x0 obj/main/NAZE/drivers/dma.o (symbol from plugin)
 .text          0x00000000        0x0 obj/main/NAZE/drivers/serial.o (symbol from plugin)
 .text          0x00000000        0x0 obj/main/NAZE/drivers/system.o (symbol from plugin)
 .text          0x00000000        0x0 obj/main/NAZE/scheduler/scheduler.o (symbol from plugin)
 .text          0x00000000        0x0 obj/main/NAZE/io/serial.o (symbol from plugin)
 .text          0x00000000        0x0 obj/main/NAZE/msp/msp.o (symbol from plugin)
 .text          0x00000000        0x0 obj/main/NAZE/msp/msp_serial.o (symbol from plugin)
 .text          0x00000000        0x0 obj/main/NAZE/msp/msp_server.o (symbol from plugin)
 .text          0x00000000        0x0 obj/main/NAZE/core_cm3.o (symbol from plugin)
 .text          0x00000000        0x0 obj/main/NAZE/system_stm32f10x.o (symbol from plugin)
 .text          0x00000000        0x0 obj/main/NAZE/stm32f10x_gpio.o (symbol from plugin)
 .text          0x00000000        0x0 obj/main/NAZE/stm32f10x_fsmc.o (symbol from plugin)
 .text          0x00000000        0x0 obj/main/NAZE/stm32f10x_exti.o (symbol from plugin)
 .text          0x00000000        0x0 obj/main/NAZE/stm32f10x_bkp.o (symbol from plugin)
 .text          0x00000000        0x0 obj/main/NAZE/stm32f10x_spi.o (symbol from plugin)
 .text          0x00000000        0x0 obj/main/NAZE/stm32f10x_adc.o (symbol from plugin)
 .text          0x00000000        0x0 obj/main/NAZE/stm32f10x_iwdg.o (symbol from plugin)
 .text          0x00000000        0x0 obj/main/NAZE/misc.o (symbol from plugin)
 .text          0x00000000        0x0 obj/main/NAZE/stm32f10x_wwdg.o (symbol from plugin)
 .text          0x00000000        0x0 obj/main/NAZE/stm32f10x_tim.o (symbol from plugin)
 .text          0x00000000        0x0 obj/main/NAZE/stm32f10x_usart.o (symbol from plugin)
 .text          0x00000000        0x0 obj/main/NAZE/stm32f10x_flash.o (symbol from plugin)
 .text          0x00000000        0x0 obj/main/NAZE/stm32f10x_rcc.o (symbol from plugin)
 .text          0x00000000        0x0 obj/main/NAZE/stm32f10x_sdio.o (symbol from plugin)
 .text          0x00000000        0x0 obj/main/NAZE/stm32f10x_i2c.o (symbol from plugin)
 .text          0x00000000        0x0 obj/main/NAZE/stm32f10x_pwr.o (symbol from plugin)
 .text          0x00000000        0x0 obj/main/NAZE/stm32f10x_rtc.o (symbol from plugin)
 .text          0x00000000        0x0 obj/main/NAZE/stm32f10x_dac.o (symbol from plugin)
 .text          0x00000000        0x0 obj/main/NAZE/stm32f10x_dbgmcu.o (symbol from plugin)
 .text          0x00000000        0x0 obj/main/NAZE/stm32f10x_dma.o (symbol from plugin)
 .text          0x00000000        0x0 c:/dev/gcc-arm-none-eabi-4_8-2014q2/bin/../lib/gcc/arm-none-eabi/4.8.4/../../../../arm-none-eabi/lib/armv7-m\libc_s.a(lib_a-atoi.o)
 .data          0x00000000        0x0 c:/dev/gcc-arm-none-eabi-4_8-2014q2/bin/../lib/gcc/arm-none-eabi/4.8.4/../../../../arm-none-eabi/lib/armv7-m\libc_s.a(lib_a-atoi.o)
 .bss           0x00000000        0x0 c:/dev/gcc-arm-none-eabi-4_8-2014q2/bin/../lib/gcc/arm-none-eabi/4.8.4/../../../../arm-none-eabi/lib/armv7-m\libc_s.a(lib_a-atoi.o)
 .text._atoi_r  0x00000000        0x8 c:/dev/gcc-arm-none-eabi-4_8-2014q2/bin/../lib/gcc/arm-none-eabi/4.8.4/../../../../arm-none-eabi/lib/armv7-m\libc_s.a(lib_a-atoi.o)
 .text          0x00000000        0x0 c:/dev/gcc-arm-none-eabi-4_8-2014q2/bin/../lib/gcc/arm-none-eabi/4.8.4/../../../../arm-none-eabi/lib/armv7-m\libc_s.a(lib_a-ctype_.o)
 .data          0x00000000        0x0 c:/dev/gcc-arm-none-eabi-4_8-2014q2/bin/../lib/gcc/arm-none-eabi/4.8.4/../../../../arm-none-eabi/lib/armv7-m\libc_s.a(lib_a-ctype_.o)
 .bss           0x00000000        0x0 c:/dev/gcc-arm-none-eabi-4_8-2014q2/bin/../lib/gcc/arm-none-eabi/4.8.4/../../../../arm-none-eabi/lib/armv7-m\libc_s.a(lib_a-ctype_.o)
 .text          0x00000000        0x0 c:/dev/gcc-arm-none-eabi-4_8-2014q2/bin/../lib/gcc/arm-none-eabi/4.8.4/../../../../arm-none-eabi/lib/armv7-m\libc_s.a(lib_a-memcpy-stub.o)
 .data          0x00000000        0x0 c:/dev/gcc-arm-none-eabi-4_8-2014q2/bin/../lib/gcc/arm-none-eabi/4.8.4/../../../../arm-none-eabi/lib/armv7-m\libc_s.a(lib_a-memcpy-stub.o)
 .bss           0x00000000        0x0 c:/dev/gcc-arm-none-eabi-4_8-2014q2/bin/../lib/gcc/arm-none-eabi/4.8.4/../../../../arm-none-eabi/lib/armv7-m\libc_s.a(lib_a-memcpy-stub.o)
 .text          0x00000000        0x0 c:/dev/gcc-arm-none-eabi-4_8-2014q2/bin/../lib/gcc/arm-none-eabi/4.8.4/../../../../arm-none-eabi/lib/armv7-m\libc_s.a(lib_a-strtok.o)
 .data          0x00000000        0x0 c:/dev/gcc-arm-none-eabi-4_8-2014q2/bin/../lib/gcc/arm-none-eabi/4.8.4/../../../../arm-none-eabi/lib/armv7-m\libc_s.a(lib_a-strtok.o)
 .bss           0x00000000        0x0 c:/dev/gcc-arm-none-eabi-4_8-2014q2/bin/../lib/gcc/arm-none-eabi/4.8.4/../../../../arm-none-eabi/lib/armv7-m\libc_s.a(lib_a-strtok.o)
 .text          0x00000000        0x0 c:/dev/gcc-arm-none-eabi-4_8-2014q2/bin/../lib/gcc/arm-none-eabi/4.8.4/../../../../arm-none-eabi/lib/armv7-m\libc_s.a(lib_a-strtok_r.o)
 .data          0x00000000        0x0 c:/dev/gcc-arm-none-eabi-4_8-2014q2/bin/../lib/gcc/arm-none-eabi/4.8.4/../../../../arm-none-eabi/lib/armv7-m\libc_s.a(lib_a-strtok_r.o)
 .bss           0x00000000        0x0 c:/dev/gcc-arm-none-eabi-4_8-2014q2/bin/../lib/gcc/arm-none-eabi/4.8.4/../../../../arm-none-eabi/lib/armv7-m\libc_s.a(lib_a-strtok_r.o)
 .text          0x00000000        0x0 c:/dev/gcc-arm-none-eabi-4_8-2014q2/bin/../lib/gcc/arm-none-eabi/4.8.4/../../../../arm-none-eabi/lib/armv7-m\libc_s.a(lib_a-strtol.o)
 .data          0x00000000        0x0 c:/dev/gcc-arm-none-eabi-4_8-2014q2/bin/../lib/gcc/arm-none-eabi/4.8.4/../../../../arm-none-eabi/lib/armv7-m\libc_s.a(lib_a-strtol.o)
 .bss           0x00000000        0x0 c:/dev/gcc-arm-none-eabi-4_8-2014q2/bin/../lib/gcc/arm-none-eabi/4.8.4/../../../../arm-none-eabi/lib/armv7-m\libc_s.a(lib_a-strtol.o)
 .text          0x00000000        0x0 c:/dev/gcc-arm-none-eabi-4_8-2014q2/bin/../lib/gcc/arm-none-eabi/4.8.4/../../../../arm-none-eabi/lib/armv7-m\libc_s.a(lib_a-impure.o)
 .data          0x00000000        0x0 c:/dev/gcc-arm-none-eabi-4_8-2014q2/bin/../lib/gcc/arm-none-eabi/4.8.4/../../../../arm-none-eabi/lib/armv7-m\libc_s.a(lib_a-impure.o)
 .bss           0x00000000        0x0 c:/dev/gcc-arm-none-eabi-4_8-2014q2/bin/../lib/gcc/arm-none-eabi/4.8.4/../../../../arm-none-eabi/lib/armv7-m\libc_s.a(lib_a-impure.o)
 .rodata._global_impure_ptr
                0x00000000        0x4 c:/dev/gcc-arm-none-eabi-4_8-2014q2/bin/../lib/gcc/arm-none-eabi/4.8.4/../../../../arm-none-eabi/lib/armv7-m\libc_s.a(lib_a-impure.o)
 .text          0x00000000        0x0 c:/dev/gcc-arm-none-eabi-4_8-2014q2/bin/../lib/gcc/arm-none-eabi/4.8.4/../../../../arm-none-eabi/lib/armv7-m\libc_s.a(lib_a-malloc.o)
 .data          0x00000000        0x0 c:/dev/gcc-arm-none-eabi-4_8-2014q2/bin/../lib/gcc/arm-none-eabi/4.8.4/../../../../arm-none-eabi/lib/armv7-m\libc_s.a(lib_a-malloc.o)
 .bss           0x00000000        0x0 c:/dev/gcc-arm-none-eabi-4_8-2014q2/bin/../lib/gcc/arm-none-eabi/4.8.4/../../../../arm-none-eabi/lib/armv7-m\libc_s.a(lib_a-malloc.o)
 .text.free     0x00000000       0x10 c:/dev/gcc-arm-none-eabi-4_8-2014q2/bin/../lib/gcc/arm-none-eabi/4.8.4/../../../../arm-none-eabi/lib/armv7-m\libc_s.a(lib_a-malloc.o)
 .text          0x00000000        0x0 c:/dev/gcc-arm-none-eabi-4_8-2014q2/bin/../lib/gcc/arm-none-eabi/4.8.4/../../../../arm-none-eabi/lib/armv7-m\libc_s.a(lib_a-nano-freer.o)
 .data          0x00000000        0x0 c:/dev/gcc-arm-none-eabi-4_8-2014q2/bin/../lib/gcc/arm-none-eabi/4.8.4/../../../../arm-none-eabi/lib/armv7-m\libc_s.a(lib_a-nano-freer.o)
 .bss           0x00000000        0x0 c:/dev/gcc-arm-none-eabi-4_8-2014q2/bin/../lib/gcc/arm-none-eabi/4.8.4/../../../../arm-none-eabi/lib/armv7-m\libc_s.a(lib_a-nano-freer.o)
 .text._free_r  0x00000000       0x88 c:/dev/gcc-arm-none-eabi-4_8-2014q2/bin/../lib/gcc/arm-none-eabi/4.8.4/../../../../arm-none-eabi/lib/armv7-m\libc_s.a(lib_a-nano-freer.o)
 .ARM.attributes
                0x00000000       0x2d c:/dev/gcc-arm-none-eabi-4_8-2014q2/bin/../lib/gcc/arm-none-eabi/4.8.4/../../../../arm-none-eabi/lib/armv7-m\libc_s.a(lib_a-nano-freer.o)
 .debug_frame   0x00000000       0x2c c:/dev/gcc-arm-none-eabi-4_8-2014q2/bin/../lib/gcc/arm-none-eabi/4.8.4/../../../../arm-none-eabi/lib/armv7-m\libc_s.a(lib_a-nano-freer.o)
 .text          0x00000000        0x0 c:/dev/gcc-arm-none-eabi-4_8-2014q2/bin/../lib/gcc/arm-none-eabi/4.8.4/../../../../arm-none-eabi/lib/armv7-m\libc_s.a(lib_a-nano-mallocr.o)
 .data          0x00000000        0x0 c:/dev/gcc-arm-none-eabi-4_8-2014q2/bin/../lib/gcc/arm-none-eabi/4.8.4/../../../../arm-none-eabi/lib/armv7-m\libc_s.a(lib_a-nano-mallocr.o)
 .bss           0x00000000        0x0 c:/dev/gcc-arm-none-eabi-4_8-2014q2/bin/../lib/gcc/arm-none-eabi/4.8.4/../../../../arm-none-eabi/lib/armv7-m\libc_s.a(lib_a-nano-mallocr.o)
 .text          0x00000000        0x0 c:/dev/gcc-arm-none-eabi-4_8-2014q2/bin/../lib/gcc/arm-none-eabi/4.8.4/../../../../arm-none-eabi/lib/armv7-m\libc_s.a(lib_a-sbrkr.o)
 .data          0x00000000        0x0 c:/dev/gcc-arm-none-eabi-4_8-2014q2/bin/../lib/gcc/arm-none-eabi/4.8.4/../../../../arm-none-eabi/lib/armv7-m\libc_s.a(lib_a-sbrkr.o)
 .bss           0x00000000        0x0 c:/dev/gcc-arm-none-eabi-4_8-2014q2/bin/../lib/gcc/arm-none-eabi/4.8.4/../../../../arm-none-eabi/lib/armv7-m\libc_s.a(lib_a-sbrkr.o)
 .text          0x00000000        0x0 c:/dev/gcc-arm-none-eabi-4_8-2014q2/bin/../lib/gcc/arm-none-eabi/4.8.4/../../../../arm-none-eabi/lib/armv7-m\libc_s.a(lib_a-reent.o)
 .data          0x00000000        0x0 c:/dev/gcc-arm-none-eabi-4_8-2014q2/bin/../lib/gcc/arm-none-eabi/4.8.4/../../../../arm-none-eabi/lib/armv7-m\libc_s.a(lib_a-reent.o)
 .bss           0x00000000        0x0 c:/dev/gcc-arm-none-eabi-4_8-2014q2/bin/../lib/gcc/arm-none-eabi/4.8.4/../../../../arm-none-eabi/lib/armv7-m\libc_s.a(lib_a-reent.o)
 .text.cleanup_glue
                0x00000000       0x1a c:/dev/gcc-arm-none-eabi-4_8-2014q2/bin/../lib/gcc/arm-none-eabi/4.8.4/../../../../arm-none-eabi/lib/armv7-m\libc_s.a(lib_a-reent.o)
 .text._reclaim_reent
                0x00000000       0xbc c:/dev/gcc-arm-none-eabi-4_8-2014q2/bin/../lib/gcc/arm-none-eabi/4.8.4/../../../../arm-none-eabi/lib/armv7-m\libc_s.a(lib_a-reent.o)
 .text          0x00000000        0x0 c:/dev/gcc-arm-none-eabi-4_8-2014q2/bin/../lib/gcc/arm-none-eabi/4.8.4/../../../../arm-none-eabi/lib/armv7-m\libnosys.a(sbrk.o)
 .data          0x00000000        0x0 c:/dev/gcc-arm-none-eabi-4_8-2014q2/bin/../lib/gcc/arm-none-eabi/4.8.4/../../../../arm-none-eabi/lib/armv7-m\libnosys.a(sbrk.o)
 .bss           0x00000000        0x0 c:/dev/gcc-arm-none-eabi-4_8-2014q2/bin/../lib/gcc/arm-none-eabi/4.8.4/../../../../arm-none-eabi/lib/armv7-m\libnosys.a(sbrk.o)
 .text          0x00000000        0x0 c:/dev/gcc-arm-none-eabi-4_8-2014q2/bin/../lib/gcc/arm-none-eabi/4.8.4/../../../../arm-none-eabi/lib/armv7-m\libm.a(lib_a-sf_log2.o)
 .data          0x00000000        0x0 c:/dev/gcc-arm-none-eabi-4_8-2014q2/bin/../lib/gcc/arm-none-eabi/4.8.4/../../../../arm-none-eabi/lib/armv7-m\libm.a(lib_a-sf_log2.o)
 .bss           0x00000000        0x0 c:/dev/gcc-arm-none-eabi-4_8-2014q2/bin/../lib/gcc/arm-none-eabi/4.8.4/../../../../arm-none-eabi/lib/armv7-m\libm.a(lib_a-sf_log2.o)
 .text          0x00000000        0x0 c:/dev/gcc-arm-none-eabi-4_8-2014q2/bin/../lib/gcc/arm-none-eabi/4.8.4/../../../../arm-none-eabi/lib/armv7-m\libm.a(lib_a-sf_lrint.o)
 .data          0x00000000        0x0 c:/dev/gcc-arm-none-eabi-4_8-2014q2/bin/../lib/gcc/arm-none-eabi/4.8.4/../../../../arm-none-eabi/lib/armv7-m\libm.a(lib_a-sf_lrint.o)
 .bss           0x00000000        0x0 c:/dev/gcc-arm-none-eabi-4_8-2014q2/bin/../lib/gcc/arm-none-eabi/4.8.4/../../../../arm-none-eabi/lib/armv7-m\libm.a(lib_a-sf_lrint.o)
 .text          0x00000000        0x0 c:/dev/gcc-arm-none-eabi-4_8-2014q2/bin/../lib/gcc/arm-none-eabi/4.8.4/../../../../arm-none-eabi/lib/armv7-m\libm.a(lib_a-wf_log.o)
 .data          0x00000000        0x0 c:/dev/gcc-arm-none-eabi-4_8-2014q2/bin/../lib/gcc/arm-none-eabi/4.8.4/../../../../arm-none-eabi/lib/armv7-m\libm.a(lib_a-wf_log.o)
 .bss           0x00000000        0x0 c:/dev/gcc-arm-none-eabi-4_8-2014q2/bin/../lib/gcc/arm-none-eabi/4.8.4/../../../../arm-none-eabi/lib/armv7-m\libm.a(lib_a-wf_log.o)
 .text          0x00000000        0x0 c:/dev/gcc-arm-none-eabi-4_8-2014q2/bin/../lib/gcc/arm-none-eabi/4.8.4/../../../../arm-none-eabi/lib/armv7-m\libm.a(lib_a-wf_pow.o)
 .data          0x00000000        0x0 c:/dev/gcc-arm-none-eabi-4_8-2014q2/bin/../lib/gcc/arm-none-eabi/4.8.4/../../../../arm-none-eabi/lib/armv7-m\libm.a(lib_a-wf_pow.o)
 .bss           0x00000000        0x0 c:/dev/gcc-arm-none-eabi-4_8-2014q2/bin/../lib/gcc/arm-none-eabi/4.8.4/../../../../arm-none-eabi/lib/armv7-m\libm.a(lib_a-wf_pow.o)
 .text          0x00000000        0x0 c:/dev/gcc-arm-none-eabi-4_8-2014q2/bin/../lib/gcc/arm-none-eabi/4.8.4/../../../../arm-none-eabi/lib/armv7-m\libm.a(lib_a-wf_sqrt.o)
 .data          0x00000000        0x0 c:/dev/gcc-arm-none-eabi-4_8-2014q2/bin/../lib/gcc/arm-none-eabi/4.8.4/../../../../arm-none-eabi/lib/armv7-m\libm.a(lib_a-wf_sqrt.o)
 .bss           0x00000000        0x0 c:/dev/gcc-arm-none-eabi-4_8-2014q2/bin/../lib/gcc/arm-none-eabi/4.8.4/../../../../arm-none-eabi/lib/armv7-m\libm.a(lib_a-wf_sqrt.o)
 .text          0x00000000        0x0 c:/dev/gcc-arm-none-eabi-4_8-2014q2/bin/../lib/gcc/arm-none-eabi/4.8.4/../../../../arm-none-eabi/lib/armv7-m\libm.a(lib_a-ef_log.o)
 .data          0x00000000        0x0 c:/dev/gcc-arm-none-eabi-4_8-2014q2/bin/../lib/gcc/arm-none-eabi/4.8.4/../../../../arm-none-eabi/lib/armv7-m\libm.a(lib_a-ef_log.o)
 .bss           0x00000000        0x0 c:/dev/gcc-arm-none-eabi-4_8-2014q2/bin/../lib/gcc/arm-none-eabi/4.8.4/../../../../arm-none-eabi/lib/armv7-m\libm.a(lib_a-ef_log.o)
 .text          0x00000000        0x0 c:/dev/gcc-arm-none-eabi-4_8-2014q2/bin/../lib/gcc/arm-none-eabi/4.8.4/../../../../arm-none-eabi/lib/armv7-m\libm.a(lib_a-ef_pow.o)
 .data          0x00000000        0x0 c:/dev/gcc-arm-none-eabi-4_8-2014q2/bin/../lib/gcc/arm-none-eabi/4.8.4/../../../../arm-none-eabi/lib/armv7-m\libm.a(lib_a-ef_pow.o)
 .bss           0x00000000        0x0 c:/dev/gcc-arm-none-eabi-4_8-2014q2/bin/../lib/gcc/arm-none-eabi/4.8.4/../../../../arm-none-eabi/lib/armv7-m\libm.a(lib_a-ef_pow.o)
 .text          0x00000000        0x0 c:/dev/gcc-arm-none-eabi-4_8-2014q2/bin/../lib/gcc/arm-none-eabi/4.8.4/../../../../arm-none-eabi/lib/armv7-m\libm.a(lib_a-ef_sqrt.o)
 .data          0x00000000        0x0 c:/dev/gcc-arm-none-eabi-4_8-2014q2/bin/../lib/gcc/arm-none-eabi/4.8.4/../../../../arm-none-eabi/lib/armv7-m\libm.a(lib_a-ef_sqrt.o)
 .bss           0x00000000        0x0 c:/dev/gcc-arm-none-eabi-4_8-2014q2/bin/../lib/gcc/arm-none-eabi/4.8.4/../../../../arm-none-eabi/lib/armv7-m\libm.a(lib_a-ef_sqrt.o)
 .text          0x00000000        0x0 c:/dev/gcc-arm-none-eabi-4_8-2014q2/bin/../lib/gcc/arm-none-eabi/4.8.4/../../../../arm-none-eabi/lib/armv7-m\libm.a(lib_a-s_lib_ver.o)
 .data          0x00000000        0x0 c:/dev/gcc-arm-none-eabi-4_8-2014q2/bin/../lib/gcc/arm-none-eabi/4.8.4/../../../../arm-none-eabi/lib/armv7-m\libm.a(lib_a-s_lib_ver.o)
 .bss           0x00000000        0x0 c:/dev/gcc-arm-none-eabi-4_8-2014q2/bin/../lib/gcc/arm-none-eabi/4.8.4/../../../../arm-none-eabi/lib/armv7-m\libm.a(lib_a-s_lib_ver.o)
 .text          0x00000000        0x0 c:/dev/gcc-arm-none-eabi-4_8-2014q2/bin/../lib/gcc/arm-none-eabi/4.8.4/../../../../arm-none-eabi/lib/armv7-m\libm.a(lib_a-s_matherr.o)
 .data          0x00000000        0x0 c:/dev/gcc-arm-none-eabi-4_8-2014q2/bin/../lib/gcc/arm-none-eabi/4.8.4/../../../../arm-none-eabi/lib/armv7-m\libm.a(lib_a-s_matherr.o)
 .bss           0x00000000        0x0 c:/dev/gcc-arm-none-eabi-4_8-2014q2/bin/../lib/gcc/arm-none-eabi/4.8.4/../../../../arm-none-eabi/lib/armv7-m\libm.a(lib_a-s_matherr.o)
 .text          0x00000000        0x0 c:/dev/gcc-arm-none-eabi-4_8-2014q2/bin/../lib/gcc/arm-none-eabi/4.8.4/../../../../arm-none-eabi/lib/armv7-m\libm.a(lib_a-s_nan.o)
 .data          0x00000000        0x0 c:/dev/gcc-arm-none-eabi-4_8-2014q2/bin/../lib/gcc/arm-none-eabi/4.8.4/../../../../arm-none-eabi/lib/armv7-m\libm.a(lib_a-s_nan.o)
 .bss           0x00000000        0x0 c:/dev/gcc-arm-none-eabi-4_8-2014q2/bin/../lib/gcc/arm-none-eabi/4.8.4/../../../../arm-none-eabi/lib/armv7-m\libm.a(lib_a-s_nan.o)
 .text          0x00000000        0x0 c:/dev/gcc-arm-none-eabi-4_8-2014q2/bin/../lib/gcc/arm-none-eabi/4.8.4/../../../../arm-none-eabi/lib/armv7-m\libm.a(lib_a-s_rint.o)
 .data          0x00000000        0x0 c:/dev/gcc-arm-none-eabi-4_8-2014q2/bin/../lib/gcc/arm-none-eabi/4.8.4/../../../../arm-none-eabi/lib/armv7-m\libm.a(lib_a-s_rint.o)
 .bss           0x00000000        0x0 c:/dev/gcc-arm-none-eabi-4_8-2014q2/bin/../lib/gcc/arm-none-eabi/4.8.4/../../../../arm-none-eabi/lib/armv7-m\libm.a(lib_a-s_rint.o)
 .text          0x00000000        0x0 c:/dev/gcc-arm-none-eabi-4_8-2014q2/bin/../lib/gcc/arm-none-eabi/4.8.4/../../../../arm-none-eabi/lib/armv7-m\libm.a(lib_a-sf_fabs.o)
 .data          0x00000000        0x0 c:/dev/gcc-arm-none-eabi-4_8-2014q2/bin/../lib/gcc/arm-none-eabi/4.8.4/../../../../arm-none-eabi/lib/armv7-m\libm.a(lib_a-sf_fabs.o)
 .bss           0x00000000        0x0 c:/dev/gcc-arm-none-eabi-4_8-2014q2/bin/../lib/gcc/arm-none-eabi/4.8.4/../../../../arm-none-eabi/lib/armv7-m\libm.a(lib_a-sf_fabs.o)
 .text          0x00000000        0x0 c:/dev/gcc-arm-none-eabi-4_8-2014q2/bin/../lib/gcc/arm-none-eabi/4.8.4/../../../../arm-none-eabi/lib/armv7-m\libm.a(lib_a-sf_finite.o)
 .data          0x00000000        0x0 c:/dev/gcc-arm-none-eabi-4_8-2014q2/bin/../lib/gcc/arm-none-eabi/4.8.4/../../../../arm-none-eabi/lib/armv7-m\libm.a(lib_a-sf_finite.o)
 .bss           0x00000000        0x0 c:/dev/gcc-arm-none-eabi-4_8-2014q2/bin/../lib/gcc/arm-none-eabi/4.8.4/../../../../arm-none-eabi/lib/armv7-m\libm.a(lib_a-sf_finite.o)
 .text          0x00000000        0x0 c:/dev/gcc-arm-none-eabi-4_8-2014q2/bin/../lib/gcc/arm-none-eabi/4.8.4/../../../../arm-none-eabi/lib/armv7-m\libm.a(lib_a-sf_fpclassify.o)
 .data          0x00000000        0x0 c:/dev/gcc-arm-none-eabi-4_8-2014q2/bin/../lib/gcc/arm-none-eabi/4.8.4/../../../../arm-none-eabi/lib/armv7-m\libm.a(lib_a-sf_fpclassify.o)
 .bss           0x00000000        0x0 c:/dev/gcc-arm-none-eabi-4_8-2014q2/bin/../lib/gcc/arm-none-eabi/4.8.4/../../../../arm-none-eabi/lib/armv7-m\libm.a(lib_a-sf_fpclassify.o)
 .text          0x00000000        0x0 c:/dev/gcc-arm-none-eabi-4_8-2014q2/bin/../lib/gcc/arm-none-eabi/4.8.4/../../../../arm-none-eabi/lib/armv7-m\libm.a(lib_a-sf_nan.o)
 .data          0x00000000        0x0 c:/dev/gcc-arm-none-eabi-4_8-2014q2/bin/../lib/gcc/arm-none-eabi/4.8.4/../../../../arm-none-eabi/lib/armv7-m\libm.a(lib_a-sf_nan.o)
 .bss           0x00000000        0x0 c:/dev/gcc-arm-none-eabi-4_8-2014q2/bin/../lib/gcc/arm-none-eabi/4.8.4/../../../../arm-none-eabi/lib/armv7-m\libm.a(lib_a-sf_nan.o)
 .text          0x00000000        0x0 c:/dev/gcc-arm-none-eabi-4_8-2014q2/bin/../lib/gcc/arm-none-eabi/4.8.4/../../../../arm-none-eabi/lib/armv7-m\libm.a(lib_a-sf_scalbn.o)
 .data          0x00000000        0x0 c:/dev/gcc-arm-none-eabi-4_8-2014q2/bin/../lib/gcc/arm-none-eabi/4.8.4/../../../../arm-none-eabi/lib/armv7-m\libm.a(lib_a-sf_scalbn.o)
 .bss           0x00000000        0x0 c:/dev/gcc-arm-none-eabi-4_8-2014q2/bin/../lib/gcc/arm-none-eabi/4.8.4/../../../../arm-none-eabi/lib/armv7-m\libm.a(lib_a-sf_scalbn.o)
 .text          0x00000000        0x0 c:/dev/gcc-arm-none-eabi-4_8-2014q2/bin/../lib/gcc/arm-none-eabi/4.8.4/../../../../arm-none-eabi/lib/armv7-m\libm.a(lib_a-sf_copysign.o)
 .data          0x00000000        0x0 c:/dev/gcc-arm-none-eabi-4_8-2014q2/bin/../lib/gcc/arm-none-eabi/4.8.4/../../../../arm-none-eabi/lib/armv7-m\libm.a(lib_a-sf_copysign.o)
 .bss           0x00000000        0x0 c:/dev/gcc-arm-none-eabi-4_8-2014q2/bin/../lib/gcc/arm-none-eabi/4.8.4/../../../../arm-none-eabi/lib/armv7-m\libm.a(lib_a-sf_copysign.o)
 .text          0x00000000        0x0 c:/dev/gcc-arm-none-eabi-4_8-2014q2/bin/../lib/gcc/arm-none-eabi/4.8.4/../../../../arm-none-eabi/lib/armv7-m\libc_s.a(lib_a-errno.o)
 .data          0x00000000        0x0 c:/dev/gcc-arm-none-eabi-4_8-2014q2/bin/../lib/gcc/arm-none-eabi/4.8.4/../../../../arm-none-eabi/lib/armv7-m\libc_s.a(lib_a-errno.o)
 .bss           0x00000000        0x0 c:/dev/gcc-arm-none-eabi-4_8-2014q2/bin/../lib/gcc/arm-none-eabi/4.8.4/../../../../arm-none-eabi/lib/armv7-m\libc_s.a(lib_a-errno.o)
 .data          0x00000000        0x0 c:/dev/gcc-arm-none-eabi-4_8-2014q2/bin/../lib/gcc/arm-none-eabi/4.8.4/armv7-m\libgcc.a(_arm_cmpdf2.o)
 .bss           0x00000000        0x0 c:/dev/gcc-arm-none-eabi-4_8-2014q2/bin/../lib/gcc/arm-none-eabi/4.8.4/armv7-m\libgcc.a(_arm_cmpdf2.o)

Memory Configuration

Name             Origin             Length             Attributes
FLASH            0x08000000         0x0001f000         xr
FLASH_CONFIG     0x0801f000         0x00001000         r
RAM              0x20000000         0x00005000         xrw
MEMORY_B1        0x60000000         0x00000000         xr
*default*        0x00000000         0xffffffff

Linker script and memory map

LOAD obj/main/NAZE/startup_stm32f10x_md_gcc.o
LOAD obj/main/NAZE/drivers/adc.o
LOAD C:\cygwin64\tmp\ccWFxnfo.ltrans0.ltrans.o
LOAD C:\cygwin64\tmp\ccWFxnfo.ltrans1.ltrans.o
LOAD C:\cygwin64\tmp\ccWFxnfo.ltrans2.ltrans.o
LOAD C:\cygwin64\tmp\ccWFxnfo.ltrans3.ltrans.o
LOAD C:\cygwin64\tmp\ccWFxnfo.ltrans4.ltrans.o
LOAD C:\cygwin64\tmp\ccWFxnfo.ltrans5.ltrans.o
LOAD C:\cygwin64\tmp\ccWFxnfo.ltrans6.ltrans.o
LOAD C:\cygwin64\tmp\ccWFxnfo.ltrans7.ltrans.o
LOAD C:\cygwin64\tmp\ccWFxnfo.ltrans8.ltrans.o
LOAD C:\cygwin64\tmp\ccWFxnfo.ltrans9.ltrans.o
LOAD C:\cygwin64\tmp\ccWFxnfo.ltrans10.ltrans.o
LOAD C:\cygwin64\tmp\ccWFxnfo.ltrans11.ltrans.o
LOAD C:\cygwin64\tmp\ccWFxnfo.ltrans12.ltrans.o
LOAD C:\cygwin64\tmp\ccWFxnfo.ltrans13.ltrans.o
LOAD C:\cygwin64\tmp\ccWFxnfo.ltrans14.ltrans.o
LOAD C:\cygwin64\tmp\ccWFxnfo.ltrans15.ltrans.o
LOAD C:\cygwin64\tmp\ccWFxnfo.ltrans16.ltrans.o
LOAD C:\cygwin64\tmp\ccWFxnfo.ltrans17.ltrans.o
LOAD C:\cygwin64\tmp\ccWFxnfo.ltrans18.ltrans.o
LOAD C:\cygwin64\tmp\ccWFxnfo.ltrans19.ltrans.o
LOAD C:\cygwin64\tmp\ccWFxnfo.ltrans20.ltrans.o
LOAD C:\cygwin64\tmp\ccWFxnfo.ltrans21.ltrans.o
LOAD C:\cygwin64\tmp\ccWFxnfo.ltrans22.ltrans.o
LOAD C:\cygwin64\tmp\ccWFxnfo.ltrans23.ltrans.o
LOAD C:\cygwin64\tmp\ccWFxnfo.ltrans24.ltrans.o
LOAD C:\cygwin64\tmp\ccWFxnfo.ltrans25.ltrans.o
LOAD C:\cygwin64\tmp\ccWFxnfo.ltrans26.ltrans.o
LOAD C:\cygwin64\tmp\ccWFxnfo.ltrans27.ltrans.o
LOAD C:\cygwin64\tmp\ccWFxnfo.ltrans28.ltrans.o
LOAD C:\cygwin64\tmp\ccWFxnfo.ltrans29.ltrans.o
LOAD C:\cygwin64\tmp\ccWFxnfo.ltrans30.ltrans.o
LOAD C:\cygwin64\tmp\ccWFxnfo.ltrans31.ltrans.o
LOAD c:/dev/gcc-arm-none-eabi-4_8-2014q2/bin/../lib/gcc/arm-none-eabi/4.8.4/armv7-m\libgcc.a
LOAD c:/dev/gcc-arm-none-eabi-4_8-2014q2/bin/../lib/gcc/arm-none-eabi/4.8.4/../../../../arm-none-eabi/lib/armv7-m\libg_s.a
LOAD c:/dev/gcc-arm-none-eabi-4_8-2014q2/bin/../lib/gcc/arm-none-eabi/4.8.4/../../../../arm-none-eabi/lib/armv7-m\libc_s.a
LOAD c:/dev/gcc-arm-none-eabi-4_8-2014q2/bin/../lib/gcc/arm-none-eabi/4.8.4/armv7-m\libgcc.a
LOAD c:/dev/gcc-arm-none-eabi-4_8-2014q2/bin/../lib/gcc/arm-none-eabi/4.8.4/../../../../arm-none-eabi/lib/armv7-m\libc_s.a
LOAD obj/main/NAZE/drivers/adc_stm32f10x.o
LOAD obj/main/NAZE/drivers/bus_i2c_stm32f10x.o
LOAD obj/main/NAZE/drivers/gpio_stm32f10x.o
LOAD obj/main/NAZE/drivers/light_led_stm32f10x.o
LOAD obj/main/NAZE/drivers/serial_uart.o
LOAD obj/main/NAZE/drivers/serial_uart_stm32f10x.o
LOAD obj/main/NAZE/drivers/system_stm32f10x.o
LOAD obj/main/NAZE/drivers/accgyro_adxl345.o
LOAD obj/main/NAZE/drivers/accgyro_bma280.o
LOAD obj/main/NAZE/drivers/accgyro_l3g4200d.o
LOAD obj/main/NAZE/drivers/accgyro_mma845x.o
LOAD obj/main/NAZE/drivers/accgyro_mpu.o
LOAD obj/main/NAZE/drivers/accgyro_mpu3050.o
LOAD obj/main/NAZE/drivers/accgyro_mpu6050.o
LOAD obj/main/NAZE/drivers/accgyro_mpu6500.o
LOAD obj/main/NAZE/drivers/accgyro_spi_mpu6500.o
LOAD obj/main/NAZE/drivers/barometer_bmp085.o
LOAD obj/main/NAZE/drivers/barometer_ms5611.o
LOAD obj/main/NAZE/drivers/barometer_bmp280.o
LOAD obj/main/NAZE/drivers/bus_spi.o
LOAD obj/main/NAZE/drivers/compass_hmc5883l.o
LOAD obj/main/NAZE/drivers/display_ug2864hsweg01.o
LOAD obj/main/NAZE/drivers/flash_m25p16.o
LOAD obj/main/NAZE/drivers/inverter.o
LOAD obj/main/NAZE/drivers/light_ws2811strip.o
LOAD obj/main/NAZE/drivers/light_ws2811strip_stm32f10x.o
LOAD obj/main/NAZE/drivers/sonar_hcsr04.o
LOAD obj/main/NAZE/drivers/pwm_mapping.o
LOAD obj/main/NAZE/drivers/pwm_output.o
LOAD obj/main/NAZE/drivers/pwm_rx.o
LOAD obj/main/NAZE/drivers/serial_softserial.o
LOAD obj/main/NAZE/drivers/sound_beeper_stm32f10x.o
LOAD obj/main/NAZE/drivers/timer.o
LOAD obj/main/NAZE/drivers/timer_stm32f10x.o
LOAD obj/main/NAZE/io/flashfs.o
LOAD obj/main/NAZE/hardware_revision.o
LOAD obj/main/NAZE/flight/gtune.o
LOAD obj/main/NAZE/flight/navigation.o
LOAD obj/main/NAZE/flight/gps_conversion.o
LOAD obj/main/NAZE/common/colorconversion.o
LOAD obj/main/NAZE/io/gps.o
LOAD obj/main/NAZE/io/ledstrip.o
LOAD obj/main/NAZE/io/display.o
LOAD obj/main/NAZE/telemetry/telemetry.o
LOAD obj/main/NAZE/telemetry/frsky.o
LOAD obj/main/NAZE/telemetry/hott.o
LOAD obj/main/NAZE/telemetry/smartport.o
LOAD obj/main/NAZE/telemetry/ltm.o
LOAD obj/main/NAZE/telemetry/mavlink.o
LOAD obj/main/NAZE/telemetry/ibus.o
LOAD obj/main/NAZE/sensors/sonar.o
LOAD obj/main/NAZE/sensors/barometer.o
LOAD obj/main/NAZE/blackbox/blackbox.o
LOAD obj/main/NAZE/blackbox/blackbox_io.o
LOAD obj/main/NAZE/config/feature.o
LOAD obj/main/NAZE/config/profile.o
LOAD obj/main/NAZE/fc/boot.o
LOAD obj/main/NAZE/fc/fc_debug.o
LOAD obj/main/NAZE/fc/cleanflight_fc.o
LOAD obj/main/NAZE/fc/fc_tasks.o
LOAD obj/main/NAZE/fc/rate_profile.o
LOAD obj/main/NAZE/fc/rc_adjustments.o
LOAD obj/main/NAZE/fc/rc_controls.o
LOAD obj/main/NAZE/fc/rc_curves.o
LOAD obj/main/NAZE/fc/fc_serial.o
LOAD obj/main/NAZE/fc/config.o
LOAD obj/main/NAZE/fc/runtime_config.o
LOAD obj/main/NAZE/fc/msp_server_fc.o
LOAD obj/main/NAZE/flight/altitudehold.o
LOAD obj/main/NAZE/flight/failsafe.o
LOAD obj/main/NAZE/flight/pid.o
LOAD obj/main/NAZE/flight/pid_luxfloat.o
LOAD obj/main/NAZE/flight/imu.o
LOAD obj/main/NAZE/flight/mixer.o
LOAD obj/main/NAZE/flight/servos.o
LOAD obj/main/NAZE/drivers/bus_i2c_soft.o
LOAD obj/main/NAZE/drivers/exti.o
LOAD obj/main/NAZE/drivers/io.o
LOAD obj/main/NAZE/drivers/rcc.o
LOAD obj/main/NAZE/drivers/sound_beeper.o
LOAD obj/main/NAZE/drivers/gyro_sync.o
LOAD obj/main/NAZE/io/beeper.o
LOAD obj/main/NAZE/io/gimbal.o
LOAD obj/main/NAZE/io/servos.o
LOAD obj/main/NAZE/io/motors.o
LOAD obj/main/NAZE/io/serial_4way.o
LOAD obj/main/NAZE/io/serial_4way_avrootloader.o
LOAD obj/main/NAZE/io/serial_4way_stk500v2.o
LOAD obj/main/NAZE/io/serial_cli.o
LOAD obj/main/NAZE/io/statusindicator.o
LOAD obj/main/NAZE/rx/rx.o
LOAD obj/main/NAZE/rx/pwm.o
LOAD obj/main/NAZE/rx/msp.o
LOAD obj/main/NAZE/rx/sbus.o
LOAD obj/main/NAZE/rx/sumd.o
LOAD obj/main/NAZE/rx/sumh.o
LOAD obj/main/NAZE/rx/spektrum.o
LOAD obj/main/NAZE/rx/xbus.o
LOAD obj/main/NAZE/rx/ibus.o
LOAD obj/main/NAZE/rx/srxl.o
LOAD obj/main/NAZE/sensors/sensors.o
LOAD obj/main/NAZE/sensors/acceleration.o
LOAD obj/main/NAZE/sensors/battery.o
LOAD obj/main/NAZE/sensors/voltage.o
LOAD obj/main/NAZE/sensors/amperage.o
LOAD obj/main/NAZE/sensors/boardalignment.o
LOAD obj/main/NAZE/sensors/compass.o
LOAD obj/main/NAZE/sensors/gyro.o
LOAD obj/main/NAZE/sensors/initialisation.o
LOAD obj/main/NAZE/build/build_config.o
LOAD obj/main/NAZE/build/debug.o
LOAD obj/main/NAZE/build/version.o
LOAD obj/main/NAZE/config/config_streamer.o
LOAD obj/main/NAZE/config/parameter_group.o
LOAD obj/main/NAZE/config/config_eeprom.o
LOAD obj/main/NAZE/common/encoding.o
LOAD obj/main/NAZE/common/filter.o
LOAD obj/main/NAZE/common/maths.o
LOAD obj/main/NAZE/common/printf.o
LOAD obj/main/NAZE/common/streambuf.o
LOAD obj/main/NAZE/common/typeconversion.o
LOAD obj/main/NAZE/common/crc.o
LOAD obj/main/NAZE/common/pilot.o
LOAD obj/main/NAZE/drivers/buf_writer.o
LOAD obj/main/NAZE/drivers/dma.o
LOAD obj/main/NAZE/drivers/serial.o
LOAD obj/main/NAZE/drivers/system.o
LOAD obj/main/NAZE/scheduler/scheduler.o
LOAD obj/main/NAZE/io/serial.o
LOAD obj/main/NAZE/msp/msp.o
LOAD obj/main/NAZE/msp/msp_serial.o
LOAD obj/main/NAZE/msp/msp_server.o
LOAD obj/main/NAZE/core_cm3.o
LOAD obj/main/NAZE/system_stm32f10x.o
LOAD obj/main/NAZE/stm32f10x_gpio.o
LOAD obj/main/NAZE/stm32f10x_fsmc.o
LOAD obj/main/NAZE/stm32f10x_exti.o
LOAD obj/main/NAZE/stm32f10x_bkp.o
LOAD obj/main/NAZE/stm32f10x_spi.o
LOAD obj/main/NAZE/stm32f10x_adc.o
LOAD obj/main/NAZE/stm32f10x_iwdg.o
LOAD obj/main/NAZE/misc.o
LOAD obj/main/NAZE/stm32f10x_wwdg.o
LOAD obj/main/NAZE/stm32f10x_tim.o
LOAD obj/main/NAZE/stm32f10x_usart.o
LOAD obj/main/NAZE/stm32f10x_flash.o
LOAD obj/main/NAZE/stm32f10x_rcc.o
LOAD obj/main/NAZE/stm32f10x_sdio.o
LOAD obj/main/NAZE/stm32f10x_i2c.o
LOAD obj/main/NAZE/stm32f10x_pwr.o
LOAD obj/main/NAZE/stm32f10x_rtc.o
LOAD obj/main/NAZE/stm32f10x_dac.o
LOAD obj/main/NAZE/stm32f10x_dbgmcu.o
LOAD obj/main/NAZE/stm32f10x_dma.o
LOAD c:/dev/gcc-arm-none-eabi-4_8-2014q2/bin/../lib/gcc/arm-none-eabi/4.8.4/../../../../arm-none-eabi/lib/armv7-m\libm.a
LOAD c:/dev/gcc-arm-none-eabi-4_8-2014q2/bin/../lib/gcc/arm-none-eabi/4.8.4/../../../../arm-none-eabi/lib/armv7-m\libc_s.a
LOAD c:/dev/gcc-arm-none-eabi-4_8-2014q2/bin/../lib/gcc/arm-none-eabi/4.8.4/../../../../arm-none-eabi/lib/armv7-m\libnosys.a
START GROUP
LOAD c:/dev/gcc-arm-none-eabi-4_8-2014q2/bin/../lib/gcc/arm-none-eabi/4.8.4/armv7-m\libgcc.a
LOAD c:/dev/gcc-arm-none-eabi-4_8-2014q2/bin/../lib/gcc/arm-none-eabi/4.8.4/../../../../arm-none-eabi/lib/armv7-m\libg_s.a
LOAD c:/dev/gcc-arm-none-eabi-4_8-2014q2/bin/../lib/gcc/arm-none-eabi/4.8.4/../../../../arm-none-eabi/lib/armv7-m\libc_s.a
END GROUP
START GROUP
LOAD c:/dev/gcc-arm-none-eabi-4_8-2014q2/bin/../lib/gcc/arm-none-eabi/4.8.4/armv7-m\libgcc.a
LOAD c:/dev/gcc-arm-none-eabi-4_8-2014q2/bin/../lib/gcc/arm-none-eabi/4.8.4/../../../../arm-none-eabi/lib/armv7-m\libc_s.a
END GROUP
                0x20005000                _estack = (ORIGIN (RAM) + 0x5000)
                0x0801f000                __config_start = (ORIGIN (FLASH) + 0x1f000)
                0x08020000                __config_end = (ORIGIN (FLASH_CONFIG) + 0x1000)
                0x00000000                _Min_Heap_Size = 0x0
                0x00000400                _Min_Stack_Size = 0x400

.isr_vector     0x08000000      0x10c
                0x08000000                . = ALIGN (0x4)
                0x08000000                PROVIDE (isr_vector_table_base, .)
 *(.isr_vector)
 .isr_vector    0x08000000      0x10c obj/main/NAZE/startup_stm32f10x_md_gcc.o
                0x08000000                g_pfnVectors
                0x0800010c                . = ALIGN (0x4)

.text           0x08000110    0x1e050
                0x08000110                . = ALIGN (0x4)
 *(.text)
 .text          0x08000110     0x1ca0 C:\cygwin64\tmp\ccWFxnfo.ltrans1.ltrans.o
                0x08000110                mspSerialProcess
 .text          0x08001db0     0x1d30 C:\cygwin64\tmp\ccWFxnfo.ltrans2.ltrans.o
                0x08001db0                taskPid
 .text          0x08003ae0     0x1510 C:\cygwin64\tmp\ccWFxnfo.ltrans3.ltrans.o
                0x08003ae0                taskTelemetry
 .text          0x08004ff0     0x1294 C:\cygwin64\tmp\ccWFxnfo.ltrans4.ltrans.o
                0x08004ff0                taskUpdateRxMain
 .text          0x08006284      0xe34 C:\cygwin64\tmp\ccWFxnfo.ltrans5.ltrans.o
                0x0800637c                cliColor.16497
                0x08006440                cliModeColor.16492
                0x080064fc                cliMixer.16447
                0x08006598                cliSet.16453
                0x08006770                cliMap.16424
                0x08006808                cliMotorMix.16421
                0x08006a08                cliMotor.16418
                0x08006aa4                gpsNewFrame
                0x0800708a                tfp_sprintf.constprop.90
 .text          0x080070b8      0xc84 C:\cygwin64\tmp\ccWFxnfo.ltrans6.ltrans.o
                0x080070b8                ws2811DMAHandler
                0x08007136                nopConsumer.20174
                0x08007138                taskSystem
                0x08007170                srxlDataReceive.17987
                0x080071fc                ibusDataReceive.17892
                0x0800723c                xBusDataReceive.17785
                0x080072bc                spektrumDataReceive.17640
                0x08007308                sumhDataReceive.17536
                0x0800734c                itoa.constprop.0
                0x0800736a                ftoa
                0x08007438                DMA_StructInit
                0x08007452                DMA_Init
                0x0800748e                DMA_DeInit
                0x0800757c                RCC_GetClocksFreq
                0x08007610                RCC_APB1PeriphResetCmd.part.6.22391
                0x08007620                write_word.19021
                0x080076f0                config_streamer_write
                0x08007726                TIM_ICInit
                0x0800794c                pwmICConfig
                0x08007988                pwmEdgeCallback.6811
                0x080079e0                NVIC_Init.part.0.21479
                0x08007a2c                GPIO_Init
                0x08007ac8                serialRemovePort
                0x08007af4                closeSerialPort
                0x08007b18                determinePortSharing
                0x08007b2c                findSerialPortUsageByIdentifier
                0x08007b48                setTaskEnabled
                0x08007c14                delayMicroseconds
                0x08007c2a                delay
                0x08007c3e                waitForSerialPortToFinishTransmitting
                0x08007c54                failureMode
                0x08007cf8                mpu3050Init.5110
 .text          0x08007d3c      0xfa8 C:\cygwin64\tmp\ccWFxnfo.ltrans7.ltrans.o
                0x08007d3c                pgResetFn_voltageMeterConfig
                0x08007d4c                pgResetFn_accelerometerConfig
                0x08007d80                srxlReadRawRC.17990
                0x08007d8c                ibusFrameStatus
                0x08007df0                ibusReadRawRC.17895
                0x08007e00                xBusReadRawRC.17788
                0x08007e14                spektrumReadRawRC.17652
                0x08007e40                spektrumFrameStatus
                0x08007ea8                sumhFrameStatus
                0x08007f0c                sumhReadRawRC.17539
                0x08007f24                sumdFrameStatus
                0x08007f9c                sumdReadRawRC.17438
                0x08007fb0                sbusFrameStatus
                0x080080e8                sbusReadRawRC.17309
                0x08008114                rxMspFrameStatus
                0x08008128                rxMspReadRawRC.17252
                0x08008134                pwmReadRawRC.17222
                0x08008140                ppmReadRawRC.17206
                0x0800814c                nullFrameStatus.16991
                0x08008150                nullReadRawRC.16987
                0x08008154                pgResetFn_channelRanges
                0x0800816c                taskGyroCheck
                0x080081bc                mpuIntExtiHandler
                0x080081ec                beepInverted.15518
                0x08008200                beepNormal.15514
                0x08008214                pgResetFn_servoProfile
                0x08008234                taskHardwareWatchdog
                0x08008236                taskPidCheck
                0x08008270                pgResetFn_colors
                0x08008284                pgResetFn_gpsConfig
                0x0800828a                pgResetFn_amperageMeterConfig
                0x08008298                pgResetFn_serialConfig
                0x080082e4                pgResetFn_controlRateProfiles
                0x08008304                pgResetFn_specialColors
                0x08008310                pgResetFn_modeColors
                0x0800831c                pgResetFn_ledConfigs
                0x08008328                alignSensors
                0x08008444                crc16Byte.16023
                0x08008468                systemBeep
                0x08008478                IOGetByTag
                0x080084c8                EXTI_IRQHandler
                0x08008500                loadCustomServoMixer
                0x0800854c                determineServoMiddleOrForwardFromChannel
                0x08008580                imuComputeRotationMatrix.14611
                0x080086ac                getdT
                0x080086e0                findBoxByBoxId.13379
                0x080086fc                generateThrottleCurve
                0x0800878c                generateYawCurve
                0x080087c0                generatePitchRollCurve
                0x080087fc                rcModeIsActivationConditionPresent
                0x0800881e                featureClear
                0x08008830                blackboxAdvanceIterationTimers.10740
                0x0800886c                mavlinkStreamTrigger.9898
                0x080088a8                crc_accumulate.9869
                0x080088c4                GPStoDDDMM_MMMM.9000
                0x08008918                getLedQuadrant.8593
                0x080089a8                shiftPacketLog.8191
                0x080089c0                GPS_distance_cm_bearing.isra.3.7934
                0x08008a44                GPS_calc_longitude_scaling.7910
                0x08008a80                GPS_reset_home_position
                0x08008ad4                gpsUsePIDs
                0x08008b74                wrap_18000.7902
                0x08008b98                flashfsGetDirtyDataBuffers.7621
                0x08008bd0                flashfsGetOffset
                0x08008bf0                flashfsTransmitBufferUsed.7617
                0x08008c10                flashfsClearBuffer.7613
                0x08008c24                timCCxHandler.7328
                0x08008caa                lookupTimerIndex.7318
 .text          0x08008ce4      0xbf0 C:\cygwin64\tmp\ccWFxnfo.ltrans8.ltrans.o
                0x08008ce4                xBusFrameStatus
                0x08008dd4                tfp_format
                0x08008f5c                cliPrintf.16316
                0x08008f84                cliPrintVar.16383
                0x08009058                cliGet.16390
                0x080090b4                dumpValues.16387
                0x080090f8                cliServo.16347
                0x08009208                cliServoMix.16344
                0x080094f8                cliHelp.16332
                0x0800953c                cliShowArgumentRangeError.16322
                0x08009554                cliRxRange.16415
                0x08009610                cliVersion.16319
                0x08009644                tfp_printf
                0x08009684                mavlinkSerialWrite.10011.constprop.83
                0x080096a8                mavlink_msg_to_send_buffer.9921.constprop.82
                0x080096d4                mavlink_finalize_message_chan.9883.constprop.80
                0x0800976c                sonarRead
                0x080097f4                getLatestVoltageForADCChannel.constprop.55
                0x08009824                suspendRxSignal
                0x08009854                parseRcChannels.constprop.26
                0x08009888                findNextSharedSerialPort.constprop.22
 .text          0x080098d4      0x9b4 C:\cygwin64\tmp\ccWFxnfo.ltrans9.ltrans.o
                0x080098d4                taskProcessGPS
                0x08009b78                gpsHandlePassthrough.8171
                0x08009c48                cliFeature.16436
                0x08009d3c                blackboxLogIteration.10760
 .text          0x0800a288      0x9d4 C:\cygwin64\tmp\ccWFxnfo.ltrans10.ltrans.o
                0x0800a2e4                cliPutp.16311
                0x0800a302                beeperSilence
                0x0800a344                beeper
                0x0800a388                taskUpdateBattery
                0x0800a5c0                beeperConfirmationBeeps
                0x0800a5f0                enableFlightMode
                0x0800a610                failsafeActivate.14251
                0x0800a64c                disableFlightMode
                0x0800a66c                GPS_set_next_wp
                0x0800a6f8                EXTIConfig
                0x0800a7f0                timerConfigure
                0x0800a842                openSoftSerial
                0x0800a99e                cliWrite.16335
                0x0800a9c0                pwmOutConfig.6599
 .text          0x0800ac5c      0xb0c C:\cygwin64\tmp\ccWFxnfo.ltrans11.ltrans.o
                0x0800ac5c                applyLarsonScannerLayer.8645
                0x0800ad0c                taskUpdateBaro
                0x0800addc                taskLedStrip
                0x0800b08c                taskUpdateSonar
                0x0800b0d0                taskCalculateAltitude
                0x0800b5dc                mpu6500ReadRegister
                0x0800b608                reevaluateLedConfig
                0x0800b6c4                isCalibrating
                0x0800b6fc                m25p16_waitForReady
                0x0800b71c                m25p16_readBytes
 .text          0x0800b768      0xb10 C:\cygwin64\tmp\ccWFxnfo.ltrans12.ltrans.o
                0x0800b768                pgResetFn_failsafeChannelConfigs
                0x0800b828                applyLedWarningLayer.8620
                0x0800b8ec                applyLedGpsLayer.8624
                0x0800b980                applyLedBatteryLayer.8679
                0x0800b9dc                cliStatus.16341
                0x0800bb4a                cliRxFail.16403
                0x0800bc64                cliAdjustmentRange.16471
                0x0800bd8c                cliAux.16465
                0x0800be68                uartSetMode
                0x0800be6e                uartSetBaudRate
                0x0800be74                dmaSetHandler
                0x0800bed0                calculateThrottleStatus.constprop.61
                0x0800bf10                getRxfailValue.17024
                0x0800bf78                calculateMotorOff
                0x0800bf9c                mixerResetDisarmedMotors
                0x0800bfb4                writeMotors
                0x0800c060                stopMotors
                0x0800c094                cliReboot.16398
                0x0800c0d0                cliExit.16439
                0x0800c110                mspRebootFn
                0x0800c130                telemetryDetermineEnabledState
                0x0800c164                bmp085InitXCLRGpio
                0x0800c194                resumeRxSignal
                0x0800c1c4                isRangeActive.part.0.12758
                0x0800c20c                batteryCapacityRemainingPercentage
                0x0800c25c                gpsSetState.8203
 .text          0x0800c278      0x920 C:\cygwin64\tmp\ccWFxnfo.ltrans13.ltrans.o
                0x0800c278                spiTransfer.constprop.140
                0x0800c2d8                m25p16_isReady
                0x0800c320                spiTransferByte.constprop.139
                0x0800c358                mpu6500WriteRegister
                0x0800c378                i2cInit
                0x0800c598                i2cWrite
                0x0800c61c                bmp280_start_up.5658
                0x0800c624                ms5611_start_up.5582
                0x0800c62c                ms5611_start_ut.5584
                0x0800c634                bmp085_start_up.5454
                0x0800c658                bmp085_start_ut.5456
                0x0800c66c                mpuWriteRegisterI2C.5022
                0x0800c676                mma8452Init.4961
                0x0800c704                bma280Init.4874
                0x0800c724                adxl345Init.4837
                0x0800c778                i2cRead
                0x0800c7f8                hmc5883lRead
                0x0800c870                bmp280_get_up.5656
                0x0800c8e4                ms5611_get_ut.5577
                0x0800c8f4                ms5611_get_up.5575
                0x0800c904                bmp085_get_up.5460
                0x0800c950                bmp085_get_ut.5464
                0x0800c984                mpuReadRegisterI2C.5026
                0x0800c998                mma8452Read.4953
                0x0800c9f2                bma280Read.4868
                0x0800ca38                adxl345Read.4831
                0x0800cb08                i2c_er_handler.4173
 .text          0x0800cb98      0xbc0 C:\cygwin64\tmp\ccWFxnfo.ltrans14.ltrans.o
                0x0800cb98                putcp.19435
                0x0800cba2                biquadFilterApply
                0x0800cbfa                nullFilterApply
                0x0800cbfe                micros
                0x0800cc34                sumdDataReceive.17430
                0x0800ccc4                sbusDataReceive.17306
                0x0800cd64                BL_SendBuf.16032
                0x0800cdd4                hcsr04_extiHandler
                0x0800ce0c                serialEndWrite
                0x0800ce18                serialBeginWrite
                0x0800ce24                serialSetMode
                0x0800ce2e                isSerialTransmitBufferEmpty
                0x0800ce38                serialSetBaudRate
                0x0800ce42                serialRead
                0x0800ce4c                serialTxBytesFree
                0x0800ce56                serialRxBytesWaiting
                0x0800ce60                flushHottRxBuffer.9364
                0x0800ce7c                serialWrite
                0x0800ce86                serialWriteBuf
                0x0800ceba                serialWriteBufShim
                0x0800cebc                writeByte.15769
                0x0800cedc                writeByteCrc.15805
                0x0800cf10                _putc.19447
                0x0800cf1c                transmitIbusPacket.10304
                0x0800cf74                sendIbusMeasurement.10314
                0x0800cf9c                ltm_initialise_packet.9721
                0x0800cfcc                ltm_serialise_8.9724
                0x0800cff0                ltm_serialise_32.9730
                0x0800d012                ltm_serialise_16.9727
                0x0800d024                ltm_finalise.9733
                0x0800d074                smartPortSendPackage.9552
                0x0800d0dc                sendDataHead.9008
                0x0800d0f8                sendTelemetryTail.9011
                0x0800d134                serialize16.9018
                0x0800d14a                sendLatLong.9039
                0x0800d1c2                DMA_IRQHandler
                0x0800d1d8                bufWriterFlush
                0x0800d1f0                cliPrint.16327
                0x0800d21c                cliPrompt.16396
                0x0800d238                cliShowParseError.16330
                0x0800d240                fastA2F
                0x0800d36c                ui2a
                0x0800d3bc                uli2a
                0x0800d40c                _i2a.19603
                0x0800d434                sbufWriteData
                0x0800d448                sbufReadU32
                0x0800d474                sbufReadU16
                0x0800d48a                sbufWriteU32
                0x0800d4b2                sbufWriteU16
                0x0800d4c6                putchw.19439
                0x0800d51a                applyDeadband
                0x0800d538                biquadFilterInit.19253
                0x0800d63c                biquadFilterInitLPF
                0x0800d654                biquadFilterCalculateNotchQ.19247
                0x0800d69c                pgResetInstance.19078
                0x0800d6e0                pgResetCurrent
                0x0800d6f2                cliVarPtr.16350
 .text          0x0800d758      0xe68 C:\cygwin64\tmp\ccWFxnfo.ltrans15.ltrans.o
                0x0800d758                srxlFrameStatus
                0x0800d7ec                taskUpdateAttitude
                0x0800e14c                taskUpdateRxCheck
                0x0800e2a4                cliRateProfile.16476
                0x0800e2f8                cliDefaults.16442
                0x0800e314                findSerialPortConfig
                0x0800e34c                pidInitFilters
                0x0800e3d0                suart_getc.16039
                0x0800e458                BL_GetACK.16046
                0x0800e470                BL_SendCMDSetAddress.isra.1.16057
                0x0800e4b2                BL_WriteA.16072
                0x0800e52a                BL_ReadA.16064
 .text          0x0800e5c0      0x844 C:\cygwin64\tmp\ccWFxnfo.ltrans16.ltrans.o
                0x0800e5c0                applyLedThrustRingLayer.8612
                0x0800e664                cliFlashInfo.16430
                0x0800e69c                uartReconfigure.4503
                0x0800e7b4                timerChConfigCallbacks
                0x0800e85c                i2c_ev_handler.4159
                0x0800eb08                uartStartTxDMA
                0x0800eb3a                UART_TX_DMA_IRQHandler
                0x0800eb76                ws2811UpdateStrip
                0x0800ec64                applyLedHsv.8616
                0x0800ec98                applyLedRssiLayer.8661
                0x0800ed00                loadMainState.10734
 .text          0x0800ee04      0xa14 C:\cygwin64\tmp\ccWFxnfo.ltrans17.ltrans.o
                0x0800ee04                sensorsAutodetect
 .text          0x0800f818      0x8dc C:\cygwin64\tmp\ccWFxnfo.ltrans18.ltrans.o
                0x0800fa28                msp4WayIfFn
                0x0800fa3c                flashfsFlushSync
                0x0800fa6c                flashfsFlushAsync
                0x0800faac                blackboxDeviceReserveBufferSpace
                0x0800fb08                blackboxDeviceFlushForce
                0x0800fb28                blackboxWrite
                0x0800fb74                sendFieldDefinition.10713
                0x0800fce0                blackboxWriteTag2_3S32
                0x0800fe16                blackboxWriteUnsignedVB
                0x0800fe34                blackboxWriteSignedVB
                0x0800fe3c                blackboxLogEvent
                0x0800feec                blackboxLogInflightAdjustmentEvent
                0x0800ff14                setAdjustment.12571.constprop.20
                0x0800ff32                mwDisarm
                0x0800ff9c                writeGPSFrame.10711
                0x08010028                blackboxWriteSigned16VBArray.constprop.57
                0x08010046                blackboxWriteSignedVBArray.constprop.56
                0x0801005e                blackboxWriteMainStateArrayUsingAveragePredictor.10705
                0x080100a0                blackboxPrintfHeaderLine
                0x080100f0                _putc.11114
 .text          0x080100f4      0xa80 C:\cygwin64\tmp\ccWFxnfo.ltrans19.ltrans.o
                0x080100f4                taskGyro
                0x080103e8                ReadBit.16147
                0x08010498                StkSendByte.16139
                0x0801052c                StkSendPacketFooter.16145
                0x0801056c                EXTIEnable
                0x08010598                hmc5883lInit
                0x08010830                mpu6500AccInit
                0x08010840                mpu6500GyroInit
                0x08010900                mpu6050AccInit.5156
                0x08010928                mpu6050GyroInit.5173
                0x080109b0                mspSerialReleasePortIfAllocated
                0x080109e8                serialPassthrough.constprop.94
                0x08010b28                cliGpsPassthrough.16427
                0x08010b64                mspSerialPassthroughFn
 .text          0x08010b74      0x978 C:\cygwin64\tmp\ccWFxnfo.ltrans20.ltrans.o
                0x08010b74                cliProfile.16481
                0x08010ba8                cliDump.16500
                0x08010f0c                esc4wayProcess
 .text          0x080114ec      0x81c C:\cygwin64\tmp\ccWFxnfo.ltrans21.ltrans.o
                0x080114ec                ppmOverflowCallback.6815
                0x0801152c                applyLedBlinkLayer.8667
                0x080115a8                uartWrite
                0x080115d6                cliLed.16486
                0x080117f8                applyLedIndicatorLayer.8673
                0x080118c8                mspSerialEncode
                0x08011950                doesConfigurationUsePort
                0x08011978                configTimeBase
                0x08011a20                pgActivateProfile
                0x08011a58                blackboxPrintf
                0x08011a7c                isBlackboxDeviceFull
                0x08011aa8                serialICConfig.7092
                0x08011ace                onSerialTimer
                0x08011be0                onSerialRxPinChange
                0x08011c7c                scanEEPROM.part.4.19147
                0x08011cc4                pgReset
                0x08011cde                flashfsAdvanceTailInBuffer.7625
 .text          0x08011d08      0x848 C:\cygwin64\tmp\ccWFxnfo.ltrans22.ltrans.o
                0x08011d08                cliSerial.16393
                0x08011e58                cliTasks.16338
                0x08011f54                resetConf.13112
                0x0801201c                writeEEPROM
                0x08012214                cliSave.16400
                0x0801222c                usartIrqHandler
                0x08012292                StkSendPacketHeader.16142
                0x080122f4                readByteCrc.15803
                0x08012338                StkRcvPacket.16159
                0x08012420                Stk_SignOn
                0x0801244c                _CMD_LOAD_ADDRESS.isra.1.16182
                0x080124a0                _CMD_PROGRAM_MEM_ISP.16176
                0x08012518                _CMD_READ_MEM_ISP.16168
 .text          0x08012550      0x6d8 C:\cygwin64\tmp\ccWFxnfo.ltrans23.ltrans.o
                0x080128ae                openSerialPort
                0x0801293c                telemetryCheckState
                0x08012bfc                workAroundForHottTelemetryOnUsart.isra.0.9375
 .text          0x08012c28      0x8e8 C:\cygwin64\tmp\ccWFxnfo.ltrans24.ltrans.o
                0x08012c28                taskUpdateBeeper
                0x08012d48                gpsNewData.part.2.8213
                0x080134a0                flashfsEraseCompletely
                0x080134e4                cliFlashErase.16433
 .text          0x08013510      0x784 C:\cygwin64\tmp\ccWFxnfo.ltrans25.ltrans.o
                0x08013510                readEEPROM
                0x080138fc                changeProfile
                0x08013918                saveConfigAndNotify
                0x0801392c                taskUpdateCompass
                0x08013a6c                taskUpdateAccelerometer
 .text          0x08013c94      0x938 C:\cygwin64\tmp\ccWFxnfo.ltrans26.ltrans.o
                0x08013c94                softSerialWriteByte
                0x08013cb2                softSerialTxBytesFree
                0x08013cd4                softSerialRxBytesWaiting
                0x08013cee                softSerialReadByte
                0x08013d1a                isSoftSerialTransmitBufferEmpty
                0x08013d26                softSerialSetMode
                0x08013d2a                ppmEdgeCallback.6819
                0x08013e98                pwmOverflowCallback.6807
                0x08013ec0                pwmWriteStandard.6532
                0x08013ed0                pwmWriteBrushed.6528
                0x08013ef4                hmc5883_extiHandler
                0x08013ef6                bmp280_calculate.5652
                0x080140d4                bmp280_get_ut.5644
                0x080140d6                bmp280_start_ut.5642
                0x080140d8                ms5611_calculate.5569
                0x08014280                bmp085_calculate.5448
                0x0801435c                bmp085_extiHandler
                0x08014368                mpu6500ReadTemp.5226
                0x080143a0                mpu3050ReadTemp.5104
                0x080143d8                mpuGyroRead
                0x08014420                mpuAccRead
                0x08014468                uartRead
                0x08014498                uartTotalRxBytesWaiting
                0x080144b8                isUartTransmitBufferEmpty
                0x080144ce                uartTotalTxBytesFree
                0x080144f6                applyChangedBits
                0x08014520                setTxSignal
                0x08014540                pwmWriteServo
                0x08014558                gpioInit
 .text          0x080145cc      0x334 C:\cygwin64\tmp\ccWFxnfo.ltrans27.ltrans.o
                0x080145cc                mwArm
 .text          0x08014900      0x424 C:\cygwin64\tmp\ccWFxnfo.ltrans28.ltrans.o
                0x08014900                cliSerialPassthrough.16459
                0x08014a3c                taskHandleSerial
                0x08014c5c                mspSerialAllocatePorts
 .text          0x08014d24      0x134 C:\cygwin64\tmp\ccWFxnfo.ltrans29.ltrans.o
                0x08014d24                initSpi2
                0x08014dd0                spektrumInit.constprop.42
 .text          0x08014e58      0x1b8 C:\cygwin64\tmp\ccWFxnfo.ltrans30.ltrans.o
                0x08014e58                sinf
                0x08014f40                cosf
                0x08014f54                EXTI15_10_IRQHandler
                0x08014f58                EXTI9_5_IRQHandler
                0x08014f5c                EXTI4_IRQHandler
                0x08014f60                EXTI3_IRQHandler
                0x08014f64                EXTI2_IRQHandler
                0x08014f68                EXTI1_IRQHandler
                0x08014f6c                EXTI0_IRQHandler
                0x08014f70                HardFault_Handler
                0x08014f8c                TIM4_IRQHandler
                0x08014f9c                TIM3_IRQHandler
                0x08014fac                TIM2_IRQHandler
                0x08014fbc                TIM1_UP_IRQHandler
                0x08014fcc                TIM1_CC_IRQHandler
                0x08014fdc                USART3_IRQHandler
                0x08014fe8                USART2_IRQHandler
                0x08014ff4                USART1_IRQHandler
                0x08015000                I2C2_ER_IRQHandler
                0x08015004                I2C1_ER_IRQHandler
                0x08015008                I2C2_EV_IRQHandler
                0x0801500c                I2C1_EV_IRQHandler
 .text          0x08015010      0x22c C:\cygwin64\tmp\ccWFxnfo.ltrans31.ltrans.o
                0x08015010                SystemInit
                0x0801505c                SysTick_Handler
                0x0801506c                DMA1_Channel7_IRQHandler
                0x08015078                DMA1_Channel6_IRQHandler
                0x08015084                DMA1_Channel5_IRQHandler
                0x08015090                DMA1_Channel4_IRQHandler
                0x0801509c                DMA1_Channel3_IRQHandler
                0x080150a8                DMA1_Channel2_IRQHandler
                0x080150b4                DMA1_Channel1_IRQHandler
                0x080150c0                acosf
                0x08015138                atan2f
 .text          0x0801523c      0x370 c:/dev/gcc-arm-none-eabi-4_8-2014q2/bin/../lib/gcc/arm-none-eabi/4.8.4/armv7-m\libgcc.a(_arm_addsubdf3.o)
                0x0801523c                __aeabi_drsub
                0x08015244                __aeabi_dsub
                0x08015244                __subdf3
                0x08015248                __aeabi_dadd
                0x08015248                __adddf3
                0x080154c0                __floatunsidf
                0x080154c0                __aeabi_ui2d
                0x080154e0                __floatsidf
                0x080154e0                __aeabi_i2d
                0x08015504                __aeabi_f2d
                0x08015504                __extendsfdf2
                0x08015540                __floatundidf
                0x08015540                __aeabi_ul2d
                0x08015550                __floatdidf
                0x08015550                __aeabi_l2d
 .text          0x080155ac      0x424 c:/dev/gcc-arm-none-eabi-4_8-2014q2/bin/../lib/gcc/arm-none-eabi/4.8.4/armv7-m\libgcc.a(_arm_muldivdf3.o)
                0x080155ac                __aeabi_dmul
                0x080155ac                __muldf3
                0x08015800                __divdf3
                0x08015800                __aeabi_ddiv
 .text          0x080159d0       0xa0 c:/dev/gcc-arm-none-eabi-4_8-2014q2/bin/../lib/gcc/arm-none-eabi/4.8.4/armv7-m\libgcc.a(_arm_truncdfsf2.o)
                0x080159d0                __truncdfsf2
                0x080159d0                __aeabi_d2f
 .text          0x08015a70      0x21c c:/dev/gcc-arm-none-eabi-4_8-2014q2/bin/../lib/gcc/arm-none-eabi/4.8.4/armv7-m\libgcc.a(_arm_addsubsf3.o)
                0x08015a70                __aeabi_frsub
                0x08015a78                __subsf3
                0x08015a78                __aeabi_fsub
                0x08015a7c                __aeabi_fadd
                0x08015a7c                __addsf3
                0x08015bdc                __aeabi_ui2f
                0x08015bdc                __floatunsisf
                0x08015be4                __aeabi_i2f
                0x08015be4                __floatsisf
                0x08015c00                __aeabi_ul2f
                0x08015c00                __floatundisf
                0x08015c10                __aeabi_l2f
                0x08015c10                __floatdisf
 .text          0x08015c8c      0x2a0 c:/dev/gcc-arm-none-eabi-4_8-2014q2/bin/../lib/gcc/arm-none-eabi/4.8.4/armv7-m\libgcc.a(_arm_muldivsf3.o)
                0x08015c8c                __mulsf3
                0x08015c8c                __aeabi_fmul
                0x08015df4                __aeabi_fdiv
                0x08015df4                __divsf3
 .text          0x08015f2c       0xec c:/dev/gcc-arm-none-eabi-4_8-2014q2/bin/../lib/gcc/arm-none-eabi/4.8.4/armv7-m\libgcc.a(_arm_cmpsf2.o)
                0x08015f2c                __gesf2
                0x08015f2c                __gtsf2
                0x08015f34                __lesf2
                0x08015f34                __ltsf2
                0x08015f3c                __nesf2
                0x08015f3c                __eqsf2
                0x08015f3c                __cmpsf2
                0x08015f9c                __aeabi_cfrcmple
                0x08015fa4                __aeabi_cfcmpeq
                0x08015fa4                __aeabi_cfcmple
                0x08015fb4                __aeabi_fcmpeq
                0x08015fc8                __aeabi_fcmplt
                0x08015fdc                __aeabi_fcmple
                0x08015ff0                __aeabi_fcmpge
                0x08016004                __aeabi_fcmpgt
 .text          0x08016018       0x4c c:/dev/gcc-arm-none-eabi-4_8-2014q2/bin/../lib/gcc/arm-none-eabi/4.8.4/armv7-m\libgcc.a(_arm_fixsfsi.o)
                0x08016018                __aeabi_f2iz
                0x08016018                __fixsfsi
 .text          0x08016064       0x40 c:/dev/gcc-arm-none-eabi-4_8-2014q2/bin/../lib/gcc/arm-none-eabi/4.8.4/armv7-m\libgcc.a(_arm_fixunssfsi.o)
                0x08016064                __fixunssfsi
                0x08016064                __aeabi_f2uiz
 .text          0x080160a4       0x38 c:/dev/gcc-arm-none-eabi-4_8-2014q2/bin/../lib/gcc/arm-none-eabi/4.8.4/armv7-m\libgcc.a(_aeabi_ldivmod.o)
                0x080160a4                __aeabi_ldivmod
 .text          0x080160dc       0x24 c:/dev/gcc-arm-none-eabi-4_8-2014q2/bin/../lib/gcc/arm-none-eabi/4.8.4/armv7-m\libgcc.a(_popcountsi2.o)
                0x080160dc                __popcountsi2
 .text          0x08016100       0x60 c:/dev/gcc-arm-none-eabi-4_8-2014q2/bin/../lib/gcc/arm-none-eabi/4.8.4/armv7-m\libgcc.a(bpabi.o)
                0x08016100                __gnu_ldivmod_helper
                0x08016130                __gnu_uldivmod_helper
 .text          0x08016160        0x4 c:/dev/gcc-arm-none-eabi-4_8-2014q2/bin/../lib/gcc/arm-none-eabi/4.8.4/armv7-m\libgcc.a(_dvmd_tls.o)
                0x08016160                __aeabi_idiv0
                0x08016160                __aeabi_ldiv0
 .text          0x08016164      0x2a0 c:/dev/gcc-arm-none-eabi-4_8-2014q2/bin/../lib/gcc/arm-none-eabi/4.8.4/armv7-m\libgcc.a(_divdi3.o)
                0x08016164                __divdi3
 .text          0x08016404      0x290 c:/dev/gcc-arm-none-eabi-4_8-2014q2/bin/../lib/gcc/arm-none-eabi/4.8.4/armv7-m\libgcc.a(_udivdi3.o)
                0x08016404                __udivdi3
 .text          0x08016694      0x110 c:/dev/gcc-arm-none-eabi-4_8-2014q2/bin/../lib/gcc/arm-none-eabi/4.8.4/armv7-m\libgcc.a(_arm_cmpdf2.o)
                0x08016694                __gtdf2
                0x08016694                __gedf2
                0x0801669c                __ltdf2
                0x0801669c                __ledf2
                0x080166a4                __nedf2
                0x080166a4                __eqdf2
                0x080166a4                __cmpdf2
                0x08016720                __aeabi_cdrcmple
                0x08016730                __aeabi_cdcmpeq
                0x08016730                __aeabi_cdcmple
                0x08016740                __aeabi_dcmpeq
                0x08016754                __aeabi_dcmplt
                0x08016768                __aeabi_dcmple
                0x0801677c                __aeabi_dcmpge
                0x08016790                __aeabi_dcmpgt
 *(.text*)
 .text.Reset_Handler
                0x080167a4       0xac obj/main/NAZE/startup_stm32f10x_md_gcc.o
                0x080167a4                Reset_Handler
 .text.Default_Handler
                0x08016850        0x4 obj/main/NAZE/startup_stm32f10x_md_gcc.o
                0x08016850                DebugMon_Handler
                0x08016850                PVD_IRQHandler
                0x08016850                PendSV_Handler
                0x08016850                NMI_Handler
                0x08016850                UsageFault_Handler
                0x08016850                ADC1_2_IRQHandler
                0x08016850                SPI1_IRQHandler
                0x08016850                TAMPER_IRQHandler
                0x08016850                RTC_IRQHandler
                0x08016850                CAN1_RX1_IRQHandler
                0x08016850                RCC_IRQHandler
                0x08016850                TIM1_TRG_COM_IRQHandler
                0x08016850                Default_Handler
                0x08016850                SPI2_IRQHandler
                0x08016850                MemManage_Handler
                0x08016850                SVC_Handler
                0x08016850                USB_LP_CAN1_RX0_IRQHandler
                0x08016850                USB_HP_CAN1_TX_IRQHandler
                0x08016850                WWDG_IRQHandler
                0x08016850                TIM1_BRK_IRQHandler
                0x08016850                RTCAlarm_IRQHandler
                0x08016850                CAN1_SCE_IRQHandler
                0x08016850                FLASH_IRQHandler
                0x08016850                BusFault_Handler
                0x08016850                USBWakeUp_IRQHandler
 .text.startup  0x08016854     0x1f30 C:\cygwin64\tmp\ccWFxnfo.ltrans0.ltrans.o
                0x08016854                main
 .text.memcmp   0x08018784       0x1e c:/dev/gcc-arm-none-eabi-4_8-2014q2/bin/../lib/gcc/arm-none-eabi/4.8.4/../../../../arm-none-eabi/lib/armv7-m\libg_s.a(lib_a-memcmp.o)
                0x08018784                memcmp
 .text.memmove  0x080187a2       0x36 c:/dev/gcc-arm-none-eabi-4_8-2014q2/bin/../lib/gcc/arm-none-eabi/4.8.4/../../../../arm-none-eabi/lib/armv7-m\libg_s.a(lib_a-memmove.o)
                0x080187a2                memmove
 .text.memset   0x080187d8       0x10 c:/dev/gcc-arm-none-eabi-4_8-2014q2/bin/../lib/gcc/arm-none-eabi/4.8.4/../../../../arm-none-eabi/lib/armv7-m\libg_s.a(lib_a-memset.o)
                0x080187d8                memset
 .text.strcasecmp
                0x080187e8       0x3c c:/dev/gcc-arm-none-eabi-4_8-2014q2/bin/../lib/gcc/arm-none-eabi/4.8.4/../../../../arm-none-eabi/lib/armv7-m\libg_s.a(lib_a-strcasecmp.o)
                0x080187e8                strcasecmp
 .text.strcat   0x08018824       0x1a c:/dev/gcc-arm-none-eabi-4_8-2014q2/bin/../lib/gcc/arm-none-eabi/4.8.4/../../../../arm-none-eabi/lib/armv7-m\libg_s.a(lib_a-strcat.o)
                0x08018824                strcat
 .text.strchr   0x0801883e       0x1a c:/dev/gcc-arm-none-eabi-4_8-2014q2/bin/../lib/gcc/arm-none-eabi/4.8.4/../../../../arm-none-eabi/lib/armv7-m\libg_s.a(lib_a-strchr.o)
                0x0801883e                strchr
 .text.strlen   0x08018858       0x10 c:/dev/gcc-arm-none-eabi-4_8-2014q2/bin/../lib/gcc/arm-none-eabi/4.8.4/../../../../arm-none-eabi/lib/armv7-m\libg_s.a(lib_a-strlen.o)
                0x08018858                strlen
 .text.strncasecmp
                0x08018868       0x44 c:/dev/gcc-arm-none-eabi-4_8-2014q2/bin/../lib/gcc/arm-none-eabi/4.8.4/../../../../arm-none-eabi/lib/armv7-m\libg_s.a(lib_a-strncasecmp.o)
                0x08018868                strncasecmp
 .text.strncpy  0x080188ac       0x24 c:/dev/gcc-arm-none-eabi-4_8-2014q2/bin/../lib/gcc/arm-none-eabi/4.8.4/../../../../arm-none-eabi/lib/armv7-m\libg_s.a(lib_a-strncpy.o)
                0x080188ac                strncpy
 .text.strstr   0x080188d0       0x32 c:/dev/gcc-arm-none-eabi-4_8-2014q2/bin/../lib/gcc/arm-none-eabi/4.8.4/../../../../arm-none-eabi/lib/armv7-m\libg_s.a(lib_a-strstr.o)
                0x080188d0                strstr
 .text.atoi     0x08018902        0x8 c:/dev/gcc-arm-none-eabi-4_8-2014q2/bin/../lib/gcc/arm-none-eabi/4.8.4/../../../../arm-none-eabi/lib/armv7-m\libc_s.a(lib_a-atoi.o)
                0x08018902                atoi
 .text.memcpy   0x0801890a       0x12 c:/dev/gcc-arm-none-eabi-4_8-2014q2/bin/../lib/gcc/arm-none-eabi/4.8.4/../../../../arm-none-eabi/lib/armv7-m\libc_s.a(lib_a-memcpy-stub.o)
                0x0801890a                memcpy
 .text.strtok   0x0801891c       0x64 c:/dev/gcc-arm-none-eabi-4_8-2014q2/bin/../lib/gcc/arm-none-eabi/4.8.4/../../../../arm-none-eabi/lib/armv7-m\libc_s.a(lib_a-strtok.o)
                0x0801891c                strtok
 .text.__strtok_r
                0x08018980       0x56 c:/dev/gcc-arm-none-eabi-4_8-2014q2/bin/../lib/gcc/arm-none-eabi/4.8.4/../../../../arm-none-eabi/lib/armv7-m\libc_s.a(lib_a-strtok_r.o)
                0x08018980                __strtok_r
 .text.strtok_r
                0x080189d6        0x6 c:/dev/gcc-arm-none-eabi-4_8-2014q2/bin/../lib/gcc/arm-none-eabi/4.8.4/../../../../arm-none-eabi/lib/armv7-m\libc_s.a(lib_a-strtok_r.o)
                0x080189d6                strtok_r
 .text._strtol_r
                0x080189dc      0x104 c:/dev/gcc-arm-none-eabi-4_8-2014q2/bin/../lib/gcc/arm-none-eabi/4.8.4/../../../../arm-none-eabi/lib/armv7-m\libc_s.a(lib_a-strtol.o)
                0x080189dc                _strtol_r
 .text.strtol   0x08018ae0       0x1c c:/dev/gcc-arm-none-eabi-4_8-2014q2/bin/../lib/gcc/arm-none-eabi/4.8.4/../../../../arm-none-eabi/lib/armv7-m\libc_s.a(lib_a-strtol.o)
                0x08018ae0                strtol
 .text.malloc   0x08018afc       0x10 c:/dev/gcc-arm-none-eabi-4_8-2014q2/bin/../lib/gcc/arm-none-eabi/4.8.4/../../../../arm-none-eabi/lib/armv7-m\libc_s.a(lib_a-malloc.o)
                0x08018afc                malloc
 .text._malloc_r
                0x08018b0c       0xa8 c:/dev/gcc-arm-none-eabi-4_8-2014q2/bin/../lib/gcc/arm-none-eabi/4.8.4/../../../../arm-none-eabi/lib/armv7-m\libc_s.a(lib_a-nano-mallocr.o)
                0x08018b0c                _malloc_r
 .text._sbrk_r  0x08018bb4       0x20 c:/dev/gcc-arm-none-eabi-4_8-2014q2/bin/../lib/gcc/arm-none-eabi/4.8.4/../../../../arm-none-eabi/lib/armv7-m\libc_s.a(lib_a-sbrkr.o)
                0x08018bb4                _sbrk_r
 .text._sbrk    0x08018bd4       0x34 c:/dev/gcc-arm-none-eabi-4_8-2014q2/bin/../lib/gcc/arm-none-eabi/4.8.4/../../../../arm-none-eabi/lib/armv7-m\libnosys.a(sbrk.o)
                0x08018bd4                _sbrk
 .text.log2f    0x08018c08       0x14 c:/dev/gcc-arm-none-eabi-4_8-2014q2/bin/../lib/gcc/arm-none-eabi/4.8.4/../../../../arm-none-eabi/lib/armv7-m\libm.a(lib_a-sf_log2.o)
                0x08018c08                log2f
 .text.lrintf   0x08018c1c       0x7c c:/dev/gcc-arm-none-eabi-4_8-2014q2/bin/../lib/gcc/arm-none-eabi/4.8.4/../../../../arm-none-eabi/lib/armv7-m\libm.a(lib_a-sf_lrint.o)
                0x08018c1c                lrintf
 .text.logf     0x08018c98       0xd4 c:/dev/gcc-arm-none-eabi-4_8-2014q2/bin/../lib/gcc/arm-none-eabi/4.8.4/../../../../arm-none-eabi/lib/armv7-m\libm.a(lib_a-wf_log.o)
                0x08018c98                logf
 .text.powf     0x08018d6c      0x310 c:/dev/gcc-arm-none-eabi-4_8-2014q2/bin/../lib/gcc/arm-none-eabi/4.8.4/../../../../arm-none-eabi/lib/armv7-m\libm.a(lib_a-wf_pow.o)
                0x08018d6c                powf
 .text.sqrtf    0x0801907c       0x9c c:/dev/gcc-arm-none-eabi-4_8-2014q2/bin/../lib/gcc/arm-none-eabi/4.8.4/../../../../arm-none-eabi/lib/armv7-m\libm.a(lib_a-wf_sqrt.o)
                0x0801907c                sqrtf
 .text.__ieee754_logf
                0x08019118      0x298 c:/dev/gcc-arm-none-eabi-4_8-2014q2/bin/../lib/gcc/arm-none-eabi/4.8.4/../../../../arm-none-eabi/lib/armv7-m\libm.a(lib_a-ef_log.o)
                0x08019118                __ieee754_logf
 .text.__ieee754_powf
                0x080193b0      0x6f8 c:/dev/gcc-arm-none-eabi-4_8-2014q2/bin/../lib/gcc/arm-none-eabi/4.8.4/../../../../arm-none-eabi/lib/armv7-m\libm.a(lib_a-ef_pow.o)
                0x080193b0                __ieee754_powf
 .text.__ieee754_sqrtf
                0x08019aa8       0xa8 c:/dev/gcc-arm-none-eabi-4_8-2014q2/bin/../lib/gcc/arm-none-eabi/4.8.4/../../../../arm-none-eabi/lib/armv7-m\libm.a(lib_a-ef_sqrt.o)
                0x08019aa8                __ieee754_sqrtf
 .text.matherr  0x08019b50        0x4 c:/dev/gcc-arm-none-eabi-4_8-2014q2/bin/../lib/gcc/arm-none-eabi/4.8.4/../../../../arm-none-eabi/lib/armv7-m\libm.a(lib_a-s_matherr.o)
                0x08019b50                matherr
 .text.nan      0x08019b54        0xc c:/dev/gcc-arm-none-eabi-4_8-2014q2/bin/../lib/gcc/arm-none-eabi/4.8.4/../../../../arm-none-eabi/lib/armv7-m\libm.a(lib_a-s_nan.o)
                0x08019b54                nan
 .text.rint     0x08019b60      0x118 c:/dev/gcc-arm-none-eabi-4_8-2014q2/bin/../lib/gcc/arm-none-eabi/4.8.4/../../../../arm-none-eabi/lib/armv7-m\libm.a(lib_a-s_rint.o)
                0x08019b60                rint
 .text.fabsf    0x08019c78        0x8 c:/dev/gcc-arm-none-eabi-4_8-2014q2/bin/../lib/gcc/arm-none-eabi/4.8.4/../../../../arm-none-eabi/lib/armv7-m\libm.a(lib_a-sf_fabs.o)
                0x08019c78                fabsf
 .text.finitef  0x08019c80       0x10 c:/dev/gcc-arm-none-eabi-4_8-2014q2/bin/../lib/gcc/arm-none-eabi/4.8.4/../../../../arm-none-eabi/lib/armv7-m\libm.a(lib_a-sf_finite.o)
                0x08019c80                finitef
 .text.__fpclassifyf
                0x08019c90       0x34 c:/dev/gcc-arm-none-eabi-4_8-2014q2/bin/../lib/gcc/arm-none-eabi/4.8.4/../../../../arm-none-eabi/lib/armv7-m\libm.a(lib_a-sf_fpclassify.o)
                0x08019c90                __fpclassifyf
 .text.nanf     0x08019cc4        0x8 c:/dev/gcc-arm-none-eabi-4_8-2014q2/bin/../lib/gcc/arm-none-eabi/4.8.4/../../../../arm-none-eabi/lib/armv7-m\libm.a(lib_a-sf_nan.o)
                0x08019cc4                nanf
 .text.scalbnf  0x08019ccc       0xb4 c:/dev/gcc-arm-none-eabi-4_8-2014q2/bin/../lib/gcc/arm-none-eabi/4.8.4/../../../../arm-none-eabi/lib/armv7-m\libm.a(lib_a-sf_scalbn.o)
                0x08019ccc                scalbnf
 .text.copysignf
                0x08019d80        0xc c:/dev/gcc-arm-none-eabi-4_8-2014q2/bin/../lib/gcc/arm-none-eabi/4.8.4/../../../../arm-none-eabi/lib/armv7-m\libm.a(lib_a-sf_copysign.o)
                0x08019d80                copysignf
 .text.__errno  0x08019d8c        0xc c:/dev/gcc-arm-none-eabi-4_8-2014q2/bin/../lib/gcc/arm-none-eabi/4.8.4/../../../../arm-none-eabi/lib/armv7-m\libc_s.a(lib_a-errno.o)
                0x08019d8c                __errno
 *(.rodata)
 .rodata        0x08019d98      0x830 C:\cygwin64\tmp\ccWFxnfo.ltrans0.ltrans.o
                0x08019dd0                ioDefUsedMask.15491
                0x08019ddc                mixers
                0x08019ebc                servoMixers
                0x08019f94                gpsInitData.8442
                0x08019fd0                gpsPacketLogChar.8308
                0x0801a040                servoMixerSingle.15243
                0x0801a078                servoMixerDual.15242
                0x0801a086                servoMixerAirplane.15241
                0x0801a0a9                servoMixerFlyingWing.15240
                0x0801a0cc                servoMixerGimbal.15239
                0x0801a0da                servoMixerBI.15238
                0x0801a0f6                servoMixerTri.15237
                0x0801a100                mixerAtail4.14893
                0x0801a140                mixerDualcopter.14892
                0x0801a160                mixerHex6H.14891
                0x0801a1c0                mixerVtail4.14890
                0x0801a200                mixerOctoFlatX.14889
                0x0801a280                mixerOctoFlatP.14888
                0x0801a300                mixerOctoX8.14887
                0x0801a380                mixerHex6X.14886
                0x0801a3e0                mixerY4.14885
                0x0801a420                mixerSingleProp.14884
                0x0801a430                mixerHex6P.14883
                0x0801a490                mixerY6.14882
                0x0801a4f0                mixerBicopter.14881
                0x0801a510                mixerQuadX.14880
                0x0801a550                mixerQuadP.14879
                0x0801a590                mixerTricopter.14878
                0x0801a5c0                taskCount
                0x0801a5c4                accSamplingInterval
 .rodata        0x0801a5c8      0x124 C:\cygwin64\tmp\ccWFxnfo.ltrans1.ltrans.o
                0x0801a604                boxes.13594
 .rodata        0x0801a6ec      0x2c0 C:\cygwin64\tmp\ccWFxnfo.ltrans2.ltrans.o
                0x0801a9a0                buildTime
                0x0801a9a4                buildDate
                0x0801a9a8                shortGitRevision
 .rodata        0x0801a9ac       0x1c C:\cygwin64\tmp\ccWFxnfo.ltrans3.ltrans.o
 .rodata        0x0801a9c8      0xd34 C:\cygwin64\tmp\ccWFxnfo.ltrans5.ltrans.o
                0x0801a9ce                valueTable
                0x0801b5a0                lookupTables.16703
                0x0801b618                lookupTableHorizonTiltMode.16722
                0x0801b620                lookupTableLowpassType.16721
                0x0801b628                lookupTablePidDeltaMethod.16720
                0x0801b630                lookupTableGyroLpf.16719
                0x0801b648                lookupTableGyroFilter.16718
                0x0801b658                lookupTableSerialRX.16717
                0x0801b678                lookupTableGimbalMode.16716
                0x0801b680                lookupTableAmperageMeter.16715
                0x0801b688                lookupTableBlackboxDevice.16714
                0x0801b694                lookupTableGPSSBASMode.16713
                0x0801b6a8                lookupTableGPSProvider.16712
                0x0801b6b0                lookupTableAlignment.16711
                0x0801b6d4                lookupTableUnit.16710
                0x0801b6dc                lookupTableDebug.16709
                0x0801b6f4                lookupTableOffOn.16708
 .rodata        0x0801b6fc       0x14 C:\cygwin64\tmp\ccWFxnfo.ltrans6.ltrans.o
 .rodata        0x0801b710       0xd0 C:\cygwin64\tmp\ccWFxnfo.ltrans7.ltrans.o
 .rodata        0x0801b7e0      0x168 C:\cygwin64\tmp\ccWFxnfo.ltrans9.ltrans.o
                0x0801b8e8                featureNames.16746
 .rodata        0x0801b948       0x40 C:\cygwin64\tmp\ccWFxnfo.ltrans10.ltrans.o
 .rodata        0x0801b988       0x30 C:\cygwin64\tmp\ccWFxnfo.ltrans11.ltrans.o
 .rodata        0x0801b9b8       0xec C:\cygwin64\tmp\ccWFxnfo.ltrans12.ltrans.o
 .rodata        0x0801baa4       0x28 C:\cygwin64\tmp\ccWFxnfo.ltrans13.ltrans.o
 .rodata        0x0801bacc       0x58 C:\cygwin64\tmp\ccWFxnfo.ltrans17.ltrans.o
 .rodata        0x0801bb24       0x18 C:\cygwin64\tmp\ccWFxnfo.ltrans18.ltrans.o
 .rodata        0x0801bb3c       0x84 C:\cygwin64\tmp\ccWFxnfo.ltrans20.ltrans.o
                0x0801bb3c                mixerNames.16702
 .rodata        0x0801bbc0       0x70 C:\cygwin64\tmp\ccWFxnfo.ltrans21.ltrans.o
                0x0801bbd8                hsv
                0x0801bc10                layerTable.8794
 .rodata        0x0801bc30       0x28 C:\cygwin64\tmp\ccWFxnfo.ltrans23.ltrans.o
 .rodata        0x0801bc58      0x11c C:\cygwin64\tmp\ccWFxnfo.ltrans24.ltrans.o
                0x0801bc58                beep_armedBeep.15636
                0x0801bc5d                beep_disarmRepeatBeep.15635
                0x0801bc61                beep_readyBeep.15634
                0x0801bc70                beep_2longerBeeps.15633
                0x0801bc75                beep_2shortBeeps.15632
                0x0801bc7a                beep_shortBeep.15631
                0x0801bc7d                beep_lowBatteryBeep.15629
                0x0801bc80                beep_critBatteryBeep.15628
                0x0801bc83                beep_armedGpsFix.15627
                0x0801bc8c                beep_armingBeep.15626
                0x0801bc91                beep_disarmBeep.15625
                0x0801bc96                beep_txLostBeep.15624
                0x0801bc99                beep_sos.15623
                0x0801bcac                beep_gyroCalibrated.15622
                0x0801bcb4                beeperTable.15621
 .rodata        0x0801bd74      0x210 C:\cygwin64\tmp\ccWFxnfo.ltrans28.ltrans.o
                0x0801bd74                cmdTable
                0x0801bf64                baudRates
 .rodata        0x0801bf84      0x100 c:/dev/gcc-arm-none-eabi-4_8-2014q2/bin/../lib/gcc/arm-none-eabi/4.8.4/armv7-m\libgcc.a(_popcount_tab.o)
                0x0801bf84                __popcount_tab
 *(.rodata*)
 .rodata.serialPortIdentifiers
                0x0801c084        0x5 C:\cygwin64\tmp\ccWFxnfo.ltrans0.ltrans.o
                0x0801c084                serialPortIdentifiers
 *fill*         0x0801c089        0x3 
 .rodata.timerHardware
                0x0801c08c       0xe0 C:\cygwin64\tmp\ccWFxnfo.ltrans0.ltrans.o
                0x0801c08c                timerHardware
 .rodata.str1.1
                0x0801c16c      0x16b C:\cygwin64\tmp\ccWFxnfo.ltrans0.ltrans.o
                                0x173 (size before relaxing)
 .rodata.str1.1
                0x0801c2d7      0x113 C:\cygwin64\tmp\ccWFxnfo.ltrans1.ltrans.o
                                0x133 (size before relaxing)
 .rodata.str1.1
                0x0801c3ea      0x1f9 C:\cygwin64\tmp\ccWFxnfo.ltrans2.ltrans.o
                                0x227 (size before relaxing)
 *fill*         0x0801c5e3        0x1 
 .rodata.frSkyDataIdTable
                0x0801c5e4       0x24 C:\cygwin64\tmp\ccWFxnfo.ltrans3.ltrans.o
 .rodata.str1.1
                0x0801c608      0xc3c C:\cygwin64\tmp\ccWFxnfo.ltrans5.ltrans.o
                                0xc9a (size before relaxing)
 .rodata.str1.1
                0x0801d244        0x2 C:\cygwin64\tmp\ccWFxnfo.ltrans6.ltrans.o
 .rodata.str1.1
                0x0801d246       0xf0 C:\cygwin64\tmp\ccWFxnfo.ltrans8.ltrans.o
                                0x157 (size before relaxing)
 .rodata.str1.1
                0x0801d336       0xe1 C:\cygwin64\tmp\ccWFxnfo.ltrans9.ltrans.o
                                0x128 (size before relaxing)
 .rodata.str1.1
                0x0801d417      0x1ef C:\cygwin64\tmp\ccWFxnfo.ltrans12.ltrans.o
                                0x219 (size before relaxing)
 .rodata.str1.1
                0x0801d606       0x38 C:\cygwin64\tmp\ccWFxnfo.ltrans14.ltrans.o
 .rodata.str1.1
                0x0801d63e       0x27 C:\cygwin64\tmp\ccWFxnfo.ltrans15.ltrans.o
                                 0x28 (size before relaxing)
 .rodata.str1.1
                0x0801d665       0x5d C:\cygwin64\tmp\ccWFxnfo.ltrans16.ltrans.o
 .rodata.str1.1
                0x0801d6c2       0x3e C:\cygwin64\tmp\ccWFxnfo.ltrans18.ltrans.o
                                 0x41 (size before relaxing)
 .rodata.str1.1
                0x0801d700      0x267 C:\cygwin64\tmp\ccWFxnfo.ltrans20.ltrans.o
                                0x295 (size before relaxing)
 .rodata.rcChannelLetters
                0x0801d967       0x15 C:\cygwin64\tmp\ccWFxnfo.ltrans20.ltrans.o
                0x0801d967                rcChannelLetters
 .rodata.str1.1
                0x0801d97c        0xc C:\cygwin64\tmp\ccWFxnfo.ltrans21.ltrans.o
                                 0x21 (size before relaxing)
 .rodata.str1.1
                0x0801d988       0xaf C:\cygwin64\tmp\ccWFxnfo.ltrans22.ltrans.o
 .rodata.str1.1
                0x0801da37       0xb6 C:\cygwin64\tmp\ccWFxnfo.ltrans24.ltrans.o
                                 0xbd (size before relaxing)
 .rodata.str1.1
                0x0801daed      0x529 C:\cygwin64\tmp\ccWFxnfo.ltrans28.ltrans.o
                                0x582 (size before relaxing)
 .rodata._ctype_
                0x0801e016      0x101 c:/dev/gcc-arm-none-eabi-4_8-2014q2/bin/../lib/gcc/arm-none-eabi/4.8.4/../../../../arm-none-eabi/lib/armv7-m\libc_s.a(lib_a-ctype_.o)
                0x0801e016                _ctype_
 .rodata.str1.1
                0x00000000        0x0 c:/dev/gcc-arm-none-eabi-4_8-2014q2/bin/../lib/gcc/arm-none-eabi/4.8.4/../../../../arm-none-eabi/lib/armv7-m\libc_s.a(lib_a-impure.o)
                                  0x2 (size before relaxing)
 *fill*         0x0801e117        0x1 
 .rodata.TWO23  0x0801e118        0x8 c:/dev/gcc-arm-none-eabi-4_8-2014q2/bin/../lib/gcc/arm-none-eabi/4.8.4/../../../../arm-none-eabi/lib/armv7-m\libm.a(lib_a-sf_lrint.o)
 .rodata.str1.4
                0x0801e120        0x5 c:/dev/gcc-arm-none-eabi-4_8-2014q2/bin/../lib/gcc/arm-none-eabi/4.8.4/../../../../arm-none-eabi/lib/armv7-m\libm.a(lib_a-wf_log.o)
                                  0xc (size before relaxing)
 *fill*         0x0801e125        0x3 
 .rodata.str1.4
                0x0801e128        0x5 c:/dev/gcc-arm-none-eabi-4_8-2014q2/bin/../lib/gcc/arm-none-eabi/4.8.4/../../../../arm-none-eabi/lib/armv7-m\libm.a(lib_a-wf_pow.o)
                                  0x8 (size before relaxing)
 *fill*         0x0801e12d        0x3 
 .rodata.str1.4
                0x0801e130        0x8 c:/dev/gcc-arm-none-eabi-4_8-2014q2/bin/../lib/gcc/arm-none-eabi/4.8.4/../../../../arm-none-eabi/lib/armv7-m\libm.a(lib_a-wf_sqrt.o)
 .rodata.dp_h   0x0801e138        0x8 c:/dev/gcc-arm-none-eabi-4_8-2014q2/bin/../lib/gcc/arm-none-eabi/4.8.4/../../../../arm-none-eabi/lib/armv7-m\libm.a(lib_a-ef_pow.o)
 .rodata.dp_l   0x0801e140        0x8 c:/dev/gcc-arm-none-eabi-4_8-2014q2/bin/../lib/gcc/arm-none-eabi/4.8.4/../../../../arm-none-eabi/lib/armv7-m\libm.a(lib_a-ef_pow.o)
 .rodata.bp     0x0801e148        0x8 c:/dev/gcc-arm-none-eabi-4_8-2014q2/bin/../lib/gcc/arm-none-eabi/4.8.4/../../../../arm-none-eabi/lib/armv7-m\libm.a(lib_a-ef_pow.o)
 .rodata.str1.4
                0x00000000        0x4 c:/dev/gcc-arm-none-eabi-4_8-2014q2/bin/../lib/gcc/arm-none-eabi/4.8.4/../../../../arm-none-eabi/lib/armv7-m\libm.a(lib_a-ef_pow.o)
 .rodata.TWO52  0x0801e150       0x10 c:/dev/gcc-arm-none-eabi-4_8-2014q2/bin/../lib/gcc/arm-none-eabi/4.8.4/../../../../arm-none-eabi/lib/armv7-m\libm.a(lib_a-s_rint.o)
 *(.glue_7)
 .glue_7        0x00000000        0x0 linker stubs
 *(.glue_7t)
 .glue_7t       0x00000000        0x0 linker stubs
 *(.eh_frame)
 *(.init)
 *(.fini)
                0x0801e160                . = ALIGN (0x4)
                0x0801e160                _etext = .

.vfp11_veneer   0x0801e160        0x0
 .vfp11_veneer  0x00000000        0x0 linker stubs

.v4_bx          0x0801e160        0x0
 .v4_bx         0x00000000        0x0 linker stubs

.iplt           0x0801e160        0x0
 .iplt          0x00000000        0x0 obj/main/NAZE/startup_stm32f10x_md_gcc.o

.ARM.extab
 *(.ARM.extab* .gnu.linkonce.armextab.*)

.ARM            0x0801e160        0x8
                0x0801e160                __exidx_start = .
 *(.ARM.exidx*)
 .ARM.exidx     0x0801e160        0x8 c:/dev/gcc-arm-none-eabi-4_8-2014q2/bin/../lib/gcc/arm-none-eabi/4.8.4/armv7-m\libgcc.a(_divdi3.o)
 .ARM.exidx     0x0801e168        0x0 c:/dev/gcc-arm-none-eabi-4_8-2014q2/bin/../lib/gcc/arm-none-eabi/4.8.4/armv7-m\libgcc.a(_udivdi3.o)
                                  0x8 (size before relaxing)
                0x0801e168                __exidx_end = .

.preinit_array  0x0801e168        0x0
                0x0801e168                PROVIDE (__preinit_array_start, .)
 *(.preinit_array*)
                0x0801e168                PROVIDE (__preinit_array_end, .)

.init_array     0x0801e168        0x0
                0x0801e168                PROVIDE (__init_array_start, .)
 *(SORT(.init_array.*))
 *(.init_array*)
                0x0801e168                PROVIDE (__init_array_end, .)

.fini_array     0x0801e168        0x0
                0x0801e168                PROVIDE (__fini_array_start, .)
 *(.fini_array*)
 *(SORT(.fini_array.*))
                0x0801e168                PROVIDE (__fini_array_end, .)

.pg_registry    0x0801e168      0x350
                0x0801e168                PROVIDE (__pg_registry_start, .)
 *(.pg_registry)
 .pg_registry   0x0801e168      0x110 C:\cygwin64\tmp\ccWFxnfo.ltrans0.ltrans.o
                0x0801e168                boardAlignment_Registry
                0x0801e178                telemetryConfig_Registry
                0x0801e188                gpsConfig_Registry
                0x0801e198                flashchipConfig_Registry
                0x0801e1a8                featureConfig_Registry
                0x0801e1b8                modeActivationProfile_Registry
                0x0801e1c8                pidProfile_Registry
                0x0801e1d8                gyroConfig_Registry
                0x0801e1e8                motorConfig_Registry
                0x0801e1f8                servoConfig_Registry
                0x0801e208                mixerConfig_Registry
                0x0801e218                batteryConfig_Registry
                0x0801e228                customServoMixer_Registry
                0x0801e238                customMotorMixer_Registry
                0x0801e248                rxConfig_Registry
                0x0801e258                debugConfig_Registry
                0x0801e268                systemConfig_Registry
 .pg_registry   0x0801e278       0x90 C:\cygwin64\tmp\ccWFxnfo.ltrans1.ltrans.o
                0x0801e278                sensorAlignmentConfig_Registry
                0x0801e288                specialColors_Registry
                0x0801e298                modeColors_Registry
                0x0801e2a8                ledConfigs_Registry
                0x0801e2b8                colors_Registry
                0x0801e2c8                failsafeChannelConfigs_Registry
                0x0801e2d8                compassConfig_Registry
                0x0801e2e8                mspServerConfig_Registry
                0x0801e2f8                servoProfile_Registry
 .pg_registry   0x0801e308       0xe0 C:\cygwin64\tmp\ccWFxnfo.ltrans2.ltrans.o
                0x0801e308                accelerometerConfig_Registry
                0x0801e318                imuConfig_Registry
                0x0801e328                gimbalConfig_Registry
                0x0801e338                motor3DConfig_Registry
                0x0801e348                gtuneConfig_Registry
                0x0801e358                airplaneConfig_Registry
                0x0801e368                rcControlsConfig_Registry
                0x0801e378                gpsProfile_Registry
                0x0801e388                profileSelection_Registry
                0x0801e398                voltageMeterConfig_Registry
                0x0801e3a8                amperageMeterConfig_Registry
                0x0801e3b8                controlRateProfiles_Registry
                0x0801e3c8                blackboxConfig_Registry
                0x0801e3d8                throttleCorrectionConfig_Registry
 .pg_registry   0x0801e3e8       0x30 C:\cygwin64\tmp\ccWFxnfo.ltrans3.ltrans.o
                0x0801e3e8                frskyTelemetryConfig_Registry
                0x0801e3f8                hottTelemetryConfig_Registry
                0x0801e408                ibusTelemetryConfig_Registry
 .pg_registry   0x0801e418       0x40 C:\cygwin64\tmp\ccWFxnfo.ltrans4.ltrans.o
                0x0801e418                channelRanges_Registry
                0x0801e428                failsafeConfig_Registry
                0x0801e438                adjustmentProfile_Registry
                0x0801e448                armingConfig_Registry
 .pg_registry   0x0801e458       0x10 C:\cygwin64\tmp\ccWFxnfo.ltrans6.ltrans.o
                0x0801e458                pwmRxConfig_Registry
 .pg_registry   0x0801e468       0x10 C:\cygwin64\tmp\ccWFxnfo.ltrans11.ltrans.o
                0x0801e468                barometerConfig_Registry
 .pg_registry   0x0801e478       0x10 C:\cygwin64\tmp\ccWFxnfo.ltrans17.ltrans.o
                0x0801e478                sensorSelectionConfig_Registry
 .pg_registry   0x0801e488       0x20 C:\cygwin64\tmp\ccWFxnfo.ltrans25.ltrans.o
                0x0801e488                rateProfileSelection_Registry
                0x0801e498                sensorTrims_Registry
 .pg_registry   0x0801e4a8       0x10 C:\cygwin64\tmp\ccWFxnfo.ltrans28.ltrans.o
                0x0801e4a8                serialConfig_Registry
 *(SORT(.pg_registry.*))
                0x0801e4b8                PROVIDE (__pg_registry_end, .)

.pg_resetdata   0x0801e4b8       0xe8
                0x0801e4b8                PROVIDE (__pg_resetdata_start, .)
 *(.pg_resetdata)
 .pg_resetdata  0x0801e4b8       0x84 C:\cygwin64\tmp\ccWFxnfo.ltrans0.ltrans.o
                0x0801e4b8                pgResetTemplate_telemetryConfig
                0x0801e4bc                pgResetTemplate_pidProfile
                0x0801e4ea                pgResetTemplate_gyroConfig
                0x0801e4f8                pgResetTemplate_motorConfig
                0x0801e504                pgResetTemplate_servoConfig
                0x0801e508                pgResetTemplate_mixerConfig
                0x0801e518                pgResetTemplate_batteryConfig
                0x0801e520                pgResetTemplate_rxConfig
                0x0801e53a                pgResetTemplate_systemConfig
 .pg_resetdata  0x0801e53c        0x2 C:\cygwin64\tmp\ccWFxnfo.ltrans1.ltrans.o
                0x0801e53c                pgResetTemplate_compassConfig
 .pg_resetdata  0x0801e53e       0x38 C:\cygwin64\tmp\ccWFxnfo.ltrans2.ltrans.o
                0x0801e53e                pgResetTemplate_imuConfig
                0x0801e546                pgResetTemplate_motor3DConfig
                0x0801e54c                pgResetTemplate_gtuneConfig
                0x0801e558                pgResetTemplate_airplaneConfig
                0x0801e55a                pgResetTemplate_rcControlsConfig
                0x0801e562                pgResetTemplate_gpsProfile
                0x0801e56e                pgResetTemplate_blackboxConfig
                0x0801e572                pgResetTemplate_throttleCorrectionConfig
 .pg_resetdata  0x0801e576        0x4 C:\cygwin64\tmp\ccWFxnfo.ltrans3.ltrans.o
                0x0801e576                pgResetTemplate_hottTelemetryConfig
                0x0801e578                pgResetTemplate_ibusTelemetryConfig
 .pg_resetdata  0x0801e57a        0xc C:\cygwin64\tmp\ccWFxnfo.ltrans4.ltrans.o
                0x0801e57a                pgResetTemplate_failsafeConfig
                0x0801e582                pgResetTemplate_armingConfig
 *fill*         0x0801e586        0x2 
 .pg_resetdata  0x0801e588       0x10 C:\cygwin64\tmp\ccWFxnfo.ltrans11.ltrans.o
                0x0801e588                pgResetTemplate_barometerConfig
 .pg_resetdata  0x0801e598        0x8 C:\cygwin64\tmp\ccWFxnfo.ltrans26.ltrans.o
                0x0801e598                pgResetTemplate_flashchipConfig
                0x0801e5a0                PROVIDE (__pg_resetdata_end, .)
                0x0801e5a0                _sidata = .

.rel.dyn        0x0801e5a0        0x0
 .rel.iplt      0x00000000        0x0 obj/main/NAZE/startup_stm32f10x_md_gcc.o

.data           0x20000000      0x494 load address 0x0801e5a0
                0x20000000                . = ALIGN (0x4)
                0x20000000                _sdata = .
 *(.data)
 .data          0x20000000      0x34c C:\cygwin64\tmp\ccWFxnfo.ltrans0.ltrans.o
                0x20000000                hse_value
                0x20000004                standardBoardAlignment.18529
                0x20000008                geometry.6008
                0x20000018                cfTasks
                0x20000348                realtimeGuardInterval.20089
 .data          0x2000034c        0x1 C:\cygwin64\tmp\ccWFxnfo.ltrans2.ltrans.o
                0x2000034c                isUsingSticksToArm.12861
 *fill*         0x2000034d        0x1 
 .data          0x2000034e        0x4 C:\cygwin64\tmp\ccWFxnfo.ltrans3.ltrans.o
                0x2000034e                GPS_hdop
 .data          0x20000352        0x2 C:\cygwin64\tmp\ccWFxnfo.ltrans4.ltrans.o
                0x20000352                rxIsInFailsafeMode.17141
                0x20000353                rxIsInFailsafeModeNotDataDriven.17140
 .data          0x20000354        0x4 C:\cygwin64\tmp\ccWFxnfo.ltrans8.ltrans.o
                0x20000354                measurement.6368
 .data          0x20000358        0x4 C:\cygwin64\tmp\ccWFxnfo.ltrans11.ltrans.o
 .data          0x2000035c        0x4 C:\cygwin64\tmp\ccWFxnfo.ltrans15.ltrans.o
                0x2000035c                q0.14730
 .data          0x20000360        0x1 C:\cygwin64\tmp\ccWFxnfo.ltrans17.ltrans.o
                0x20000360                isEOCConnected.5545
 *fill*         0x20000361        0x3 
 .data          0x20000364        0xc C:\cygwin64\tmp\ccWFxnfo.ltrans19.ltrans.o
                0x20000364                magGain.5864
 .data          0x20000370       0x1c C:\cygwin64\tmp\ccWFxnfo.ltrans20.ltrans.o
                0x20000370                pwmMotorsEnabled.6698
 .data          0x2000038c        0x4 C:\cygwin64\tmp\ccWFxnfo.ltrans24.ltrans.o
                0x2000038c                GPS_scaleLonDown.8020
 *(.data*)
 .data.batteryCellCount
                0x20000390        0x1 C:\cygwin64\tmp\ccWFxnfo.ltrans0.ltrans.o
                0x20000390                batteryCellCount
 *fill*         0x20000391        0x3 
 .data.SystemCoreClock
                0x20000394        0x4 C:\cygwin64\tmp\ccWFxnfo.ltrans0.ltrans.o
                0x20000394                SystemCoreClock
 .data.detectedSensors
                0x20000398        0x4 C:\cygwin64\tmp\ccWFxnfo.ltrans17.ltrans.o
                0x20000398                detectedSensors
 .data.dmaChannels
                0x2000039c       0x8c C:\cygwin64\tmp\ccWFxnfo.ltrans31.ltrans.o
                0x2000039c                dmaChannels
 .data.__ctype_ptr__
                0x20000428        0x4 c:/dev/gcc-arm-none-eabi-4_8-2014q2/bin/../lib/gcc/arm-none-eabi/4.8.4/../../../../arm-none-eabi/lib/armv7-m\libc_s.a(lib_a-ctype_.o)
                0x20000428                __ctype_ptr__
 .data.impure_data
                0x2000042c       0x60 c:/dev/gcc-arm-none-eabi-4_8-2014q2/bin/../lib/gcc/arm-none-eabi/4.8.4/../../../../arm-none-eabi/lib/armv7-m\libc_s.a(lib_a-impure.o)
 .data._impure_ptr
                0x2000048c        0x4 c:/dev/gcc-arm-none-eabi-4_8-2014q2/bin/../lib/gcc/arm-none-eabi/4.8.4/../../../../arm-none-eabi/lib/armv7-m\libc_s.a(lib_a-impure.o)
                0x2000048c                _impure_ptr
 .data.__fdlib_version
                0x20000490        0x1 c:/dev/gcc-arm-none-eabi-4_8-2014q2/bin/../lib/gcc/arm-none-eabi/4.8.4/../../../../arm-none-eabi/lib/armv7-m\libm.a(lib_a-s_lib_ver.o)
                0x20000490                __fdlib_version
                0x20000494                . = ALIGN (0x4)
 *fill*         0x20000491        0x3 
                0x20000494                _edata = .

.igot.plt       0x20000494        0x0 load address 0x0801ea34
 .igot.plt      0x00000000        0x0 obj/main/NAZE/startup_stm32f10x_md_gcc.o
                0x20000494                . = ALIGN (0x4)

.bss            0x20000498     0x385c load address 0x0801ea34
                0x20000498                _sbss = .
                0x20000498                __bss_start__ = _sbss
 *(.bss)
 .bss           0x20000498     0x1120 C:\cygwin64\tmp\ccWFxnfo.ltrans0.ltrans.o
                0x20000498                ioRecs
                0x200005b0                stdout_putf.19523
                0x200005b4                stdout_putp.19524
                0x200005b8                systemState.11728
                0x200005bb                i2cOverClock.4289
                0x200005bc                cachedRccCsrValue
                0x200005c0                usTicks.19913
                0x200005c4                activeFeaturesLatch.11374
                0x200005c8                featureConfig_System
                0x200005cc                debugMode
                0x200005d0                extiChannelRecs
                0x20000610                extiGroupPriority.15359
                0x20000618                led_config
                0x20000630                rxConfig_System
                0x2000064c                timerConfig
                0x200006fe                serialPortCount.20277
                0x20000700                serialPortUsageList.20274
                0x20000740                customMotorMixer_SystemArray
                0x20000800                customServoMixers.15214
                0x20000804                customServoMixer_SystemArray
                0x20000874                mixerConfig_System
                0x20000888                servo
                0x20000898                batteryConfig_System
                0x200008a4                motorConfig_System
                0x200008b0                pwmIOConfiguration.6510
                0x20000928                ppmDev
                0x20000a54                motors.6695
                0x20000a84                servos.6699
                0x20000aa4                motorCount
                0x20000aa8                currentMixer
                0x20000b68                servoRuleCount.15213
                0x20000b69                currentServoMixer.15158
                0x20000bd9                stateFlags
                0x20000bda                motorControlEnable
                0x20000bdb                adcConfig
                0x20000bec                adcValues
                0x20000bf4                boardAlignment_System
                0x20000bfc                boardRotation.18527
                0x20000c20                gyroConfig_System
                0x20000c30                enabledSensors.13338
                0x20000c34                telemetryConfig_System
                0x20000c38                activeBoxIds.13596
                0x20000c3c                mspPorts
                0x20000cdc                gyro
                0x20000cf0                pidProfile_ProfileCurrent
                0x20000cf4                imuRuntimeConfig.14745
                0x20000cf8                smallAngleCosZ
                0x20000cfc                gyroScale.14773
                0x20000d00                accVelScale
                0x20000d04                acc
                0x20000d10                failsafeState.14306
                0x20000d34                modeActivationProfile_ProfileCurrent
                0x20000d38                rxRuntimeConfig
                0x20000d44                rcSampleIndex.17131
                0x20000d48                servoFilterState.15162
                0x20000e28                rcData
                0x20000e4c                rcInvalidPulsPeriod
                0x20000e94                sbusChannelData.17387
                0x20000ee0                srxlFrameReceived.18070
                0x20000ee1                srxlDataIncoming.18071
                0x20000ee2                srxlFramePosition.18072
                0x20000ee3                srxlFrameLength.18075
                0x20000ee4                srxlChannelCount.18076
                0x20000ee5                xBusFrameReceived.17879
                0x20000ee6                xBusDataIncoming.17876
                0x20000ee7                xBusFramePosition.17875
                0x20000ee8                xBusChannelCount.17880
                0x20000eec                gpsData
                0x20000f0c                gpsPacketLog
                0x20000f21                gpsConfig_System
                0x20000f28                gpsPort.8441
                0x20000f2c                sonarHardware.6367
                0x20000f38                lastMeasurementAt.6370
                0x20000f3e                sonarCfAltCm
                0x20000f44                sonarMaxTiltCos
                0x20000f48                sonarMaxAltWithTiltCm
                0x20000f4c                calculatedAltitude.10506
                0x20000f50                ledStripInitialised.8800
                0x20000f51                ledStripDMABuffer
                0x20001284                ledColorBuffer.6153
                0x20001304                portConfig.9203
                0x20001308                frskyPortSharing.9204
                0x2000130c                portConfig.9494
                0x20001310                hottPortSharing.9508
                0x20001311                hottEAMMessage.9471
                0x2000133d                hottGPSMessage.9470
                0x2000136c                portConfig.9635
                0x20001370                smartPortPortSharing.9636
                0x20001374                portConfig.9832
                0x20001378                ltmPortSharing.9833
                0x2000137c                portConfig.10141
                0x20001380                mavlinkPortSharing.10142
                0x20001384                ibusSerialPortConfig.10401
                0x20001388                ibusPortSharing.10402
                0x20001389                ibusBaseAddress.10385
                0x20001394                couldBeBusy.6015
                0x20001398                tailAddress.7711
                0x2000139c                blackboxState.10898
                0x2000139e                calibratingA
                0x200013a0                calibratingG.18723
                0x200013a4                voltageMeterStates
                0x200013c8                batteryState.18311
                0x200013ca                batteryWarningVoltage
                0x200013cc                batteryCriticalVoltage
                0x200013d0                taskQueueArray
                0x2000141c                taskQueueSize.20082
                0x20001420                totalWaitingTasksSamples.20086
                0x20001424                totalWaitingTasks.20087
                0x20001428                currentTask.20091
                0x2000151c                pidProfile_Storage.14454
                0x200015a6                blackboxSlowFrameIterationTimer.10897
                0x200015a8                xmitState.10890
                0x200015b0                blackboxHeaderBudget
                0x200015b4                blackboxLoggedAnyFrames.10888
 .bss           0x200015b8      0x3d4 C:\cygwin64\tmp\ccWFxnfo.ltrans1.ltrans.o
                0x200015b8                printfSerialPort.19522
                0x200015d8                failsafeChannelConfigs_SystemArray
                0x200015fc                i2cErrorCount.4292
                0x200015fe                gyroDeltaUs
                0x20001600                accSmooth
                0x2000160c                magADC
                0x20001618                servoProfile_ProfileCurrent
                0x2000161c                vario
                0x20001620                amperageMeters
                0x20001630                vbat
                0x20001634                compassConfig_ProfileCurrent
                0x20001638                GPS_altitude
                0x2000163a                GPS_speed
                0x2000163c                GPS_ground_course
                0x2000163e                GPS_distanceToHome
                0x20001640                GPS_directionToHome
                0x20001642                GPS_update
                0x20001643                GPS_numCh
                0x20001644                GPS_svinfo_chn
                0x20001654                GPS_svinfo_svid
                0x20001664                GPS_svinfo_quality
                0x20001674                GPS_svinfo_cno
                0x20001684                colors_SystemArray
                0x200016c4                ledConfigs_SystemArray
                0x20001744                modeColors_SystemArray
                0x20001768                specialColors_System
                0x20001773                sensorAlignmentConfig_System
                0x20001778                escHardware
                0x20001838                escCount.15961
                0x2000183a                mspFrame.17294
                0x2000185e                rxMspFrameDone.17295
                0x20001860                passThroughPort.13595
 .bss           0x2000198c      0x3a4 C:\cygwin64\tmp\ccWFxnfo.ltrans2.ltrans.o
                0x2000198c                gyroReadyCounter
                0x20001994                debug
                0x2000199c                currentControlRateProfile
                0x200019a0                imuConfig_System
                0x200019a8                accelerometerConfig_ProfileCurrent
                0x200019ac                flightModeFlags
                0x200019ae                attitude
                0x200019d8                rcCommand
                0x200019e0                gyroADCf
                0x200019fc                lastITermf
                0x20001a08                rcModeActivationMask.12863
                0x20001a28                dtermFilterNotch
                0x20001a7c                dtermFilterLpf
                0x20001ad0                axisPID_P
                0x20001adc                axisPID_I
                0x20001ae8                axisPID_D
                0x20001b14                gyroADC
                0x20001b34                rcControlsConfig_ProfileCurrent
                0x20001b38                motor3DConfig_System
                0x20001b3e                motor
                0x20001b56                motor_disarmed
                0x20001b70                servoConf.15173
                0x20001b9c                lookupPitchRollRC.12943
                0x20001baa                lookupYawRC.12944
                0x20001bb8                lookupThrottleRC.12945
                0x20001bd0                headFreeModeHold
                0x20001bd4                altHoldThrottleAdjustment
                0x20001bd8                initialRawThrottleHold.14143
                0x20001bdc                errorVelocityI
                0x20001be4                AltHold
                0x20001be8                EstAlt.14146
                0x20001bec                initialThrottleHold.14148
                0x20001bee                velocityControl
                0x20001bf0                magHold
                0x20001bf4                throttleCorrectionConfig_ProfileCurrent
                0x20001bf8                rMat.14731
                0x20001c1c                throttleAngleScale
                0x20001c20                isRXDataNew.12324
                0x20001c38                gpsProfile_ProfileCurrent
                0x20001c3c                nav_rated.8074
                0x20001c40                nav.8043
                0x20001c44                blackboxConfig_System
                0x20001c48                blackboxPort.11272
                0x20001c4c                blackboxMaxHeaderBytesPerIteration.11276
                0x20001c4e                controlRateProfiles_SystemArray
                0x20001c72                profileSelection_System
                0x20001c74                blackboxConditionCache.10844
                0x20001c78                voltageMeterConfig_SystemArray
                0x20001c7c                vbatReference.10976
                0x20001c7e                amperageMeterConfig_SystemArray
                0x20001c86                blackboxPFrameIndex.10997
                0x20001c88                blackboxIteration.10982
                0x20001c8c                blackboxModeActivationConditionPresent.11003
                0x20001c8d                blackboxPortSharing.11273
 .bss           0x20001d30      0x298 C:\cygwin64\tmp\ccWFxnfo.ltrans3.ltrans.o
                0x20001d30                frskyTelemetryEnabled.9205
                0x20001d3c                BaroAlt
                0x20001d40                baroTemperature
                0x20001d48                frskyTelemetryConfig_System
                0x20001d55                hottTelemetryEnabled.9507
                0x20001d68                hottPort.9490
                0x20001d7a                smartPortTelemetryEnabled.9637
                0x20001d7c                smartPortSerialPort.9632
                0x20001d80                smartPortState
                0x20001d84                smartPortLastRequestTime.9633
                0x20001d8b                ltmEnabled.9831
                0x20001d8c                ltmPort.9807
                0x20001d95                mavlinkTelemetryEnabled.10140
                0x20001d98                mavlinkPort.10123
                0x20001da0                mavMsg.10102
                0x20001eb0                ibusTelemetryEnabled.10403
                0x20001eb4                ibusSerialPort.10386
                0x20001eb8                outboundBytesToIgnoreOnRxCount.10387
                0x20001ebe                mavBuffer.10103
 .bss           0x20001fc8      0x288 C:\cygwin64\tmp\ccWFxnfo.ltrans4.ltrans.o
                0x20001fc8                rxUpdateAt.17151
                0x20001fcc                skipRxSamples.17149
                0x20001fd0                suspendRxSignalUntil.17148
                0x20001fd4                channelRanges_SystemArray
                0x20002008                rxSignalReceived.17128
                0x20002009                rxSignalReceivedNotDataDriven.17130
                0x20002055                rxFlightChannelsValid.17143
                0x20002056                rssi
                0x2000206d                failsafeConfig_System
                0x20002084                armingConfig_System
                0x20002088                disarmAt.12292
                0x2000208f                AccInflightCalibrationMeasurementDone
                0x20002090                AccInflightCalibrationSavetoEEProm
                0x20002092                InflightcalibratingA
                0x20002094                AccInflightCalibrationActive
                0x20002098                adjustmentProfile_ProfileCurrent
                0x2000209c                adjustmentStates
                0x200020cd                currentControlRateProfileIndex.12489
                0x200020ce                GPS_numSat
                0x200020d0                GPS_home
                0x200020d8                nav_mode
                0x200020dc                GPS_hold
                0x200020e4                GPS_coord
                0x20002118                poshold_ratePID.8042
                0x20002140                navPID.8044
                0x20002168                findSharedSerialPortState.20273
                0x2000216a                averageSystemLoadPercent
                0x20002174                blinkMask.16935
 .bss           0x20002250      0x1a0 C:\cygwin64\tmp\ccWFxnfo.ltrans5.ltrans.o
 .bss           0x200023f0       0x70 C:\cygwin64\tmp\ccWFxnfo.ltrans6.ltrans.o
                0x200023fc                ibusFramePosition.17973
                0x200023fd                ibus.17974
                0x2000241d                ibusFrameDone.17975
                0x2000242d                spekFrame.17747
                0x2000243d                rcFrameComplete.17748
                0x20002449                sumhFrame.17617
                0x2000245e                sumhFrameDone.17618
 .bss           0x20002460       0xb0 C:\cygwin64\tmp\ccWFxnfo.ltrans7.ltrans.o
 .bss           0x20002510       0x88 C:\cygwin64\tmp\ccWFxnfo.ltrans8.ltrans.o
                0x20002510                xBusFrameLength.17878
                0x20002511                xBusFrame.17877
                0x20002532                xBusChannelData.17872
 .bss           0x20002598        0xc C:\cygwin64\tmp\ccWFxnfo.ltrans9.ltrans.o
 *fill*         0x200025a4        0x4 
 .bss           0x200025a8      0x588 C:\cygwin64\tmp\ccWFxnfo.ltrans10.ltrans.o
 .bss           0x20002b30      0x164 C:\cygwin64\tmp\ccWFxnfo.ltrans11.ltrans.o
                0x20002c5e                highestYValueForNorth.8758
                0x20002c5f                lowestYValueForSouth.8759
                0x20002c60                highestXValueForWest.8760
                0x20002c61                lowestXValueForEast.8761
 .bss           0x20002c94        0x5 C:\cygwin64\tmp\ccWFxnfo.ltrans12.ltrans.o
 *fill*         0x20002c99        0x3 
 .bss           0x20002c9c       0x30 C:\cygwin64\tmp\ccWFxnfo.ltrans13.ltrans.o
                0x20002c9c                I2Cx.4264
                0x20002ca2                addr.4272
                0x20002ca3                reg.4270
                0x20002ca4                writing.4275
                0x20002ca5                reading.4268
                0x20002ca8                write_p.4276
                0x20002cac                read_p.4274
                0x20002cb0                bytes.4271
                0x20002cb1                busy.4277
                0x20002cb3                isConversionComplete.5516
                0x20002cb4                bmp280_up.5684
                0x20002cb8                bmp280_ut.5683
                0x20002cbc                ms5611_ut.5611
                0x20002cc0                ms5611_up.5612
                0x20002cc4                bmp085_up.5544
                0x20002cc8                bmp085_ut.5543
 .bss           0x20002ccc       0x58 C:\cygwin64\tmp\ccWFxnfo.ltrans14.ltrans.o
                0x20002cd1                sumdFrameDone.17516
                0x20002cd2                crc.17512
                0x20002cd4                sumdChannelCount.17517
                0x20002cd5                sumd.17518
                0x20002d01                sbusFrame.17390
                0x20002d1a                sbusFrameDone.17416
 .bss           0x20002d24       0x98 C:\cygwin64\tmp\ccWFxnfo.ltrans15.ltrans.o
                0x20002d24                srxlFrame.18077
                0x20002d48                srxlChannelData.18069
                0x20002d78                q1.14727
                0x20002d7c                q2.14728
                0x20002d80                q3.14729
                0x20002d8c                accSum
                0x20002d98                accSumCount
                0x20002da1                ppmFrameCount.6902
                0x20002da4                captures.6901
 .bss           0x20002dbc        0x5 C:\cygwin64\tmp\ccWFxnfo.ltrans16.ltrans.o
 *fill*         0x20002dc1        0x3 
 .bss           0x20002dc4      0x170 C:\cygwin64\tmp\ccWFxnfo.ltrans17.ltrans.o
                0x20002dc4                mpuDetectionResult
                0x20002dc8                mpuConfiguration
                0x20002dd4                mpuIntExtiConfig.5097
                0x20002ddc                gyroFilterPt1.18751
                0x20002e00                gyroFilterNotch.18737
                0x20002e54                gyroFilterLPF.18750
                0x20002eab                accAlign
                0x20002eac                useFifo.4861
                0x20002eb4                bmp085.5517
                0x20002ed8                baro
                0x20002ef0                ms5611_c.5610
                0x20002f04                bmp280_cal.5681
                0x20002f20                magAlign
                0x20002f24                hmc5883Config.5865
                0x20002f28                mag
                0x20002f30                magInit.18600
 .bss           0x20002f34       0x83 C:\cygwin64\tmp\ccWFxnfo.ltrans18.ltrans.o
                0x20002f34                bufferHead.7709
                0x20002f35                flashWriteBuffer.7708
                0x20002fb5                bufferTail.7710
 *fill*         0x20002fb7        0x1 
 .bss           0x20002fb8       0x74 C:\cygwin64\tmp\ccWFxnfo.ltrans19.ltrans.o
                0x20002fc0                gyroUpdateAt
                0x20003028                mpuIntDenominator
 .bss           0x2000302c       0x20 C:\cygwin64\tmp\ccWFxnfo.ltrans20.ltrans.o
                0x2000302c                port.15956
                0x20003030                crcIn.15962
                0x20003037                escSelected
                0x20003038                StkCmd.16239
                0x20003039                stkInBuf.16233
                0x2000304a                crcOut.15963
 .bss           0x2000304c       0xb4 C:\cygwin64\tmp\ccWFxnfo.ltrans21.ltrans.o
                0x2000304c                ppmEventIndex.6904
                0x20003050                ppmEvents.6905
                0x200030f4                scaledThrottle.8763
                0x200030f8                ledCounts.8749
 .bss           0x20003100        0xc C:\cygwin64\tmp\ccWFxnfo.ltrans22.ltrans.o
                0x20003101                ckSumOut.16234
                0x20003104                hiLoTsh.16238
                0x20003108                lastBitTime.16237
 .bss           0x2000310c      0x604 C:\cygwin64\tmp\ccWFxnfo.ltrans23.ltrans.o
                0x2000370c                frskyPort.9150
 .bss           0x20003710       0xf0 C:\cygwin64\tmp\ccWFxnfo.ltrans24.ltrans.o
                0x20003710                beep_multiBeeps.15630
                0x20003728                currentBeeperEntry.15614
                0x2000372c                beeperNextToggleTime.15610
                0x20003730                beeperIsOn.15609
                0x20003732                beeperPos.15611
                0x200037a0                GPS_WP.8014
                0x200037a8                wp_distance.8012
                0x200037ac                target_bearing.8013
                0x200037b0                error.8039
                0x200037b8                posholdPID_PARAM.8040
                0x200037c8                poshold_ratePID_PARAM.8010
                0x200037dc                waypoint_speed_gov.8035
                0x200037e0                original_target_bearing.8036
                0x200037e8                nav_bearing.8038
                0x200037ec                navPID_PARAM.8011
                0x200037fc                nav_takeoff_bearing.8056
 .bss           0x20003800       0xc8 C:\cygwin64\tmp\ccWFxnfo.ltrans25.ltrans.o
                0x2000386c                magneticDeclination
                0x20003880                accDeadband.14761
                0x20003884                fc_acc
                0x200038c4                isAccelUpdatedAtLeastOnce.14785
                0x200038c5                rateProfileSelection_Storage.12492
 .bss           0x200038c8       0xa8 C:\cygwin64\tmp\ccWFxnfo.ltrans26.ltrans.o
 .bss           0x20003970      0x1ac C:\cygwin64\tmp\ccWFxnfo.ltrans27.ltrans.o
                0x20003970                gpsHistory.10833
                0x20003984                blackboxHistory.10899
                0x20003990                blackboxHistoryRing.10983
                0x20003b10                blackboxIFrameIndex.10998
                0x20003b14                blackboxLastArmingBeep.11004
                0x20003b18                armingBeepTimeMicros.15637
 .bss           0x20003b1c       0x68 C:\cygwin64\tmp\ccWFxnfo.ltrans28.ltrans.o
                0x20003b1c                cliPort.16730
                0x20003b20                cliWriter.16656
                0x20003b24                bufferIndex.16747
                0x20003b28                cliBuffer.16655
                0x20003b58                serialConfig_System
                0x20003b82                findSerialPortConfigState.20272
 .bss           0x20003b84        0x8 C:\cygwin64\tmp\ccWFxnfo.ltrans29.ltrans.o
                0x20003b84                rxRuntimeConfigPtr.17750
                0x20003b88                spek_chan_shift.17749
                0x20003b89                spek_chan_mask.17751
                0x20003b8a                spekHiRes.17753
 .bss           0x20003b8c      0x12c C:\cygwin64\tmp\ccWFxnfo.ltrans30.ltrans.o
                0x20003b8c                uartPort3.4760
                0x20003bf0                uartPort2.4759
                0x20003c54                uartPort1.4758
 .bss           0x20003cb8        0x4 C:\cygwin64\tmp\ccWFxnfo.ltrans31.ltrans.o
                0x20003cb8                sysTickUptime.19914
 *(SORT(.bss*))
 .bss.systemBeepPtr
                0x20003cbc        0x4 C:\cygwin64\tmp\ccWFxnfo.ltrans0.ltrans.o
                0x20003cbc                systemBeepPtr
 .bss.currentTime
                0x20003cc0        0x4 C:\cygwin64\tmp\ccWFxnfo.ltrans0.ltrans.o
                0x20003cc0                currentTime
 .bss.targetPidLooptime
                0x20003cc4        0x4 C:\cygwin64\tmp\ccWFxnfo.ltrans0.ltrans.o
                0x20003cc4                targetPidLooptime
 .bss.mspPostProcessFn
                0x20003cc8        0x4 C:\cygwin64\tmp\ccWFxnfo.ltrans1.ltrans.o
 .bss.setVelocity
                0x20003ccc        0x4 C:\cygwin64\tmp\ccWFxnfo.ltrans2.ltrans.o
                0x20003ccc                setVelocity
 .bss.accTimeSum
                0x20003cd0        0x4 C:\cygwin64\tmp\ccWFxnfo.ltrans15.ltrans.o
                0x20003cd0                accTimeSum
 .bss.__malloc_sbrk_start
                0x20003cd4        0x4 c:/dev/gcc-arm-none-eabi-4_8-2014q2/bin/../lib/gcc/arm-none-eabi/4.8.4/../../../../arm-none-eabi/lib/armv7-m\libc_s.a(lib_a-nano-mallocr.o)
                0x20003cd4                __malloc_sbrk_start
 .bss.__malloc_free_list
                0x20003cd8        0x4 c:/dev/gcc-arm-none-eabi-4_8-2014q2/bin/../lib/gcc/arm-none-eabi/4.8.4/../../../../arm-none-eabi/lib/armv7-m\libc_s.a(lib_a-nano-mallocr.o)
                0x20003cd8                __malloc_free_list
 .bss.heap_end.4246
                0x20003cdc        0x4 c:/dev/gcc-arm-none-eabi-4_8-2014q2/bin/../lib/gcc/arm-none-eabi/4.8.4/../../../../arm-none-eabi/lib/armv7-m\libnosys.a(sbrk.o)
 .bss.calibratingB
                0x20003ce0        0x2 C:\cygwin64\tmp\ccWFxnfo.ltrans0.ltrans.o
                0x20003ce0                calibratingB
 .bss.GPS_angle
                0x20003ce2        0x4 C:\cygwin64\tmp\ccWFxnfo.ltrans2.ltrans.o
                0x20003ce2                GPS_angle
 .bss.pidDeltaUs
                0x20003ce6        0x2 C:\cygwin64\tmp\ccWFxnfo.ltrans2.ltrans.o
                0x20003ce6                pidDeltaUs
 .bss.armingFlags
                0x20003ce8        0x1 C:\cygwin64\tmp\ccWFxnfo.ltrans0.ltrans.o
                0x20003ce8                armingFlags
 .bss.hardwareRevision
                0x20003ce9        0x1 C:\cygwin64\tmp\ccWFxnfo.ltrans0.ltrans.o
                0x20003ce9                hardwareRevision
 .bss.cliMode   0x20003cea        0x1 C:\cygwin64\tmp\ccWFxnfo.ltrans2.ltrans.o
                0x20003cea                cliMode
 .bss.gyroDataReady
                0x20003ceb        0x1 C:\cygwin64\tmp\ccWFxnfo.ltrans7.ltrans.o
 .bss.ws2811LedDataTransferInProgress
                0x20003cec        0x1 C:\cygwin64\tmp\ccWFxnfo.ltrans11.ltrans.o
                0x20003cec                ws2811LedDataTransferInProgress
 .bss.gyroAlign
                0x20003ced        0x1 C:\cygwin64\tmp\ccWFxnfo.ltrans17.ltrans.o
                0x20003ced                gyroAlign
 .bss.esc4wayExitRequested
                0x20003cee        0x1 C:\cygwin64\tmp\ccWFxnfo.ltrans20.ltrans.o
 *(COMMON)
 *fill*         0x20003cef        0x1 
 COMMON         0x20003cf0        0x4 c:/dev/gcc-arm-none-eabi-4_8-2014q2/bin/../lib/gcc/arm-none-eabi/4.8.4/../../../../arm-none-eabi/lib/armv7-m\libc_s.a(lib_a-reent.o)
                0x20003cf0                errno
                0x20003cf4                . = ALIGN (0x4)
                0x20003cf4                _ebss = .
                0x20003cf4                __bss_end__ = _ebss

._user_heap_stack
                0x20003cf4      0x400 load address 0x0801ea34
                0x20003cf4                . = ALIGN (0x4)
                0x20003cf4                PROVIDE (end, .)
                0x20003cf4                PROVIDE (_end, .)
                0x20003cf4                . = (. + _Min_Heap_Size)
                0x200040f4                . = (. + _Min_Stack_Size)
 *fill*         0x20003cf4      0x400 
                0x200040f4                . = ALIGN (0x4)

.memory_b1_text
 *(.mb1text)
 *(.mb1text*)
 *(.mb1rodata)
 *(.mb1rodata*)

/DISCARD/
 libc.a(*)
 libm.a(*)
 libgcc.a(*)

.ARM.attributes
                0x00000000       0x2f
 *(.ARM.attributes)
 .ARM.attributes
                0x00000000       0x21 obj/main/NAZE/startup_stm32f10x_md_gcc.o
 .ARM.attributes
                0x00000021       0x31 C:\cygwin64\tmp\ccWFxnfo.ltrans0.ltrans.o
 .ARM.attributes
                0x00000052       0x31 C:\cygwin64\tmp\ccWFxnfo.ltrans1.ltrans.o
 .ARM.attributes
                0x00000083       0x31 C:\cygwin64\tmp\ccWFxnfo.ltrans2.ltrans.o
 .ARM.attributes
                0x000000b4       0x31 C:\cygwin64\tmp\ccWFxnfo.ltrans3.ltrans.o
 .ARM.attributes
                0x000000e5       0x31 C:\cygwin64\tmp\ccWFxnfo.ltrans4.ltrans.o
 .ARM.attributes
                0x00000116       0x31 C:\cygwin64\tmp\ccWFxnfo.ltrans5.ltrans.o
 .ARM.attributes
                0x00000147       0x31 C:\cygwin64\tmp\ccWFxnfo.ltrans6.ltrans.o
 .ARM.attributes
                0x00000178       0x31 C:\cygwin64\tmp\ccWFxnfo.ltrans7.ltrans.o
 .ARM.attributes
                0x000001a9       0x31 C:\cygwin64\tmp\ccWFxnfo.ltrans8.ltrans.o
 .ARM.attributes
                0x000001da       0x31 C:\cygwin64\tmp\ccWFxnfo.ltrans9.ltrans.o
 .ARM.attributes
                0x0000020b       0x31 C:\cygwin64\tmp\ccWFxnfo.ltrans10.ltrans.o
 .ARM.attributes
                0x0000023c       0x31 C:\cygwin64\tmp\ccWFxnfo.ltrans11.ltrans.o
 .ARM.attributes
                0x0000026d       0x31 C:\cygwin64\tmp\ccWFxnfo.ltrans12.ltrans.o
 .ARM.attributes
                0x0000029e       0x31 C:\cygwin64\tmp\ccWFxnfo.ltrans13.ltrans.o
 .ARM.attributes
                0x000002cf       0x31 C:\cygwin64\tmp\ccWFxnfo.ltrans14.ltrans.o
 .ARM.attributes
                0x00000300       0x31 C:\cygwin64\tmp\ccWFxnfo.ltrans15.ltrans.o
 .ARM.attributes
                0x00000331       0x31 C:\cygwin64\tmp\ccWFxnfo.ltrans16.ltrans.o
 .ARM.attributes
                0x00000362       0x31 C:\cygwin64\tmp\ccWFxnfo.ltrans17.ltrans.o
 .ARM.attributes
                0x00000393       0x31 C:\cygwin64\tmp\ccWFxnfo.ltrans18.ltrans.o
 .ARM.attributes
                0x000003c4       0x31 C:\cygwin64\tmp\ccWFxnfo.ltrans19.ltrans.o
 .ARM.attributes
                0x000003f5       0x31 C:\cygwin64\tmp\ccWFxnfo.ltrans20.ltrans.o
 .ARM.attributes
                0x00000426       0x31 C:\cygwin64\tmp\ccWFxnfo.ltrans21.ltrans.o
 .ARM.attributes
                0x00000457       0x31 C:\cygwin64\tmp\ccWFxnfo.ltrans22.ltrans.o
 .ARM.attributes
                0x00000488       0x31 C:\cygwin64\tmp\ccWFxnfo.ltrans23.ltrans.o
 .ARM.attributes
                0x000004b9       0x31 C:\cygwin64\tmp\ccWFxnfo.ltrans24.ltrans.o
 .ARM.attributes
                0x000004ea       0x31 C:\cygwin64\tmp\ccWFxnfo.ltrans25.ltrans.o
 .ARM.attributes
                0x0000051b       0x31 C:\cygwin64\tmp\ccWFxnfo.ltrans26.ltrans.o
 .ARM.attributes
                0x0000054c       0x31 C:\cygwin64\tmp\ccWFxnfo.ltrans27.ltrans.o
 .ARM.attributes
                0x0000057d       0x31 C:\cygwin64\tmp\ccWFxnfo.ltrans28.ltrans.o
 .ARM.attributes
                0x000005ae       0x31 C:\cygwin64\tmp\ccWFxnfo.ltrans29.ltrans.o
 .ARM.attributes
                0x000005df       0x31 C:\cygwin64\tmp\ccWFxnfo.ltrans30.ltrans.o
 .ARM.attributes
                0x00000610       0x31 C:\cygwin64\tmp\ccWFxnfo.ltrans31.ltrans.o
 .ARM.attributes
                0x00000641       0x1d c:/dev/gcc-arm-none-eabi-4_8-2014q2/bin/../lib/gcc/arm-none-eabi/4.8.4/armv7-m\libgcc.a(_arm_addsubdf3.o)
 .ARM.attributes
                0x0000065e       0x1d c:/dev/gcc-arm-none-eabi-4_8-2014q2/bin/../lib/gcc/arm-none-eabi/4.8.4/armv7-m\libgcc.a(_arm_muldivdf3.o)
 .ARM.attributes
                0x0000067b       0x1d c:/dev/gcc-arm-none-eabi-4_8-2014q2/bin/../lib/gcc/arm-none-eabi/4.8.4/armv7-m\libgcc.a(_arm_truncdfsf2.o)
 .ARM.attributes
                0x00000698       0x1d c:/dev/gcc-arm-none-eabi-4_8-2014q2/bin/../lib/gcc/arm-none-eabi/4.8.4/armv7-m\libgcc.a(_arm_addsubsf3.o)
 .ARM.attributes
                0x000006b5       0x1d c:/dev/gcc-arm-none-eabi-4_8-2014q2/bin/../lib/gcc/arm-none-eabi/4.8.4/armv7-m\libgcc.a(_arm_muldivsf3.o)
 .ARM.attributes
                0x000006d2       0x1d c:/dev/gcc-arm-none-eabi-4_8-2014q2/bin/../lib/gcc/arm-none-eabi/4.8.4/armv7-m\libgcc.a(_arm_cmpsf2.o)
 .ARM.attributes
                0x000006ef       0x1d c:/dev/gcc-arm-none-eabi-4_8-2014q2/bin/../lib/gcc/arm-none-eabi/4.8.4/armv7-m\libgcc.a(_arm_fixsfsi.o)
 .ARM.attributes
                0x0000070c       0x1d c:/dev/gcc-arm-none-eabi-4_8-2014q2/bin/../lib/gcc/arm-none-eabi/4.8.4/armv7-m\libgcc.a(_arm_fixunssfsi.o)
 .ARM.attributes
                0x00000729       0x1d c:/dev/gcc-arm-none-eabi-4_8-2014q2/bin/../lib/gcc/arm-none-eabi/4.8.4/armv7-m\libgcc.a(_aeabi_ldivmod.o)
 .ARM.attributes
                0x00000746       0x2d c:/dev/gcc-arm-none-eabi-4_8-2014q2/bin/../lib/gcc/arm-none-eabi/4.8.4/armv7-m\libgcc.a(_popcountsi2.o)
 .ARM.attributes
                0x00000773       0x2d c:/dev/gcc-arm-none-eabi-4_8-2014q2/bin/../lib/gcc/arm-none-eabi/4.8.4/armv7-m\libgcc.a(bpabi.o)
 .ARM.attributes
                0x000007a0       0x1d c:/dev/gcc-arm-none-eabi-4_8-2014q2/bin/../lib/gcc/arm-none-eabi/4.8.4/armv7-m\libgcc.a(_dvmd_tls.o)
 .ARM.attributes
                0x000007bd       0x2d c:/dev/gcc-arm-none-eabi-4_8-2014q2/bin/../lib/gcc/arm-none-eabi/4.8.4/armv7-m\libgcc.a(_popcount_tab.o)
 .ARM.attributes
                0x000007ea       0x2d c:/dev/gcc-arm-none-eabi-4_8-2014q2/bin/../lib/gcc/arm-none-eabi/4.8.4/armv7-m\libgcc.a(_divdi3.o)
 .ARM.attributes
                0x00000817       0x2d c:/dev/gcc-arm-none-eabi-4_8-2014q2/bin/../lib/gcc/arm-none-eabi/4.8.4/armv7-m\libgcc.a(_udivdi3.o)
 .ARM.attributes
                0x00000844       0x2d c:/dev/gcc-arm-none-eabi-4_8-2014q2/bin/../lib/gcc/arm-none-eabi/4.8.4/../../../../arm-none-eabi/lib/armv7-m\libg_s.a(lib_a-memcmp.o)
 .ARM.attributes
                0x00000871       0x2d c:/dev/gcc-arm-none-eabi-4_8-2014q2/bin/../lib/gcc/arm-none-eabi/4.8.4/../../../../arm-none-eabi/lib/armv7-m\libg_s.a(lib_a-memmove.o)
 .ARM.attributes
                0x0000089e       0x2d c:/dev/gcc-arm-none-eabi-4_8-2014q2/bin/../lib/gcc/arm-none-eabi/4.8.4/../../../../arm-none-eabi/lib/armv7-m\libg_s.a(lib_a-memset.o)
 .ARM.attributes
                0x000008cb       0x2d c:/dev/gcc-arm-none-eabi-4_8-2014q2/bin/../lib/gcc/arm-none-eabi/4.8.4/../../../../arm-none-eabi/lib/armv7-m\libg_s.a(lib_a-strcasecmp.o)
 .ARM.attributes
                0x000008f8       0x2d c:/dev/gcc-arm-none-eabi-4_8-2014q2/bin/../lib/gcc/arm-none-eabi/4.8.4/../../../../arm-none-eabi/lib/armv7-m\libg_s.a(lib_a-strcat.o)
 .ARM.attributes
                0x00000925       0x2d c:/dev/gcc-arm-none-eabi-4_8-2014q2/bin/../lib/gcc/arm-none-eabi/4.8.4/../../../../arm-none-eabi/lib/armv7-m\libg_s.a(lib_a-strchr.o)
 .ARM.attributes
                0x00000952       0x2d c:/dev/gcc-arm-none-eabi-4_8-2014q2/bin/../lib/gcc/arm-none-eabi/4.8.4/../../../../arm-none-eabi/lib/armv7-m\libg_s.a(lib_a-strlen.o)
 .ARM.attributes
                0x0000097f       0x2d c:/dev/gcc-arm-none-eabi-4_8-2014q2/bin/../lib/gcc/arm-none-eabi/4.8.4/../../../../arm-none-eabi/lib/armv7-m\libg_s.a(lib_a-strncasecmp.o)
 .ARM.attributes
                0x000009ac       0x2d c:/dev/gcc-arm-none-eabi-4_8-2014q2/bin/../lib/gcc/arm-none-eabi/4.8.4/../../../../arm-none-eabi/lib/armv7-m\libg_s.a(lib_a-strncpy.o)
 .ARM.attributes
                0x000009d9       0x2d c:/dev/gcc-arm-none-eabi-4_8-2014q2/bin/../lib/gcc/arm-none-eabi/4.8.4/../../../../arm-none-eabi/lib/armv7-m\libg_s.a(lib_a-strstr.o)
 .ARM.attributes
                0x00000a06       0x2d c:/dev/gcc-arm-none-eabi-4_8-2014q2/bin/../lib/gcc/arm-none-eabi/4.8.4/../../../../arm-none-eabi/lib/armv7-m\libc_s.a(lib_a-atoi.o)
 .ARM.attributes
                0x00000a33       0x2d c:/dev/gcc-arm-none-eabi-4_8-2014q2/bin/../lib/gcc/arm-none-eabi/4.8.4/../../../../arm-none-eabi/lib/armv7-m\libc_s.a(lib_a-ctype_.o)
 .ARM.attributes
                0x00000a60       0x2d c:/dev/gcc-arm-none-eabi-4_8-2014q2/bin/../lib/gcc/arm-none-eabi/4.8.4/../../../../arm-none-eabi/lib/armv7-m\libc_s.a(lib_a-memcpy-stub.o)
 .ARM.attributes
                0x00000a8d       0x2d c:/dev/gcc-arm-none-eabi-4_8-2014q2/bin/../lib/gcc/arm-none-eabi/4.8.4/../../../../arm-none-eabi/lib/armv7-m\libc_s.a(lib_a-strtok.o)
 .ARM.attributes
                0x00000aba       0x2d c:/dev/gcc-arm-none-eabi-4_8-2014q2/bin/../lib/gcc/arm-none-eabi/4.8.4/../../../../arm-none-eabi/lib/armv7-m\libc_s.a(lib_a-strtok_r.o)
 .ARM.attributes
                0x00000ae7       0x2d c:/dev/gcc-arm-none-eabi-4_8-2014q2/bin/../lib/gcc/arm-none-eabi/4.8.4/../../../../arm-none-eabi/lib/armv7-m\libc_s.a(lib_a-strtol.o)
 .ARM.attributes
                0x00000b14       0x2d c:/dev/gcc-arm-none-eabi-4_8-2014q2/bin/../lib/gcc/arm-none-eabi/4.8.4/../../../../arm-none-eabi/lib/armv7-m\libc_s.a(lib_a-impure.o)
 .ARM.attributes
                0x00000b41       0x2d c:/dev/gcc-arm-none-eabi-4_8-2014q2/bin/../lib/gcc/arm-none-eabi/4.8.4/../../../../arm-none-eabi/lib/armv7-m\libc_s.a(lib_a-malloc.o)
 .ARM.attributes
                0x00000b6e       0x2d c:/dev/gcc-arm-none-eabi-4_8-2014q2/bin/../lib/gcc/arm-none-eabi/4.8.4/../../../../arm-none-eabi/lib/armv7-m\libc_s.a(lib_a-nano-mallocr.o)
 .ARM.attributes
                0x00000b9b       0x2d c:/dev/gcc-arm-none-eabi-4_8-2014q2/bin/../lib/gcc/arm-none-eabi/4.8.4/../../../../arm-none-eabi/lib/armv7-m\libc_s.a(lib_a-sbrkr.o)
 .ARM.attributes
                0x00000bc8       0x2d c:/dev/gcc-arm-none-eabi-4_8-2014q2/bin/../lib/gcc/arm-none-eabi/4.8.4/../../../../arm-none-eabi/lib/armv7-m\libc_s.a(lib_a-reent.o)
 .ARM.attributes
                0x00000bf5       0x2d c:/dev/gcc-arm-none-eabi-4_8-2014q2/bin/../lib/gcc/arm-none-eabi/4.8.4/../../../../arm-none-eabi/lib/armv7-m\libnosys.a(sbrk.o)
 .ARM.attributes
                0x00000c22       0x2d c:/dev/gcc-arm-none-eabi-4_8-2014q2/bin/../lib/gcc/arm-none-eabi/4.8.4/../../../../arm-none-eabi/lib/armv7-m\libm.a(lib_a-sf_log2.o)
 .ARM.attributes
                0x00000c4f       0x2d c:/dev/gcc-arm-none-eabi-4_8-2014q2/bin/../lib/gcc/arm-none-eabi/4.8.4/../../../../arm-none-eabi/lib/armv7-m\libm.a(lib_a-sf_lrint.o)
 .ARM.attributes
                0x00000c7c       0x2d c:/dev/gcc-arm-none-eabi-4_8-2014q2/bin/../lib/gcc/arm-none-eabi/4.8.4/../../../../arm-none-eabi/lib/armv7-m\libm.a(lib_a-wf_log.o)
 .ARM.attributes
                0x00000ca9       0x2d c:/dev/gcc-arm-none-eabi-4_8-2014q2/bin/../lib/gcc/arm-none-eabi/4.8.4/../../../../arm-none-eabi/lib/armv7-m\libm.a(lib_a-wf_pow.o)
 .ARM.attributes
                0x00000cd6       0x2d c:/dev/gcc-arm-none-eabi-4_8-2014q2/bin/../lib/gcc/arm-none-eabi/4.8.4/../../../../arm-none-eabi/lib/armv7-m\libm.a(lib_a-wf_sqrt.o)
 .ARM.attributes
                0x00000d03       0x2d c:/dev/gcc-arm-none-eabi-4_8-2014q2/bin/../lib/gcc/arm-none-eabi/4.8.4/../../../../arm-none-eabi/lib/armv7-m\libm.a(lib_a-ef_log.o)
 .ARM.attributes
                0x00000d30       0x2d c:/dev/gcc-arm-none-eabi-4_8-2014q2/bin/../lib/gcc/arm-none-eabi/4.8.4/../../../../arm-none-eabi/lib/armv7-m\libm.a(lib_a-ef_pow.o)
 .ARM.attributes
                0x00000d5d       0x2d c:/dev/gcc-arm-none-eabi-4_8-2014q2/bin/../lib/gcc/arm-none-eabi/4.8.4/../../../../arm-none-eabi/lib/armv7-m\libm.a(lib_a-ef_sqrt.o)
 .ARM.attributes
                0x00000d8a       0x2d c:/dev/gcc-arm-none-eabi-4_8-2014q2/bin/../lib/gcc/arm-none-eabi/4.8.4/../../../../arm-none-eabi/lib/armv7-m\libm.a(lib_a-s_lib_ver.o)
 .ARM.attributes
                0x00000db7       0x2d c:/dev/gcc-arm-none-eabi-4_8-2014q2/bin/../lib/gcc/arm-none-eabi/4.8.4/../../../../arm-none-eabi/lib/armv7-m\libm.a(lib_a-s_matherr.o)
 .ARM.attributes
                0x00000de4       0x2d c:/dev/gcc-arm-none-eabi-4_8-2014q2/bin/../lib/gcc/arm-none-eabi/4.8.4/../../../../arm-none-eabi/lib/armv7-m\libm.a(lib_a-s_nan.o)
 .ARM.attributes
                0x00000e11       0x2d c:/dev/gcc-arm-none-eabi-4_8-2014q2/bin/../lib/gcc/arm-none-eabi/4.8.4/../../../../arm-none-eabi/lib/armv7-m\libm.a(lib_a-s_rint.o)
 .ARM.attributes
                0x00000e3e       0x2d c:/dev/gcc-arm-none-eabi-4_8-2014q2/bin/../lib/gcc/arm-none-eabi/4.8.4/../../../../arm-none-eabi/lib/armv7-m\libm.a(lib_a-sf_fabs.o)
 .ARM.attributes
                0x00000e6b       0x2d c:/dev/gcc-arm-none-eabi-4_8-2014q2/bin/../lib/gcc/arm-none-eabi/4.8.4/../../../../arm-none-eabi/lib/armv7-m\libm.a(lib_a-sf_finite.o)
 .ARM.attributes
                0x00000e98       0x2d c:/dev/gcc-arm-none-eabi-4_8-2014q2/bin/../lib/gcc/arm-none-eabi/4.8.4/../../../../arm-none-eabi/lib/armv7-m\libm.a(lib_a-sf_fpclassify.o)
 .ARM.attributes
                0x00000ec5       0x2d c:/dev/gcc-arm-none-eabi-4_8-2014q2/bin/../lib/gcc/arm-none-eabi/4.8.4/../../../../arm-none-eabi/lib/armv7-m\libm.a(lib_a-sf_nan.o)
 .ARM.attributes
                0x00000ef2       0x2d c:/dev/gcc-arm-none-eabi-4_8-2014q2/bin/../lib/gcc/arm-none-eabi/4.8.4/../../../../arm-none-eabi/lib/armv7-m\libm.a(lib_a-sf_scalbn.o)
 .ARM.attributes
                0x00000f1f       0x2d c:/dev/gcc-arm-none-eabi-4_8-2014q2/bin/../lib/gcc/arm-none-eabi/4.8.4/../../../../arm-none-eabi/lib/armv7-m\libm.a(lib_a-sf_copysign.o)
 .ARM.attributes
                0x00000f4c       0x2d c:/dev/gcc-arm-none-eabi-4_8-2014q2/bin/../lib/gcc/arm-none-eabi/4.8.4/../../../../arm-none-eabi/lib/armv7-m\libc_s.a(lib_a-errno.o)
 .ARM.attributes
                0x00000f79       0x1d c:/dev/gcc-arm-none-eabi-4_8-2014q2/bin/../lib/gcc/arm-none-eabi/4.8.4/armv7-m\libgcc.a(_arm_cmpdf2.o)
OUTPUT(obj/main/cleanflight_NAZE.elf elf32-littlearm)

.debug_info     0x00000000    0x51524
 .debug_info    0x00000000     0x8f52 C:\cygwin64\tmp\ccWFxnfo.ltrans0.ltrans.o
 .debug_info    0x00008f52     0x5e0d C:\cygwin64\tmp\ccWFxnfo.ltrans1.ltrans.o
 .debug_info    0x0000ed5f     0x431b C:\cygwin64\tmp\ccWFxnfo.ltrans2.ltrans.o
 .debug_info    0x0001307a     0x4375 C:\cygwin64\tmp\ccWFxnfo.ltrans3.ltrans.o
 .debug_info    0x000173ef     0x37ac C:\cygwin64\tmp\ccWFxnfo.ltrans4.ltrans.o
 .debug_info    0x0001ab9b     0x247d C:\cygwin64\tmp\ccWFxnfo.ltrans5.ltrans.o
 .debug_info    0x0001d018     0x2c80 C:\cygwin64\tmp\ccWFxnfo.ltrans6.ltrans.o
 .debug_info    0x0001fc98     0x27f0 C:\cygwin64\tmp\ccWFxnfo.ltrans7.ltrans.o
 .debug_info    0x00022488     0x268e C:\cygwin64\tmp\ccWFxnfo.ltrans8.ltrans.o
 .debug_info    0x00024b16     0x1b9d C:\cygwin64\tmp\ccWFxnfo.ltrans9.ltrans.o
 .debug_info    0x000266b3     0x29fe C:\cygwin64\tmp\ccWFxnfo.ltrans10.ltrans.o
 .debug_info    0x000290b1     0x222f C:\cygwin64\tmp\ccWFxnfo.ltrans11.ltrans.o
 .debug_info    0x0002b2e0     0x2ffb C:\cygwin64\tmp\ccWFxnfo.ltrans12.ltrans.o
 .debug_info    0x0002e2db     0x205a C:\cygwin64\tmp\ccWFxnfo.ltrans13.ltrans.o
 .debug_info    0x00030335     0x2c71 C:\cygwin64\tmp\ccWFxnfo.ltrans14.ltrans.o
 .debug_info    0x00032fa6     0x1df0 C:\cygwin64\tmp\ccWFxnfo.ltrans15.ltrans.o
 .debug_info    0x00034d96     0x23c6 C:\cygwin64\tmp\ccWFxnfo.ltrans16.ltrans.o
 .debug_info    0x0003715c     0x29cf C:\cygwin64\tmp\ccWFxnfo.ltrans17.ltrans.o
 .debug_info    0x00039b2b     0x22f9 C:\cygwin64\tmp\ccWFxnfo.ltrans18.ltrans.o
 .debug_info    0x0003be24     0x23b4 C:\cygwin64\tmp\ccWFxnfo.ltrans19.ltrans.o
 .debug_info    0x0003e1d8     0x233d C:\cygwin64\tmp\ccWFxnfo.ltrans20.ltrans.o
 .debug_info    0x00040515     0x30fe C:\cygwin64\tmp\ccWFxnfo.ltrans21.ltrans.o
 .debug_info    0x00043613     0x26c9 C:\cygwin64\tmp\ccWFxnfo.ltrans22.ltrans.o
 .debug_info    0x00045cdc     0x1fa7 C:\cygwin64\tmp\ccWFxnfo.ltrans23.ltrans.o
 .debug_info    0x00047c83     0x16d7 C:\cygwin64\tmp\ccWFxnfo.ltrans24.ltrans.o
 .debug_info    0x0004935a     0x1d27 C:\cygwin64\tmp\ccWFxnfo.ltrans25.ltrans.o
 .debug_info    0x0004b081     0x1e27 C:\cygwin64\tmp\ccWFxnfo.ltrans26.ltrans.o
 .debug_info    0x0004cea8     0x11b2 C:\cygwin64\tmp\ccWFxnfo.ltrans27.ltrans.o
 .debug_info    0x0004e05a     0x12df C:\cygwin64\tmp\ccWFxnfo.ltrans28.ltrans.o
 .debug_info    0x0004f339      0xd24 C:\cygwin64\tmp\ccWFxnfo.ltrans29.ltrans.o
 .debug_info    0x0005005d      0xf76 C:\cygwin64\tmp\ccWFxnfo.ltrans30.ltrans.o
 .debug_info    0x00050fd3      0x551 C:\cygwin64\tmp\ccWFxnfo.ltrans31.ltrans.o

.debug_abbrev   0x00000000     0xa906
 .debug_abbrev  0x00000000      0x67f C:\cygwin64\tmp\ccWFxnfo.ltrans0.ltrans.o
 .debug_abbrev  0x0000067f      0x5bd C:\cygwin64\tmp\ccWFxnfo.ltrans1.ltrans.o
 .debug_abbrev  0x00000c3c      0x566 C:\cygwin64\tmp\ccWFxnfo.ltrans2.ltrans.o
 .debug_abbrev  0x000011a2      0x4de C:\cygwin64\tmp\ccWFxnfo.ltrans3.ltrans.o
 .debug_abbrev  0x00001680      0x518 C:\cygwin64\tmp\ccWFxnfo.ltrans4.ltrans.o
 .debug_abbrev  0x00001b98      0x52e C:\cygwin64\tmp\ccWFxnfo.ltrans5.ltrans.o
 .debug_abbrev  0x000020c6      0x5e4 C:\cygwin64\tmp\ccWFxnfo.ltrans6.ltrans.o
 .debug_abbrev  0x000026aa      0x739 C:\cygwin64\tmp\ccWFxnfo.ltrans7.ltrans.o
 .debug_abbrev  0x00002de3      0x63b C:\cygwin64\tmp\ccWFxnfo.ltrans8.ltrans.o
 .debug_abbrev  0x0000341e      0x514 C:\cygwin64\tmp\ccWFxnfo.ltrans9.ltrans.o
 .debug_abbrev  0x00003932      0x5cf C:\cygwin64\tmp\ccWFxnfo.ltrans10.ltrans.o
 .debug_abbrev  0x00003f01      0x5ea C:\cygwin64\tmp\ccWFxnfo.ltrans11.ltrans.o
 .debug_abbrev  0x000044eb      0x6b0 C:\cygwin64\tmp\ccWFxnfo.ltrans12.ltrans.o
 .debug_abbrev  0x00004b9b      0x5ae C:\cygwin64\tmp\ccWFxnfo.ltrans13.ltrans.o
 .debug_abbrev  0x00005149      0x65c C:\cygwin64\tmp\ccWFxnfo.ltrans14.ltrans.o
 .debug_abbrev  0x000057a5      0x634 C:\cygwin64\tmp\ccWFxnfo.ltrans15.ltrans.o
 .debug_abbrev  0x00005dd9      0x52d C:\cygwin64\tmp\ccWFxnfo.ltrans16.ltrans.o
 .debug_abbrev  0x00006306      0x498 C:\cygwin64\tmp\ccWFxnfo.ltrans17.ltrans.o
 .debug_abbrev  0x0000679e      0x699 C:\cygwin64\tmp\ccWFxnfo.ltrans18.ltrans.o
 .debug_abbrev  0x00006e37      0x56c C:\cygwin64\tmp\ccWFxnfo.ltrans19.ltrans.o
 .debug_abbrev  0x000073a3      0x53d C:\cygwin64\tmp\ccWFxnfo.ltrans20.ltrans.o
 .debug_abbrev  0x000078e0      0x6eb C:\cygwin64\tmp\ccWFxnfo.ltrans21.ltrans.o
 .debug_abbrev  0x00007fcb      0x684 C:\cygwin64\tmp\ccWFxnfo.ltrans22.ltrans.o
 .debug_abbrev  0x0000864f      0x46f C:\cygwin64\tmp\ccWFxnfo.ltrans23.ltrans.o
 .debug_abbrev  0x00008abe      0x53c C:\cygwin64\tmp\ccWFxnfo.ltrans24.ltrans.o
 .debug_abbrev  0x00008ffa      0x4d2 C:\cygwin64\tmp\ccWFxnfo.ltrans25.ltrans.o
 .debug_abbrev  0x000094cc      0x4d4 C:\cygwin64\tmp\ccWFxnfo.ltrans26.ltrans.o
 .debug_abbrev  0x000099a0      0x3d3 C:\cygwin64\tmp\ccWFxnfo.ltrans27.ltrans.o
 .debug_abbrev  0x00009d73      0x3ef C:\cygwin64\tmp\ccWFxnfo.ltrans28.ltrans.o
 .debug_abbrev  0x0000a162      0x301 C:\cygwin64\tmp\ccWFxnfo.ltrans29.ltrans.o
 .debug_abbrev  0x0000a463      0x2de C:\cygwin64\tmp\ccWFxnfo.ltrans30.ltrans.o
 .debug_abbrev  0x0000a741      0x1c5 C:\cygwin64\tmp\ccWFxnfo.ltrans31.ltrans.o

.debug_loc      0x00000000    0x21ca6
 .debug_loc     0x00000000     0x26fb C:\cygwin64\tmp\ccWFxnfo.ltrans0.ltrans.o
 .debug_loc     0x000026fb     0x4b85 C:\cygwin64\tmp\ccWFxnfo.ltrans1.ltrans.o
 .debug_loc     0x00007280     0x24f9 C:\cygwin64\tmp\ccWFxnfo.ltrans2.ltrans.o
 .debug_loc     0x00009779     0x17f7 C:\cygwin64\tmp\ccWFxnfo.ltrans3.ltrans.o
 .debug_loc     0x0000af70     0x1508 C:\cygwin64\tmp\ccWFxnfo.ltrans4.ltrans.o
 .debug_loc     0x0000c478     0x137f C:\cygwin64\tmp\ccWFxnfo.ltrans5.ltrans.o
 .debug_loc     0x0000d7f7     0x1508 C:\cygwin64\tmp\ccWFxnfo.ltrans6.ltrans.o
 .debug_loc     0x0000ecff     0x1169 C:\cygwin64\tmp\ccWFxnfo.ltrans7.ltrans.o
 .debug_loc     0x0000fe68     0x134e C:\cygwin64\tmp\ccWFxnfo.ltrans8.ltrans.o
 .debug_loc     0x000111b6      0x8e0 C:\cygwin64\tmp\ccWFxnfo.ltrans9.ltrans.o
 .debug_loc     0x00011a96     0x10db C:\cygwin64\tmp\ccWFxnfo.ltrans10.ltrans.o
 .debug_loc     0x00012b71      0xeae C:\cygwin64\tmp\ccWFxnfo.ltrans11.ltrans.o
 .debug_loc     0x00013a1f     0x1306 C:\cygwin64\tmp\ccWFxnfo.ltrans12.ltrans.o
 .debug_loc     0x00014d25     0x1603 C:\cygwin64\tmp\ccWFxnfo.ltrans13.ltrans.o
 .debug_loc     0x00016328     0x1a96 C:\cygwin64\tmp\ccWFxnfo.ltrans14.ltrans.o
 .debug_loc     0x00017dbe     0x1130 C:\cygwin64\tmp\ccWFxnfo.ltrans15.ltrans.o
 .debug_loc     0x00018eee     0x10b9 C:\cygwin64\tmp\ccWFxnfo.ltrans16.ltrans.o
 .debug_loc     0x00019fa7      0xb21 C:\cygwin64\tmp\ccWFxnfo.ltrans17.ltrans.o
 .debug_loc     0x0001aac8      0xe60 C:\cygwin64\tmp\ccWFxnfo.ltrans18.ltrans.o
 .debug_loc     0x0001b928      0xad6 C:\cygwin64\tmp\ccWFxnfo.ltrans19.ltrans.o
 .debug_loc     0x0001c3fe      0xc8a C:\cygwin64\tmp\ccWFxnfo.ltrans20.ltrans.o
 .debug_loc     0x0001d088     0x1392 C:\cygwin64\tmp\ccWFxnfo.ltrans21.ltrans.o
 .debug_loc     0x0001e41a      0xfe6 C:\cygwin64\tmp\ccWFxnfo.ltrans22.ltrans.o
 .debug_loc     0x0001f400      0xad9 C:\cygwin64\tmp\ccWFxnfo.ltrans23.ltrans.o
 .debug_loc     0x0001fed9      0x4c7 C:\cygwin64\tmp\ccWFxnfo.ltrans24.ltrans.o
 .debug_loc     0x000203a0      0x5af C:\cygwin64\tmp\ccWFxnfo.ltrans25.ltrans.o
 .debug_loc     0x0002094f      0xaf2 C:\cygwin64\tmp\ccWFxnfo.ltrans26.ltrans.o
 .debug_loc     0x00021441      0x219 C:\cygwin64\tmp\ccWFxnfo.ltrans27.ltrans.o
 .debug_loc     0x0002165a      0x38c C:\cygwin64\tmp\ccWFxnfo.ltrans28.ltrans.o
 .debug_loc     0x000219e6       0x50 C:\cygwin64\tmp\ccWFxnfo.ltrans29.ltrans.o
 .debug_loc     0x00021a36      0x13a C:\cygwin64\tmp\ccWFxnfo.ltrans30.ltrans.o
 .debug_loc     0x00021b70      0x136 C:\cygwin64\tmp\ccWFxnfo.ltrans31.ltrans.o

.debug_aranges  0x00000000      0x408
 .debug_aranges
                0x00000000       0x20 C:\cygwin64\tmp\ccWFxnfo.ltrans0.ltrans.o
 .debug_aranges
                0x00000020       0x20 C:\cygwin64\tmp\ccWFxnfo.ltrans1.ltrans.o
 .debug_aranges
                0x00000040       0x20 C:\cygwin64\tmp\ccWFxnfo.ltrans2.ltrans.o
 .debug_aranges
                0x00000060       0x20 C:\cygwin64\tmp\ccWFxnfo.ltrans3.ltrans.o
 .debug_aranges
                0x00000080       0x20 C:\cygwin64\tmp\ccWFxnfo.ltrans4.ltrans.o
 .debug_aranges
                0x000000a0       0x20 C:\cygwin64\tmp\ccWFxnfo.ltrans5.ltrans.o
 .debug_aranges
                0x000000c0       0x28 C:\cygwin64\tmp\ccWFxnfo.ltrans6.ltrans.o
 .debug_aranges
                0x000000e8       0x20 C:\cygwin64\tmp\ccWFxnfo.ltrans7.ltrans.o
 .debug_aranges
                0x00000108       0x20 C:\cygwin64\tmp\ccWFxnfo.ltrans8.ltrans.o
 .debug_aranges
                0x00000128       0x20 C:\cygwin64\tmp\ccWFxnfo.ltrans9.ltrans.o
 .debug_aranges
                0x00000148       0x20 C:\cygwin64\tmp\ccWFxnfo.ltrans10.ltrans.o
 .debug_aranges
                0x00000168       0x20 C:\cygwin64\tmp\ccWFxnfo.ltrans11.ltrans.o
 .debug_aranges
                0x00000188       0x20 C:\cygwin64\tmp\ccWFxnfo.ltrans12.ltrans.o
 .debug_aranges
                0x000001a8       0x20 C:\cygwin64\tmp\ccWFxnfo.ltrans13.ltrans.o
 .debug_aranges
                0x000001c8       0x20 C:\cygwin64\tmp\ccWFxnfo.ltrans14.ltrans.o
 .debug_aranges
                0x000001e8       0x20 C:\cygwin64\tmp\ccWFxnfo.ltrans15.ltrans.o
 .debug_aranges
                0x00000208       0x20 C:\cygwin64\tmp\ccWFxnfo.ltrans16.ltrans.o
 .debug_aranges
                0x00000228       0x20 C:\cygwin64\tmp\ccWFxnfo.ltrans17.ltrans.o
 .debug_aranges
                0x00000248       0x20 C:\cygwin64\tmp\ccWFxnfo.ltrans18.ltrans.o
 .debug_aranges
                0x00000268       0x20 C:\cygwin64\tmp\ccWFxnfo.ltrans19.ltrans.o
 .debug_aranges
                0x00000288       0x20 C:\cygwin64\tmp\ccWFxnfo.ltrans20.ltrans.o
 .debug_aranges
                0x000002a8       0x20 C:\cygwin64\tmp\ccWFxnfo.ltrans21.ltrans.o
 .debug_aranges
                0x000002c8       0x20 C:\cygwin64\tmp\ccWFxnfo.ltrans22.ltrans.o
 .debug_aranges
                0x000002e8       0x20 C:\cygwin64\tmp\ccWFxnfo.ltrans23.ltrans.o
 .debug_aranges
                0x00000308       0x20 C:\cygwin64\tmp\ccWFxnfo.ltrans24.ltrans.o
 .debug_aranges
                0x00000328       0x20 C:\cygwin64\tmp\ccWFxnfo.ltrans25.ltrans.o
 .debug_aranges
                0x00000348       0x20 C:\cygwin64\tmp\ccWFxnfo.ltrans26.ltrans.o
 .debug_aranges
                0x00000368       0x20 C:\cygwin64\tmp\ccWFxnfo.ltrans27.ltrans.o
 .debug_aranges
                0x00000388       0x20 C:\cygwin64\tmp\ccWFxnfo.ltrans28.ltrans.o
 .debug_aranges
                0x000003a8       0x20 C:\cygwin64\tmp\ccWFxnfo.ltrans29.ltrans.o
 .debug_aranges
                0x000003c8       0x20 C:\cygwin64\tmp\ccWFxnfo.ltrans30.ltrans.o
 .debug_aranges
                0x000003e8       0x20 C:\cygwin64\tmp\ccWFxnfo.ltrans31.ltrans.o

.debug_ranges   0x00000000     0x71d0
 .debug_ranges  0x00000000      0xeb0 C:\cygwin64\tmp\ccWFxnfo.ltrans0.ltrans.o
 .debug_ranges  0x00000eb0     0x1138 C:\cygwin64\tmp\ccWFxnfo.ltrans1.ltrans.o
 .debug_ranges  0x00001fe8      0x800 C:\cygwin64\tmp\ccWFxnfo.ltrans2.ltrans.o
 .debug_ranges  0x000027e8      0x9d8 C:\cygwin64\tmp\ccWFxnfo.ltrans3.ltrans.o
 .debug_ranges  0x000031c0      0x718 C:\cygwin64\tmp\ccWFxnfo.ltrans4.ltrans.o
 .debug_ranges  0x000038d8      0x1d8 C:\cygwin64\tmp\ccWFxnfo.ltrans5.ltrans.o
 .debug_ranges  0x00003ab0      0x140 C:\cygwin64\tmp\ccWFxnfo.ltrans6.ltrans.o
 .debug_ranges  0x00003bf0       0xe0 C:\cygwin64\tmp\ccWFxnfo.ltrans7.ltrans.o
 .debug_ranges  0x00003cd0      0x268 C:\cygwin64\tmp\ccWFxnfo.ltrans8.ltrans.o
 .debug_ranges  0x00003f38      0x2b0 C:\cygwin64\tmp\ccWFxnfo.ltrans9.ltrans.o
 .debug_ranges  0x000041e8      0x398 C:\cygwin64\tmp\ccWFxnfo.ltrans10.ltrans.o
 .debug_ranges  0x00004580      0x580 C:\cygwin64\tmp\ccWFxnfo.ltrans11.ltrans.o
 .debug_ranges  0x00004b00      0x1f0 C:\cygwin64\tmp\ccWFxnfo.ltrans12.ltrans.o
 .debug_ranges  0x00004cf0      0x218 C:\cygwin64\tmp\ccWFxnfo.ltrans13.ltrans.o
 .debug_ranges  0x00004f08      0x158 C:\cygwin64\tmp\ccWFxnfo.ltrans14.ltrans.o
 .debug_ranges  0x00005060      0x350 C:\cygwin64\tmp\ccWFxnfo.ltrans15.ltrans.o
 .debug_ranges  0x000053b0      0x1e0 C:\cygwin64\tmp\ccWFxnfo.ltrans16.ltrans.o
 .debug_ranges  0x00005590      0x520 C:\cygwin64\tmp\ccWFxnfo.ltrans17.ltrans.o
 .debug_ranges  0x00005ab0      0x1a8 C:\cygwin64\tmp\ccWFxnfo.ltrans18.ltrans.o
 .debug_ranges  0x00005c58      0x338 C:\cygwin64\tmp\ccWFxnfo.ltrans19.ltrans.o
 .debug_ranges  0x00005f90      0x308 C:\cygwin64\tmp\ccWFxnfo.ltrans20.ltrans.o
 .debug_ranges  0x00006298      0x2a0 C:\cygwin64\tmp\ccWFxnfo.ltrans21.ltrans.o
 .debug_ranges  0x00006538      0x298 C:\cygwin64\tmp\ccWFxnfo.ltrans22.ltrans.o
 .debug_ranges  0x000067d0      0x140 C:\cygwin64\tmp\ccWFxnfo.ltrans23.ltrans.o
 .debug_ranges  0x00006910      0x2b0 C:\cygwin64\tmp\ccWFxnfo.ltrans24.ltrans.o
 .debug_ranges  0x00006bc0      0x1f8 C:\cygwin64\tmp\ccWFxnfo.ltrans25.ltrans.o
 .debug_ranges  0x00006db8       0xc8 C:\cygwin64\tmp\ccWFxnfo.ltrans26.ltrans.o
 .debug_ranges  0x00006e80      0x188 C:\cygwin64\tmp\ccWFxnfo.ltrans27.ltrans.o
 .debug_ranges  0x00007008      0x160 C:\cygwin64\tmp\ccWFxnfo.ltrans28.ltrans.o
 .debug_ranges  0x00007168       0x68 C:\cygwin64\tmp\ccWFxnfo.ltrans29.ltrans.o

.debug_line     0x00000000    0x1039b
 .debug_line    0x00000000     0x192b C:\cygwin64\tmp\ccWFxnfo.ltrans0.ltrans.o
 .debug_line    0x0000192b     0x1565 C:\cygwin64\tmp\ccWFxnfo.ltrans1.ltrans.o
 .debug_line    0x00002e90      0xdfa C:\cygwin64\tmp\ccWFxnfo.ltrans2.ltrans.o
 .debug_line    0x00003c8a      0xcc3 C:\cygwin64\tmp\ccWFxnfo.ltrans3.ltrans.o
 .debug_line    0x0000494d      0xcf4 C:\cygwin64\tmp\ccWFxnfo.ltrans4.ltrans.o
 .debug_line    0x00005641      0x532 C:\cygwin64\tmp\ccWFxnfo.ltrans5.ltrans.o
 .debug_line    0x00005b73      0x8ef C:\cygwin64\tmp\ccWFxnfo.ltrans6.ltrans.o
 .debug_line    0x00006462      0x8f3 C:\cygwin64\tmp\ccWFxnfo.ltrans7.ltrans.o
 .debug_line    0x00006d55      0x6b7 C:\cygwin64\tmp\ccWFxnfo.ltrans8.ltrans.o
 .debug_line    0x0000740c      0x667 C:\cygwin64\tmp\ccWFxnfo.ltrans9.ltrans.o
 .debug_line    0x00007a73      0x8e6 C:\cygwin64\tmp\ccWFxnfo.ltrans10.ltrans.o
 .debug_line    0x00008359      0x841 C:\cygwin64\tmp\ccWFxnfo.ltrans11.ltrans.o
 .debug_line    0x00008b9a      0x92c C:\cygwin64\tmp\ccWFxnfo.ltrans12.ltrans.o
 .debug_line    0x000094c6      0x74c C:\cygwin64\tmp\ccWFxnfo.ltrans13.ltrans.o
 .debug_line    0x00009c12      0x756 C:\cygwin64\tmp\ccWFxnfo.ltrans14.ltrans.o
 .debug_line    0x0000a368      0x6f9 C:\cygwin64\tmp\ccWFxnfo.ltrans15.ltrans.o
 .debug_line    0x0000aa61      0x751 C:\cygwin64\tmp\ccWFxnfo.ltrans16.ltrans.o
 .debug_line    0x0000b1b2      0x8c1 C:\cygwin64\tmp\ccWFxnfo.ltrans17.ltrans.o
 .debug_line    0x0000ba73      0x6e2 C:\cygwin64\tmp\ccWFxnfo.ltrans18.ltrans.o
 .debug_line    0x0000c155      0x8c9 C:\cygwin64\tmp\ccWFxnfo.ltrans19.ltrans.o
 .debug_line    0x0000ca1e      0x5f7 C:\cygwin64\tmp\ccWFxnfo.ltrans20.ltrans.o
 .debug_line    0x0000d015      0x70d C:\cygwin64\tmp\ccWFxnfo.ltrans21.ltrans.o
 .debug_line    0x0000d722      0x6c7 C:\cygwin64\tmp\ccWFxnfo.ltrans22.ltrans.o
 .debug_line    0x0000dde9      0x62f C:\cygwin64\tmp\ccWFxnfo.ltrans23.ltrans.o
 .debug_line    0x0000e418      0x603 C:\cygwin64\tmp\ccWFxnfo.ltrans24.ltrans.o
 .debug_line    0x0000ea1b      0x67a C:\cygwin64\tmp\ccWFxnfo.ltrans25.ltrans.o
 .debug_line    0x0000f095      0x4e4 C:\cygwin64\tmp\ccWFxnfo.ltrans26.ltrans.o
 .debug_line    0x0000f579      0x409 C:\cygwin64\tmp\ccWFxnfo.ltrans27.ltrans.o
 .debug_line    0x0000f982      0x345 C:\cygwin64\tmp\ccWFxnfo.ltrans28.ltrans.o
 .debug_line    0x0000fcc7      0x2c3 C:\cygwin64\tmp\ccWFxnfo.ltrans29.ltrans.o
 .debug_line    0x0000ff8a      0x254 C:\cygwin64\tmp\ccWFxnfo.ltrans30.ltrans.o
 .debug_line    0x000101de      0x1bd C:\cygwin64\tmp\ccWFxnfo.ltrans31.ltrans.o

.debug_str      0x00000000    0x15e15
 .debug_str     0x00000000     0x59ad C:\cygwin64\tmp\ccWFxnfo.ltrans0.ltrans.o
                               0x5c58 (size before relaxing)
 .debug_str     0x000059ad     0x1128 C:\cygwin64\tmp\ccWFxnfo.ltrans1.ltrans.o
                               0x227f (size before relaxing)
 .debug_str     0x00006ad5     0x205b C:\cygwin64\tmp\ccWFxnfo.ltrans2.ltrans.o
                               0x2e49 (size before relaxing)
 .debug_str     0x00008b30     0x180d C:\cygwin64\tmp\ccWFxnfo.ltrans3.ltrans.o
                               0x231c (size before relaxing)
 .debug_str     0x0000a33d     0x17f7 C:\cygwin64\tmp\ccWFxnfo.ltrans4.ltrans.o
                               0x269c (size before relaxing)
 .debug_str     0x0000bb34      0xc94 C:\cygwin64\tmp\ccWFxnfo.ltrans5.ltrans.o
                               0x109f (size before relaxing)
 .debug_str     0x0000c7c8      0x963 C:\cygwin64\tmp\ccWFxnfo.ltrans6.ltrans.o
                               0x1cda (size before relaxing)
 .debug_str     0x0000d12b      0xad5 C:\cygwin64\tmp\ccWFxnfo.ltrans7.ltrans.o
                               0x1cfc (size before relaxing)
 .debug_str     0x0000dc00      0x68f C:\cygwin64\tmp\ccWFxnfo.ltrans8.ltrans.o
                               0x149b (size before relaxing)
 .debug_str     0x0000e28f      0x623 C:\cygwin64\tmp\ccWFxnfo.ltrans9.ltrans.o
                               0x13be (size before relaxing)
 .debug_str     0x0000e8b2      0x764 C:\cygwin64\tmp\ccWFxnfo.ltrans10.ltrans.o
                               0x172c (size before relaxing)
 .debug_str     0x0000f016      0xa73 C:\cygwin64\tmp\ccWFxnfo.ltrans11.ltrans.o
                               0x1363 (size before relaxing)
 .debug_str     0x0000fa89      0x875 C:\cygwin64\tmp\ccWFxnfo.ltrans12.ltrans.o
                               0x1cef (size before relaxing)
 .debug_str     0x000102fe      0x751 C:\cygwin64\tmp\ccWFxnfo.ltrans13.ltrans.o
                                0xda6 (size before relaxing)
 .debug_str     0x00010a4f      0x54f C:\cygwin64\tmp\ccWFxnfo.ltrans14.ltrans.o
                               0x1559 (size before relaxing)
 .debug_str     0x00010f9e      0x5a4 C:\cygwin64\tmp\ccWFxnfo.ltrans15.ltrans.o
                                0xd52 (size before relaxing)
 .debug_str     0x00011542      0x3a3 C:\cygwin64\tmp\ccWFxnfo.ltrans16.ltrans.o
                               0x1462 (size before relaxing)
 .debug_str     0x000118e5      0xbd6 C:\cygwin64\tmp\ccWFxnfo.ltrans17.ltrans.o
                               0x1601 (size before relaxing)
 .debug_str     0x000124bb      0x580 C:\cygwin64\tmp\ccWFxnfo.ltrans18.ltrans.o
                               0x1bbd (size before relaxing)
 .debug_str     0x00012a3b      0x3d1 C:\cygwin64\tmp\ccWFxnfo.ltrans19.ltrans.o
                                0xfe1 (size before relaxing)
 .debug_str     0x00012e0c      0x74f C:\cygwin64\tmp\ccWFxnfo.ltrans20.ltrans.o
                                0xfd8 (size before relaxing)
 .debug_str     0x0001355b      0x6be C:\cygwin64\tmp\ccWFxnfo.ltrans21.ltrans.o
                               0x1dac (size before relaxing)
 .debug_str     0x00013c19      0x3b0 C:\cygwin64\tmp\ccWFxnfo.ltrans22.ltrans.o
                               0x1581 (size before relaxing)
 .debug_str     0x00013fc9      0x32c C:\cygwin64\tmp\ccWFxnfo.ltrans23.ltrans.o
                               0x148d (size before relaxing)
 .debug_str     0x000142f5      0x747 C:\cygwin64\tmp\ccWFxnfo.ltrans24.ltrans.o
                                0xf82 (size before relaxing)
 .debug_str     0x00014a3c      0x656 C:\cygwin64\tmp\ccWFxnfo.ltrans25.ltrans.o
                               0x12f4 (size before relaxing)
 .debug_str     0x00015092      0x4b1 C:\cygwin64\tmp\ccWFxnfo.ltrans26.ltrans.o
                               0x12b4 (size before relaxing)
 .debug_str     0x00015543      0x20b C:\cygwin64\tmp\ccWFxnfo.ltrans27.ltrans.o
                               0x1502 (size before relaxing)
 .debug_str     0x0001574e      0x1f3 C:\cygwin64\tmp\ccWFxnfo.ltrans28.ltrans.o
                                0xbd7 (size before relaxing)
 .debug_str     0x00015941      0x1b0 C:\cygwin64\tmp\ccWFxnfo.ltrans29.ltrans.o
                                0xb3f (size before relaxing)
 .debug_str     0x00015af1      0x1fe C:\cygwin64\tmp\ccWFxnfo.ltrans30.ltrans.o
                                0xc61 (size before relaxing)
 .debug_str     0x00015cef      0x126 C:\cygwin64\tmp\ccWFxnfo.ltrans31.ltrans.o
                                0x5f8 (size before relaxing)

.comment        0x00000000       0x70
 .comment       0x00000000       0x70 C:\cygwin64\tmp\ccWFxnfo.ltrans0.ltrans.o
                                 0x71 (size before relaxing)
 .comment       0x00000000       0x71 C:\cygwin64\tmp\ccWFxnfo.ltrans1.ltrans.o
 .comment       0x00000000       0x71 C:\cygwin64\tmp\ccWFxnfo.ltrans2.ltrans.o
 .comment       0x00000000       0x71 C:\cygwin64\tmp\ccWFxnfo.ltrans3.ltrans.o
 .comment       0x00000000       0x71 C:\cygwin64\tmp\ccWFxnfo.ltrans4.ltrans.o
 .comment       0x00000000       0x71 C:\cygwin64\tmp\ccWFxnfo.ltrans5.ltrans.o
 .comment       0x00000000       0x71 C:\cygwin64\tmp\ccWFxnfo.ltrans6.ltrans.o
 .comment       0x00000000       0x71 C:\cygwin64\tmp\ccWFxnfo.ltrans7.ltrans.o
 .comment       0x00000000       0x71 C:\cygwin64\tmp\ccWFxnfo.ltrans8.ltrans.o
 .comment       0x00000000       0x71 C:\cygwin64\tmp\ccWFxnfo.ltrans9.ltrans.o
 .comment       0x00000000       0x71 C:\cygwin64\tmp\ccWFxnfo.ltrans10.ltrans.o
 .comment       0x00000000       0x71 C:\cygwin64\tmp\ccWFxnfo.ltrans11.ltrans.o
 .comment       0x00000000       0x71 C:\cygwin64\tmp\ccWFxnfo.ltrans12.ltrans.o
 .comment       0x00000000       0x71 C:\cygwin64\tmp\ccWFxnfo.ltrans13.ltrans.o
 .comment       0x00000000       0x71 C:\cygwin64\tmp\ccWFxnfo.ltrans14.ltrans.o
 .comment       0x00000000       0x71 C:\cygwin64\tmp\ccWFxnfo.ltrans15.ltrans.o
 .comment       0x00000000       0x71 C:\cygwin64\tmp\ccWFxnfo.ltrans16.ltrans.o
 .comment       0x00000000       0x71 C:\cygwin64\tmp\ccWFxnfo.ltrans17.ltrans.o
 .comment       0x00000000       0x71 C:\cygwin64\tmp\ccWFxnfo.ltrans18.ltrans.o
 .comment       0x00000000       0x71 C:\cygwin64\tmp\ccWFxnfo.ltrans19.ltrans.o
 .comment       0x00000000       0x71 C:\cygwin64\tmp\ccWFxnfo.ltrans20.ltrans.o
 .comment       0x00000000       0x71 C:\cygwin64\tmp\ccWFxnfo.ltrans21.ltrans.o
 .comment       0x00000000       0x71 C:\cygwin64\tmp\ccWFxnfo.ltrans22.ltrans.o
 .comment       0x00000000       0x71 C:\cygwin64\tmp\ccWFxnfo.ltrans23.ltrans.o
 .comment       0x00000000       0x71 C:\cygwin64\tmp\ccWFxnfo.ltrans24.ltrans.o
 .comment       0x00000000       0x71 C:\cygwin64\tmp\ccWFxnfo.ltrans25.ltrans.o
 .comment       0x00000000       0x71 C:\cygwin64\tmp\ccWFxnfo.ltrans26.ltrans.o
 .comment       0x00000000       0x71 C:\cygwin64\tmp\ccWFxnfo.ltrans27.ltrans.o
 .comment       0x00000000       0x71 C:\cygwin64\tmp\ccWFxnfo.ltrans28.ltrans.o
 .comment       0x00000000       0x71 C:\cygwin64\tmp\ccWFxnfo.ltrans29.ltrans.o
 .comment       0x00000000       0x71 C:\cygwin64\tmp\ccWFxnfo.ltrans30.ltrans.o
 .comment       0x00000000       0x71 C:\cygwin64\tmp\ccWFxnfo.ltrans31.ltrans.o

.debug_frame    0x00000000     0x37d8
 .debug_frame   0x00000000       0x30 C:\cygwin64\tmp\ccWFxnfo.ltrans0.ltrans.o
 .debug_frame   0x00000030       0x3c C:\cygwin64\tmp\ccWFxnfo.ltrans1.ltrans.o
 .debug_frame   0x0000006c       0x3c C:\cygwin64\tmp\ccWFxnfo.ltrans2.ltrans.o
 .debug_frame   0x000000a8       0x38 C:\cygwin64\tmp\ccWFxnfo.ltrans3.ltrans.o
 .debug_frame   0x000000e0       0x38 C:\cygwin64\tmp\ccWFxnfo.ltrans4.ltrans.o
 .debug_frame   0x00000118      0x18c C:\cygwin64\tmp\ccWFxnfo.ltrans5.ltrans.o
 .debug_frame   0x000002a4      0x36c C:\cygwin64\tmp\ccWFxnfo.ltrans6.ltrans.o
 .debug_frame   0x00000610      0x594 C:\cygwin64\tmp\ccWFxnfo.ltrans7.ltrans.o
 .debug_frame   0x00000ba4      0x288 C:\cygwin64\tmp\ccWFxnfo.ltrans8.ltrans.o
 .debug_frame   0x00000e2c       0xb0 C:\cygwin64\tmp\ccWFxnfo.ltrans9.ltrans.o
 .debug_frame   0x00000edc      0x1c8 C:\cygwin64\tmp\ccWFxnfo.ltrans10.ltrans.o
 .debug_frame   0x000010a4      0x14c C:\cygwin64\tmp\ccWFxnfo.ltrans11.ltrans.o
 .debug_frame   0x000011f0      0x2b4 C:\cygwin64\tmp\ccWFxnfo.ltrans12.ltrans.o
 .debug_frame   0x000014a4      0x2ec C:\cygwin64\tmp\ccWFxnfo.ltrans13.ltrans.o
 .debug_frame   0x00001790      0x5d4 C:\cygwin64\tmp\ccWFxnfo.ltrans14.ltrans.o
 .debug_frame   0x00001d64      0x17c C:\cygwin64\tmp\ccWFxnfo.ltrans15.ltrans.o
 .debug_frame   0x00001ee0      0x144 C:\cygwin64\tmp\ccWFxnfo.ltrans16.ltrans.o
 .debug_frame   0x00002024       0x38 C:\cygwin64\tmp\ccWFxnfo.ltrans17.ltrans.o
 .debug_frame   0x0000205c      0x27c C:\cygwin64\tmp\ccWFxnfo.ltrans18.ltrans.o
 .debug_frame   0x000022d8      0x1cc C:\cygwin64\tmp\ccWFxnfo.ltrans19.ltrans.o
 .debug_frame   0x000024a4       0x7c C:\cygwin64\tmp\ccWFxnfo.ltrans20.ltrans.o
 .debug_frame   0x00002520      0x1c4 C:\cygwin64\tmp\ccWFxnfo.ltrans21.ltrans.o
 .debug_frame   0x000026e4      0x1ac C:\cygwin64\tmp\ccWFxnfo.ltrans22.ltrans.o
 .debug_frame   0x00002890       0xa0 C:\cygwin64\tmp\ccWFxnfo.ltrans23.ltrans.o
 .debug_frame   0x00002930       0x88 C:\cygwin64\tmp\ccWFxnfo.ltrans24.ltrans.o
 .debug_frame   0x000029b8       0xb4 C:\cygwin64\tmp\ccWFxnfo.ltrans25.ltrans.o
 .debug_frame   0x00002a6c      0x28c C:\cygwin64\tmp\ccWFxnfo.ltrans26.ltrans.o
 .debug_frame   0x00002cf8       0x38 C:\cygwin64\tmp\ccWFxnfo.ltrans27.ltrans.o
 .debug_frame   0x00002d30       0x84 C:\cygwin64\tmp\ccWFxnfo.ltrans28.ltrans.o
 .debug_frame   0x00002db4       0x50 C:\cygwin64\tmp\ccWFxnfo.ltrans29.ltrans.o
 .debug_frame   0x00002e04      0x18c C:\cygwin64\tmp\ccWFxnfo.ltrans30.ltrans.o
 .debug_frame   0x00002f90       0xe0 C:\cygwin64\tmp\ccWFxnfo.ltrans31.ltrans.o
 .debug_frame   0x00003070       0x28 c:/dev/gcc-arm-none-eabi-4_8-2014q2/bin/../lib/gcc/arm-none-eabi/4.8.4/armv7-m\libgcc.a(_popcountsi2.o)
 .debug_frame   0x00003098       0x58 c:/dev/gcc-arm-none-eabi-4_8-2014q2/bin/../lib/gcc/arm-none-eabi/4.8.4/armv7-m\libgcc.a(bpabi.o)
 .debug_frame   0x000030f0       0x34 c:/dev/gcc-arm-none-eabi-4_8-2014q2/bin/../lib/gcc/arm-none-eabi/4.8.4/armv7-m\libgcc.a(_divdi3.o)
 .debug_frame   0x00003124       0x34 c:/dev/gcc-arm-none-eabi-4_8-2014q2/bin/../lib/gcc/arm-none-eabi/4.8.4/armv7-m\libgcc.a(_udivdi3.o)
 .debug_frame   0x00003158       0x2c c:/dev/gcc-arm-none-eabi-4_8-2014q2/bin/../lib/gcc/arm-none-eabi/4.8.4/../../../../arm-none-eabi/lib/armv7-m\libg_s.a(lib_a-memcmp.o)
 .debug_frame   0x00003184       0x2c c:/dev/gcc-arm-none-eabi-4_8-2014q2/bin/../lib/gcc/arm-none-eabi/4.8.4/../../../../arm-none-eabi/lib/armv7-m\libg_s.a(lib_a-memmove.o)
 .debug_frame   0x000031b0       0x20 c:/dev/gcc-arm-none-eabi-4_8-2014q2/bin/../lib/gcc/arm-none-eabi/4.8.4/../../../../arm-none-eabi/lib/armv7-m\libg_s.a(lib_a-memset.o)
 .debug_frame   0x000031d0       0x2c c:/dev/gcc-arm-none-eabi-4_8-2014q2/bin/../lib/gcc/arm-none-eabi/4.8.4/../../../../arm-none-eabi/lib/armv7-m\libg_s.a(lib_a-strcasecmp.o)
 .debug_frame   0x000031fc       0x28 c:/dev/gcc-arm-none-eabi-4_8-2014q2/bin/../lib/gcc/arm-none-eabi/4.8.4/../../../../arm-none-eabi/lib/armv7-m\libg_s.a(lib_a-strcat.o)
 .debug_frame   0x00003224       0x20 c:/dev/gcc-arm-none-eabi-4_8-2014q2/bin/../lib/gcc/arm-none-eabi/4.8.4/../../../../arm-none-eabi/lib/armv7-m\libg_s.a(lib_a-strchr.o)
 .debug_frame   0x00003244       0x20 c:/dev/gcc-arm-none-eabi-4_8-2014q2/bin/../lib/gcc/arm-none-eabi/4.8.4/../../../../arm-none-eabi/lib/armv7-m\libg_s.a(lib_a-strlen.o)
 .debug_frame   0x00003264       0x30 c:/dev/gcc-arm-none-eabi-4_8-2014q2/bin/../lib/gcc/arm-none-eabi/4.8.4/../../../../arm-none-eabi/lib/armv7-m\libg_s.a(lib_a-strncasecmp.o)
 .debug_frame   0x00003294       0x28 c:/dev/gcc-arm-none-eabi-4_8-2014q2/bin/../lib/gcc/arm-none-eabi/4.8.4/../../../../arm-none-eabi/lib/armv7-m\libg_s.a(lib_a-strncpy.o)
 .debug_frame   0x000032bc       0x2c c:/dev/gcc-arm-none-eabi-4_8-2014q2/bin/../lib/gcc/arm-none-eabi/4.8.4/../../../../arm-none-eabi/lib/armv7-m\libg_s.a(lib_a-strstr.o)
 .debug_frame   0x000032e8       0x30 c:/dev/gcc-arm-none-eabi-4_8-2014q2/bin/../lib/gcc/arm-none-eabi/4.8.4/../../../../arm-none-eabi/lib/armv7-m\libc_s.a(lib_a-atoi.o)
 .debug_frame   0x00003318       0x28 c:/dev/gcc-arm-none-eabi-4_8-2014q2/bin/../lib/gcc/arm-none-eabi/4.8.4/../../../../arm-none-eabi/lib/armv7-m\libc_s.a(lib_a-memcpy-stub.o)
 .debug_frame   0x00003340       0x30 c:/dev/gcc-arm-none-eabi-4_8-2014q2/bin/../lib/gcc/arm-none-eabi/4.8.4/../../../../arm-none-eabi/lib/armv7-m\libc_s.a(lib_a-strtok.o)
 .debug_frame   0x00003370       0x40 c:/dev/gcc-arm-none-eabi-4_8-2014q2/bin/../lib/gcc/arm-none-eabi/4.8.4/../../../../arm-none-eabi/lib/armv7-m\libc_s.a(lib_a-strtok_r.o)
 .debug_frame   0x000033b0       0x54 c:/dev/gcc-arm-none-eabi-4_8-2014q2/bin/../lib/gcc/arm-none-eabi/4.8.4/../../../../arm-none-eabi/lib/armv7-m\libc_s.a(lib_a-strtol.o)
 .debug_frame   0x00003404       0x30 c:/dev/gcc-arm-none-eabi-4_8-2014q2/bin/../lib/gcc/arm-none-eabi/4.8.4/../../../../arm-none-eabi/lib/armv7-m\libc_s.a(lib_a-malloc.o)
 .debug_frame   0x00003434       0x2c c:/dev/gcc-arm-none-eabi-4_8-2014q2/bin/../lib/gcc/arm-none-eabi/4.8.4/../../../../arm-none-eabi/lib/armv7-m\libc_s.a(lib_a-nano-mallocr.o)
 .debug_frame   0x00003460       0x2c c:/dev/gcc-arm-none-eabi-4_8-2014q2/bin/../lib/gcc/arm-none-eabi/4.8.4/../../../../arm-none-eabi/lib/armv7-m\libc_s.a(lib_a-sbrkr.o)
 .debug_frame   0x0000348c       0x48 c:/dev/gcc-arm-none-eabi-4_8-2014q2/bin/../lib/gcc/arm-none-eabi/4.8.4/../../../../arm-none-eabi/lib/armv7-m\libc_s.a(lib_a-reent.o)
 .debug_frame   0x000034d4       0x20 c:/dev/gcc-arm-none-eabi-4_8-2014q2/bin/../lib/gcc/arm-none-eabi/4.8.4/../../../../arm-none-eabi/lib/armv7-m\libnosys.a(sbrk.o)
 .debug_frame   0x000034f4       0x28 c:/dev/gcc-arm-none-eabi-4_8-2014q2/bin/../lib/gcc/arm-none-eabi/4.8.4/../../../../arm-none-eabi/lib/armv7-m\libm.a(lib_a-sf_log2.o)
 .debug_frame   0x0000351c       0x2c c:/dev/gcc-arm-none-eabi-4_8-2014q2/bin/../lib/gcc/arm-none-eabi/4.8.4/../../../../arm-none-eabi/lib/armv7-m\libm.a(lib_a-sf_lrint.o)
 .debug_frame   0x00003548       0x30 c:/dev/gcc-arm-none-eabi-4_8-2014q2/bin/../lib/gcc/arm-none-eabi/4.8.4/../../../../arm-none-eabi/lib/armv7-m\libm.a(lib_a-wf_log.o)
 .debug_frame   0x00003578       0x34 c:/dev/gcc-arm-none-eabi-4_8-2014q2/bin/../lib/gcc/arm-none-eabi/4.8.4/../../../../arm-none-eabi/lib/armv7-m\libm.a(lib_a-wf_pow.o)
 .debug_frame   0x000035ac       0x30 c:/dev/gcc-arm-none-eabi-4_8-2014q2/bin/../lib/gcc/arm-none-eabi/4.8.4/../../../../arm-none-eabi/lib/armv7-m\libm.a(lib_a-wf_sqrt.o)
 .debug_frame   0x000035dc       0x34 c:/dev/gcc-arm-none-eabi-4_8-2014q2/bin/../lib/gcc/arm-none-eabi/4.8.4/../../../../arm-none-eabi/lib/armv7-m\libm.a(lib_a-ef_log.o)
 .debug_frame   0x00003610       0x38 c:/dev/gcc-arm-none-eabi-4_8-2014q2/bin/../lib/gcc/arm-none-eabi/4.8.4/../../../../arm-none-eabi/lib/armv7-m\libm.a(lib_a-ef_pow.o)
 .debug_frame   0x00003648       0x30 c:/dev/gcc-arm-none-eabi-4_8-2014q2/bin/../lib/gcc/arm-none-eabi/4.8.4/../../../../arm-none-eabi/lib/armv7-m\libm.a(lib_a-ef_sqrt.o)
 .debug_frame   0x00003678       0x20 c:/dev/gcc-arm-none-eabi-4_8-2014q2/bin/../lib/gcc/arm-none-eabi/4.8.4/../../../../arm-none-eabi/lib/armv7-m\libm.a(lib_a-s_matherr.o)
 .debug_frame   0x00003698       0x20 c:/dev/gcc-arm-none-eabi-4_8-2014q2/bin/../lib/gcc/arm-none-eabi/4.8.4/../../../../arm-none-eabi/lib/armv7-m\libm.a(lib_a-s_nan.o)
 .debug_frame   0x000036b8       0x34 c:/dev/gcc-arm-none-eabi-4_8-2014q2/bin/../lib/gcc/arm-none-eabi/4.8.4/../../../../arm-none-eabi/lib/armv7-m\libm.a(lib_a-s_rint.o)
 .debug_frame   0x000036ec       0x20 c:/dev/gcc-arm-none-eabi-4_8-2014q2/bin/../lib/gcc/arm-none-eabi/4.8.4/../../../../arm-none-eabi/lib/armv7-m\libm.a(lib_a-sf_fabs.o)
 .debug_frame   0x0000370c       0x20 c:/dev/gcc-arm-none-eabi-4_8-2014q2/bin/../lib/gcc/arm-none-eabi/4.8.4/../../../../arm-none-eabi/lib/armv7-m\libm.a(lib_a-sf_finite.o)
 .debug_frame   0x0000372c       0x20 c:/dev/gcc-arm-none-eabi-4_8-2014q2/bin/../lib/gcc/arm-none-eabi/4.8.4/../../../../arm-none-eabi/lib/armv7-m\libm.a(lib_a-sf_fpclassify.o)
 .debug_frame   0x0000374c       0x20 c:/dev/gcc-arm-none-eabi-4_8-2014q2/bin/../lib/gcc/arm-none-eabi/4.8.4/../../../../arm-none-eabi/lib/armv7-m\libm.a(lib_a-sf_nan.o)
 .debug_frame   0x0000376c       0x2c c:/dev/gcc-arm-none-eabi-4_8-2014q2/bin/../lib/gcc/arm-none-eabi/4.8.4/../../../../arm-none-eabi/lib/armv7-m\libm.a(lib_a-sf_scalbn.o)
 .debug_frame   0x00003798       0x20 c:/dev/gcc-arm-none-eabi-4_8-2014q2/bin/../lib/gcc/arm-none-eabi/4.8.4/../../../../arm-none-eabi/lib/armv7-m\libm.a(lib_a-sf_copysign.o)
 .debug_frame   0x000037b8       0x20 c:/dev/gcc-arm-none-eabi-4_8-2014q2/bin/../lib/gcc/arm-none-eabi/4.8.4/../../../../arm-none-eabi/lib/armv7-m\libc_s.a(lib_a-errno.o)

Cross Reference Table

Symbol                                            File
ADC1_2_IRQHandler                                 obj/main/NAZE/startup_stm32f10x_md_gcc.o
AccInflightCalibrationActive                      C:\cygwin64\tmp\ccWFxnfo.ltrans4.ltrans.o
                                                  C:\cygwin64\tmp\ccWFxnfo.ltrans25.ltrans.o
AccInflightCalibrationMeasurementDone             C:\cygwin64\tmp\ccWFxnfo.ltrans4.ltrans.o
                                                  C:\cygwin64\tmp\ccWFxnfo.ltrans25.ltrans.o
AccInflightCalibrationSavetoEEProm                C:\cygwin64\tmp\ccWFxnfo.ltrans4.ltrans.o
                                                  C:\cygwin64\tmp\ccWFxnfo.ltrans25.ltrans.o
AltHold                                           C:\cygwin64\tmp\ccWFxnfo.ltrans2.ltrans.o
                                                  C:\cygwin64\tmp\ccWFxnfo.ltrans11.ltrans.o
                                                  C:\cygwin64\tmp\ccWFxnfo.ltrans4.ltrans.o
                                                  C:\cygwin64\tmp\ccWFxnfo.ltrans1.ltrans.o
BL_GetACK.16046                                   C:\cygwin64\tmp\ccWFxnfo.ltrans15.ltrans.o
                                                  C:\cygwin64\tmp\ccWFxnfo.ltrans20.ltrans.o
BL_ReadA.16064                                    C:\cygwin64\tmp\ccWFxnfo.ltrans15.ltrans.o
                                                  C:\cygwin64\tmp\ccWFxnfo.ltrans20.ltrans.o
BL_SendBuf.16032                                  C:\cygwin64\tmp\ccWFxnfo.ltrans14.ltrans.o
                                                  C:\cygwin64\tmp\ccWFxnfo.ltrans20.ltrans.o
                                                  C:\cygwin64\tmp\ccWFxnfo.ltrans15.ltrans.o
BL_SendCMDSetAddress.isra.1.16057                 C:\cygwin64\tmp\ccWFxnfo.ltrans15.ltrans.o
                                                  C:\cygwin64\tmp\ccWFxnfo.ltrans20.ltrans.o
BL_WriteA.16072                                   C:\cygwin64\tmp\ccWFxnfo.ltrans15.ltrans.o
                                                  C:\cygwin64\tmp\ccWFxnfo.ltrans20.ltrans.o
BaroAlt                                           C:\cygwin64\tmp\ccWFxnfo.ltrans3.ltrans.o
                                                  C:\cygwin64\tmp\ccWFxnfo.ltrans16.ltrans.o
                                                  C:\cygwin64\tmp\ccWFxnfo.ltrans11.ltrans.o
BusFault_Handler                                  obj/main/NAZE/startup_stm32f10x_md_gcc.o
CAN1_RX1_IRQHandler                               obj/main/NAZE/startup_stm32f10x_md_gcc.o
CAN1_SCE_IRQHandler                               obj/main/NAZE/startup_stm32f10x_md_gcc.o
DMA1_Channel1_IRQHandler                          C:\cygwin64\tmp\ccWFxnfo.ltrans31.ltrans.o
                                                  obj/main/NAZE/startup_stm32f10x_md_gcc.o
DMA1_Channel2_IRQHandler                          C:\cygwin64\tmp\ccWFxnfo.ltrans31.ltrans.o
                                                  obj/main/NAZE/startup_stm32f10x_md_gcc.o
DMA1_Channel3_IRQHandler                          C:\cygwin64\tmp\ccWFxnfo.ltrans31.ltrans.o
                                                  obj/main/NAZE/startup_stm32f10x_md_gcc.o
DMA1_Channel4_IRQHandler                          C:\cygwin64\tmp\ccWFxnfo.ltrans31.ltrans.o
                                                  obj/main/NAZE/startup_stm32f10x_md_gcc.o
DMA1_Channel5_IRQHandler                          C:\cygwin64\tmp\ccWFxnfo.ltrans31.ltrans.o
                                                  obj/main/NAZE/startup_stm32f10x_md_gcc.o
DMA1_Channel6_IRQHandler                          C:\cygwin64\tmp\ccWFxnfo.ltrans31.ltrans.o
                                                  obj/main/NAZE/startup_stm32f10x_md_gcc.o
DMA1_Channel7_IRQHandler                          C:\cygwin64\tmp\ccWFxnfo.ltrans31.ltrans.o
                                                  obj/main/NAZE/startup_stm32f10x_md_gcc.o
DMA_DeInit                                        C:\cygwin64\tmp\ccWFxnfo.ltrans6.ltrans.o
                                                  C:\cygwin64\tmp\ccWFxnfo.ltrans23.ltrans.o
                                                  C:\cygwin64\tmp\ccWFxnfo.ltrans0.ltrans.o
DMA_IRQHandler                                    C:\cygwin64\tmp\ccWFxnfo.ltrans14.ltrans.o
                                                  C:\cygwin64\tmp\ccWFxnfo.ltrans31.ltrans.o
DMA_Init                                          C:\cygwin64\tmp\ccWFxnfo.ltrans6.ltrans.o
                                                  C:\cygwin64\tmp\ccWFxnfo.ltrans23.ltrans.o
                                                  C:\cygwin64\tmp\ccWFxnfo.ltrans0.ltrans.o
DMA_StructInit                                    C:\cygwin64\tmp\ccWFxnfo.ltrans6.ltrans.o
                                                  C:\cygwin64\tmp\ccWFxnfo.ltrans23.ltrans.o
                                                  C:\cygwin64\tmp\ccWFxnfo.ltrans0.ltrans.o
DebugMon_Handler                                  obj/main/NAZE/startup_stm32f10x_md_gcc.o
Default_Handler                                   obj/main/NAZE/startup_stm32f10x_md_gcc.o
EXTI0_IRQHandler                                  C:\cygwin64\tmp\ccWFxnfo.ltrans30.ltrans.o
                                                  obj/main/NAZE/startup_stm32f10x_md_gcc.o
EXTI15_10_IRQHandler                              C:\cygwin64\tmp\ccWFxnfo.ltrans30.ltrans.o
                                                  obj/main/NAZE/startup_stm32f10x_md_gcc.o
EXTI1_IRQHandler                                  C:\cygwin64\tmp\ccWFxnfo.ltrans30.ltrans.o
                                                  obj/main/NAZE/startup_stm32f10x_md_gcc.o
EXTI2_IRQHandler                                  C:\cygwin64\tmp\ccWFxnfo.ltrans30.ltrans.o
                                                  obj/main/NAZE/startup_stm32f10x_md_gcc.o
EXTI3_IRQHandler                                  C:\cygwin64\tmp\ccWFxnfo.ltrans30.ltrans.o
                                                  obj/main/NAZE/startup_stm32f10x_md_gcc.o
EXTI4_IRQHandler                                  C:\cygwin64\tmp\ccWFxnfo.ltrans30.ltrans.o
                                                  obj/main/NAZE/startup_stm32f10x_md_gcc.o
EXTI9_5_IRQHandler                                C:\cygwin64\tmp\ccWFxnfo.ltrans30.ltrans.o
                                                  obj/main/NAZE/startup_stm32f10x_md_gcc.o
EXTIConfig                                        C:\cygwin64\tmp\ccWFxnfo.ltrans10.ltrans.o
                                                  C:\cygwin64\tmp\ccWFxnfo.ltrans19.ltrans.o
                                                  C:\cygwin64\tmp\ccWFxnfo.ltrans17.ltrans.o
                                                  C:\cygwin64\tmp\ccWFxnfo.ltrans0.ltrans.o
EXTIEnable                                        C:\cygwin64\tmp\ccWFxnfo.ltrans19.ltrans.o
                                                  C:\cygwin64\tmp\ccWFxnfo.ltrans17.ltrans.o
                                                  C:\cygwin64\tmp\ccWFxnfo.ltrans0.ltrans.o
EXTI_IRQHandler                                   C:\cygwin64\tmp\ccWFxnfo.ltrans7.ltrans.o
                                                  C:\cygwin64\tmp\ccWFxnfo.ltrans30.ltrans.o
EstAlt.14146                                      C:\cygwin64\tmp\ccWFxnfo.ltrans2.ltrans.o
                                                  C:\cygwin64\tmp\ccWFxnfo.ltrans11.ltrans.o
                                                  C:\cygwin64\tmp\ccWFxnfo.ltrans4.ltrans.o
                                                  C:\cygwin64\tmp\ccWFxnfo.ltrans3.ltrans.o
                                                  C:\cygwin64\tmp\ccWFxnfo.ltrans1.ltrans.o
FLASH_IRQHandler                                  obj/main/NAZE/startup_stm32f10x_md_gcc.o
GPIO_Init                                         C:\cygwin64\tmp\ccWFxnfo.ltrans6.ltrans.o
                                                  C:\cygwin64\tmp\ccWFxnfo.ltrans0.ltrans.o
GPS_WP.8014                                       C:\cygwin64\tmp\ccWFxnfo.ltrans24.ltrans.o
                                                  C:\cygwin64\tmp\ccWFxnfo.ltrans10.ltrans.o
GPS_altitude                                      C:\cygwin64\tmp\ccWFxnfo.ltrans1.ltrans.o
                                                  C:\cygwin64\tmp\ccWFxnfo.ltrans18.ltrans.o
                                                  C:\cygwin64\tmp\ccWFxnfo.ltrans5.ltrans.o
                                                  C:\cygwin64\tmp\ccWFxnfo.ltrans3.ltrans.o
GPS_angle                                         C:\cygwin64\tmp\ccWFxnfo.ltrans2.ltrans.o
                                                  C:\cygwin64\tmp\ccWFxnfo.ltrans4.ltrans.o
GPS_calc_longitude_scaling.7910                   C:\cygwin64\tmp\ccWFxnfo.ltrans7.ltrans.o
                                                  C:\cygwin64\tmp\ccWFxnfo.ltrans10.ltrans.o
GPS_coord                                         C:\cygwin64\tmp\ccWFxnfo.ltrans4.ltrans.o
                                                  C:\cygwin64\tmp\ccWFxnfo.ltrans24.ltrans.o
                                                  C:\cygwin64\tmp\ccWFxnfo.ltrans18.ltrans.o
                                                  C:\cygwin64\tmp\ccWFxnfo.ltrans10.ltrans.o
                                                  C:\cygwin64\tmp\ccWFxnfo.ltrans9.ltrans.o
                                                  C:\cygwin64\tmp\ccWFxnfo.ltrans7.ltrans.o
                                                  C:\cygwin64\tmp\ccWFxnfo.ltrans5.ltrans.o
                                                  C:\cygwin64\tmp\ccWFxnfo.ltrans3.ltrans.o
                                                  C:\cygwin64\tmp\ccWFxnfo.ltrans1.ltrans.o
GPS_directionToHome                               C:\cygwin64\tmp\ccWFxnfo.ltrans1.ltrans.o
                                                  C:\cygwin64\tmp\ccWFxnfo.ltrans24.ltrans.o
                                                  C:\cygwin64\tmp\ccWFxnfo.ltrans3.ltrans.o
GPS_distanceToHome                                C:\cygwin64\tmp\ccWFxnfo.ltrans1.ltrans.o
                                                  C:\cygwin64\tmp\ccWFxnfo.ltrans24.ltrans.o
                                                  C:\cygwin64\tmp\ccWFxnfo.ltrans3.ltrans.o
GPS_distance_cm_bearing.isra.3.7934               C:\cygwin64\tmp\ccWFxnfo.ltrans7.ltrans.o
                                                  C:\cygwin64\tmp\ccWFxnfo.ltrans24.ltrans.o
                                                  C:\cygwin64\tmp\ccWFxnfo.ltrans10.ltrans.o
GPS_ground_course                                 C:\cygwin64\tmp\ccWFxnfo.ltrans1.ltrans.o
                                                  C:\cygwin64\tmp\ccWFxnfo.ltrans18.ltrans.o
                                                  C:\cygwin64\tmp\ccWFxnfo.ltrans15.ltrans.o
                                                  C:\cygwin64\tmp\ccWFxnfo.ltrans5.ltrans.o
                                                  C:\cygwin64\tmp\ccWFxnfo.ltrans3.ltrans.o
GPS_hdop                                          C:\cygwin64\tmp\ccWFxnfo.ltrans3.ltrans.o
                                                  C:\cygwin64\tmp\ccWFxnfo.ltrans5.ltrans.o
GPS_hold                                          C:\cygwin64\tmp\ccWFxnfo.ltrans4.ltrans.o
                                                  C:\cygwin64\tmp\ccWFxnfo.ltrans1.ltrans.o
GPS_home                                          C:\cygwin64\tmp\ccWFxnfo.ltrans4.ltrans.o
                                                  C:\cygwin64\tmp\ccWFxnfo.ltrans24.ltrans.o
                                                  C:\cygwin64\tmp\ccWFxnfo.ltrans9.ltrans.o
                                                  C:\cygwin64\tmp\ccWFxnfo.ltrans7.ltrans.o
                                                  C:\cygwin64\tmp\ccWFxnfo.ltrans3.ltrans.o
                                                  C:\cygwin64\tmp\ccWFxnfo.ltrans1.ltrans.o
GPS_numCh                                         C:\cygwin64\tmp\ccWFxnfo.ltrans1.ltrans.o
                                                  C:\cygwin64\tmp\ccWFxnfo.ltrans5.ltrans.o
GPS_numSat                                        C:\cygwin64\tmp\ccWFxnfo.ltrans4.ltrans.o
                                                  C:\cygwin64\tmp\ccWFxnfo.ltrans27.ltrans.o
                                                  C:\cygwin64\tmp\ccWFxnfo.ltrans24.ltrans.o
                                                  C:\cygwin64\tmp\ccWFxnfo.ltrans18.ltrans.o
                                                  C:\cygwin64\tmp\ccWFxnfo.ltrans15.ltrans.o
                                                  C:\cygwin64\tmp\ccWFxnfo.ltrans12.ltrans.o
                                                  C:\cygwin64\tmp\ccWFxnfo.ltrans9.ltrans.o
                                                  C:\cygwin64\tmp\ccWFxnfo.ltrans7.ltrans.o
                                                  C:\cygwin64\tmp\ccWFxnfo.ltrans5.ltrans.o
                                                  C:\cygwin64\tmp\ccWFxnfo.ltrans3.ltrans.o
                                                  C:\cygwin64\tmp\ccWFxnfo.ltrans1.ltrans.o
GPS_reset_home_position                           C:\cygwin64\tmp\ccWFxnfo.ltrans7.ltrans.o
                                                  C:\cygwin64\tmp\ccWFxnfo.ltrans24.ltrans.o
                                                  C:\cygwin64\tmp\ccWFxnfo.ltrans4.ltrans.o
GPS_scaleLonDown.8020                             C:\cygwin64\tmp\ccWFxnfo.ltrans24.ltrans.o
                                                  C:\cygwin64\tmp\ccWFxnfo.ltrans10.ltrans.o
                                                  C:\cygwin64\tmp\ccWFxnfo.ltrans7.ltrans.o
GPS_set_next_wp                                   C:\cygwin64\tmp\ccWFxnfo.ltrans10.ltrans.o
                                                  C:\cygwin64\tmp\ccWFxnfo.ltrans4.ltrans.o
                                                  C:\cygwin64\tmp\ccWFxnfo.ltrans1.ltrans.o
GPS_speed                                         C:\cygwin64\tmp\ccWFxnfo.ltrans1.ltrans.o
                                                  C:\cygwin64\tmp\ccWFxnfo.ltrans18.ltrans.o
                                                  C:\cygwin64\tmp\ccWFxnfo.ltrans15.ltrans.o
                                                  C:\cygwin64\tmp\ccWFxnfo.ltrans5.ltrans.o
                                                  C:\cygwin64\tmp\ccWFxnfo.ltrans3.ltrans.o
GPS_svinfo_chn                                    C:\cygwin64\tmp\ccWFxnfo.ltrans1.ltrans.o
                                                  C:\cygwin64\tmp\ccWFxnfo.ltrans5.ltrans.o
GPS_svinfo_cno                                    C:\cygwin64\tmp\ccWFxnfo.ltrans1.ltrans.o
                                                  C:\cygwin64\tmp\ccWFxnfo.ltrans5.ltrans.o
GPS_svinfo_quality                                C:\cygwin64\tmp\ccWFxnfo.ltrans1.ltrans.o
                                                  C:\cygwin64\tmp\ccWFxnfo.ltrans5.ltrans.o
GPS_svinfo_svid                                   C:\cygwin64\tmp\ccWFxnfo.ltrans1.ltrans.o
                                                  C:\cygwin64\tmp\ccWFxnfo.ltrans5.ltrans.o
GPS_update                                        C:\cygwin64\tmp\ccWFxnfo.ltrans1.ltrans.o
                                                  C:\cygwin64\tmp\ccWFxnfo.ltrans24.ltrans.o
GPStoDDDMM_MMMM.9000                              C:\cygwin64\tmp\ccWFxnfo.ltrans7.ltrans.o
                                                  C:\cygwin64\tmp\ccWFxnfo.ltrans14.ltrans.o
HardFault_Handler                                 C:\cygwin64\tmp\ccWFxnfo.ltrans30.ltrans.o
                                                  obj/main/NAZE/startup_stm32f10x_md_gcc.o
I2C1_ER_IRQHandler                                C:\cygwin64\tmp\ccWFxnfo.ltrans30.ltrans.o
                                                  obj/main/NAZE/startup_stm32f10x_md_gcc.o
I2C1_EV_IRQHandler                                C:\cygwin64\tmp\ccWFxnfo.ltrans30.ltrans.o
                                                  obj/main/NAZE/startup_stm32f10x_md_gcc.o
I2C2_ER_IRQHandler                                C:\cygwin64\tmp\ccWFxnfo.ltrans30.ltrans.o
                                                  obj/main/NAZE/startup_stm32f10x_md_gcc.o
I2C2_EV_IRQHandler                                C:\cygwin64\tmp\ccWFxnfo.ltrans30.ltrans.o
                                                  obj/main/NAZE/startup_stm32f10x_md_gcc.o
I2Cx.4264                                         C:\cygwin64\tmp\ccWFxnfo.ltrans13.ltrans.o
                                                  C:\cygwin64\tmp\ccWFxnfo.ltrans16.ltrans.o
IOGetByTag                                        C:\cygwin64\tmp\ccWFxnfo.ltrans7.ltrans.o
                                                  C:\cygwin64\tmp\ccWFxnfo.ltrans19.ltrans.o
                                                  C:\cygwin64\tmp\ccWFxnfo.ltrans17.ltrans.o
                                                  C:\cygwin64\tmp\ccWFxnfo.ltrans0.ltrans.o
InflightcalibratingA                              C:\cygwin64\tmp\ccWFxnfo.ltrans4.ltrans.o
                                                  C:\cygwin64\tmp\ccWFxnfo.ltrans25.ltrans.o
MemManage_Handler                                 obj/main/NAZE/startup_stm32f10x_md_gcc.o
NMI_Handler                                       obj/main/NAZE/startup_stm32f10x_md_gcc.o
NVIC_Init.part.0.21479                            C:\cygwin64\tmp\ccWFxnfo.ltrans6.ltrans.o
                                                  C:\cygwin64\tmp\ccWFxnfo.ltrans23.ltrans.o
                                                  C:\cygwin64\tmp\ccWFxnfo.ltrans13.ltrans.o
                                                  C:\cygwin64\tmp\ccWFxnfo.ltrans12.ltrans.o
                                                  C:\cygwin64\tmp\ccWFxnfo.ltrans10.ltrans.o
PVD_IRQHandler                                    obj/main/NAZE/startup_stm32f10x_md_gcc.o
PendSV_Handler                                    obj/main/NAZE/startup_stm32f10x_md_gcc.o
RCC_APB1PeriphResetCmd.part.6.22391               C:\cygwin64\tmp\ccWFxnfo.ltrans6.ltrans.o
                                                  C:\cygwin64\tmp\ccWFxnfo.ltrans29.ltrans.o
                                                  C:\cygwin64\tmp\ccWFxnfo.ltrans13.ltrans.o
RCC_APB2PeriphClockCmd.part.3.22382               C:\cygwin64\tmp\ccWFxnfo.ltrans6.ltrans.o
RCC_GetClocksFreq                                 C:\cygwin64\tmp\ccWFxnfo.ltrans6.ltrans.o
                                                  C:\cygwin64\tmp\ccWFxnfo.ltrans16.ltrans.o
                                                  C:\cygwin64\tmp\ccWFxnfo.ltrans13.ltrans.o
                                                  C:\cygwin64\tmp\ccWFxnfo.ltrans0.ltrans.o
RCC_IRQHandler                                    obj/main/NAZE/startup_stm32f10x_md_gcc.o
RTCAlarm_IRQHandler                               obj/main/NAZE/startup_stm32f10x_md_gcc.o
RTC_IRQHandler                                    obj/main/NAZE/startup_stm32f10x_md_gcc.o
ReadBit.16147                                     C:\cygwin64\tmp\ccWFxnfo.ltrans19.ltrans.o
                                                  C:\cygwin64\tmp\ccWFxnfo.ltrans22.ltrans.o
Reset_Handler                                     obj/main/NAZE/startup_stm32f10x_md_gcc.o
SPI1_IRQHandler                                   obj/main/NAZE/startup_stm32f10x_md_gcc.o
SPI2_IRQHandler                                   obj/main/NAZE/startup_stm32f10x_md_gcc.o
SVC_Handler                                       obj/main/NAZE/startup_stm32f10x_md_gcc.o
StkCmd.16239                                      C:\cygwin64\tmp\ccWFxnfo.ltrans20.ltrans.o
                                                  C:\cygwin64\tmp\ccWFxnfo.ltrans22.ltrans.o
StkRcvPacket.16159                                C:\cygwin64\tmp\ccWFxnfo.ltrans22.ltrans.o
                                                  C:\cygwin64\tmp\ccWFxnfo.ltrans20.ltrans.o
StkSendByte.16139                                 C:\cygwin64\tmp\ccWFxnfo.ltrans19.ltrans.o
                                                  C:\cygwin64\tmp\ccWFxnfo.ltrans22.ltrans.o
                                                  C:\cygwin64\tmp\ccWFxnfo.ltrans20.ltrans.o
StkSendPacketFooter.16145                         C:\cygwin64\tmp\ccWFxnfo.ltrans19.ltrans.o
                                                  C:\cygwin64\tmp\ccWFxnfo.ltrans22.ltrans.o
                                                  C:\cygwin64\tmp\ccWFxnfo.ltrans20.ltrans.o
StkSendPacketHeader.16142                         C:\cygwin64\tmp\ccWFxnfo.ltrans22.ltrans.o
                                                  C:\cygwin64\tmp\ccWFxnfo.ltrans20.ltrans.o
Stk_SignOn                                        C:\cygwin64\tmp\ccWFxnfo.ltrans22.ltrans.o
                                                  C:\cygwin64\tmp\ccWFxnfo.ltrans20.ltrans.o
SysTick_Handler                                   C:\cygwin64\tmp\ccWFxnfo.ltrans31.ltrans.o
                                                  obj/main/NAZE/startup_stm32f10x_md_gcc.o
SystemCoreClock                                   C:\cygwin64\tmp\ccWFxnfo.ltrans0.ltrans.o
                                                  C:\cygwin64\tmp\ccWFxnfo.ltrans21.ltrans.o
                                                  C:\cygwin64\tmp\ccWFxnfo.ltrans12.ltrans.o
                                                  C:\cygwin64\tmp\ccWFxnfo.ltrans10.ltrans.o
SystemInit                                        C:\cygwin64\tmp\ccWFxnfo.ltrans31.ltrans.o
                                                  obj/main/NAZE/startup_stm32f10x_md_gcc.o
TAMPER_IRQHandler                                 obj/main/NAZE/startup_stm32f10x_md_gcc.o
TIM1_BRK_IRQHandler                               obj/main/NAZE/startup_stm32f10x_md_gcc.o
TIM1_CC_IRQHandler                                C:\cygwin64\tmp\ccWFxnfo.ltrans30.ltrans.o
                                                  obj/main/NAZE/startup_stm32f10x_md_gcc.o
TIM1_TRG_COM_IRQHandler                           obj/main/NAZE/startup_stm32f10x_md_gcc.o
TIM1_UP_IRQHandler                                C:\cygwin64\tmp\ccWFxnfo.ltrans30.ltrans.o
                                                  obj/main/NAZE/startup_stm32f10x_md_gcc.o
TIM2_IRQHandler                                   C:\cygwin64\tmp\ccWFxnfo.ltrans30.ltrans.o
                                                  obj/main/NAZE/startup_stm32f10x_md_gcc.o
TIM3_IRQHandler                                   C:\cygwin64\tmp\ccWFxnfo.ltrans30.ltrans.o
                                                  obj/main/NAZE/startup_stm32f10x_md_gcc.o
TIM4_IRQHandler                                   C:\cygwin64\tmp\ccWFxnfo.ltrans30.ltrans.o
                                                  obj/main/NAZE/startup_stm32f10x_md_gcc.o
TIM_ICInit                                        C:\cygwin64\tmp\ccWFxnfo.ltrans6.ltrans.o
                                                  C:\cygwin64\tmp\ccWFxnfo.ltrans21.ltrans.o
UART_TX_DMA_IRQHandler                            C:\cygwin64\tmp\ccWFxnfo.ltrans16.ltrans.o
                                                  C:\cygwin64\tmp\ccWFxnfo.ltrans23.ltrans.o
USART1_IRQHandler                                 C:\cygwin64\tmp\ccWFxnfo.ltrans30.ltrans.o
                                                  obj/main/NAZE/startup_stm32f10x_md_gcc.o
USART2_IRQHandler                                 C:\cygwin64\tmp\ccWFxnfo.ltrans30.ltrans.o
                                                  obj/main/NAZE/startup_stm32f10x_md_gcc.o
USART3_IRQHandler                                 C:\cygwin64\tmp\ccWFxnfo.ltrans30.ltrans.o
                                                  obj/main/NAZE/startup_stm32f10x_md_gcc.o
USBWakeUp_IRQHandler                              obj/main/NAZE/startup_stm32f10x_md_gcc.o
USB_HP_CAN1_TX_IRQHandler                         obj/main/NAZE/startup_stm32f10x_md_gcc.o
USB_LP_CAN1_RX0_IRQHandler                        obj/main/NAZE/startup_stm32f10x_md_gcc.o
UsageFault_Handler                                obj/main/NAZE/startup_stm32f10x_md_gcc.o
WWDG_IRQHandler                                   obj/main/NAZE/startup_stm32f10x_md_gcc.o
_CMD_LOAD_ADDRESS.isra.1.16182                    C:\cygwin64\tmp\ccWFxnfo.ltrans22.ltrans.o
                                                  C:\cygwin64\tmp\ccWFxnfo.ltrans20.ltrans.o
_CMD_PROGRAM_MEM_ISP.16176                        C:\cygwin64\tmp\ccWFxnfo.ltrans22.ltrans.o
                                                  C:\cygwin64\tmp\ccWFxnfo.ltrans20.ltrans.o
_CMD_READ_MEM_ISP.16168                           C:\cygwin64\tmp\ccWFxnfo.ltrans22.ltrans.o
                                                  C:\cygwin64\tmp\ccWFxnfo.ltrans20.ltrans.o
__adddf3                                          c:/dev/gcc-arm-none-eabi-4_8-2014q2/bin/../lib/gcc/arm-none-eabi/4.8.4/armv7-m\libgcc.a(_arm_addsubdf3.o)
__addsf3                                          c:/dev/gcc-arm-none-eabi-4_8-2014q2/bin/../lib/gcc/arm-none-eabi/4.8.4/armv7-m\libgcc.a(_arm_addsubsf3.o)
__aeabi_cdcmpeq                                   c:/dev/gcc-arm-none-eabi-4_8-2014q2/bin/../lib/gcc/arm-none-eabi/4.8.4/armv7-m\libgcc.a(_arm_cmpdf2.o)
__aeabi_cdcmple                                   c:/dev/gcc-arm-none-eabi-4_8-2014q2/bin/../lib/gcc/arm-none-eabi/4.8.4/armv7-m\libgcc.a(_arm_cmpdf2.o)
__aeabi_cdrcmple                                  c:/dev/gcc-arm-none-eabi-4_8-2014q2/bin/../lib/gcc/arm-none-eabi/4.8.4/armv7-m\libgcc.a(_arm_cmpdf2.o)
__aeabi_cfcmpeq                                   c:/dev/gcc-arm-none-eabi-4_8-2014q2/bin/../lib/gcc/arm-none-eabi/4.8.4/armv7-m\libgcc.a(_arm_cmpsf2.o)
__aeabi_cfcmple                                   c:/dev/gcc-arm-none-eabi-4_8-2014q2/bin/../lib/gcc/arm-none-eabi/4.8.4/armv7-m\libgcc.a(_arm_cmpsf2.o)
__aeabi_cfrcmple                                  c:/dev/gcc-arm-none-eabi-4_8-2014q2/bin/../lib/gcc/arm-none-eabi/4.8.4/armv7-m\libgcc.a(_arm_cmpsf2.o)
__aeabi_d2f                                       c:/dev/gcc-arm-none-eabi-4_8-2014q2/bin/../lib/gcc/arm-none-eabi/4.8.4/armv7-m\libgcc.a(_arm_truncdfsf2.o)
                                                  c:/dev/gcc-arm-none-eabi-4_8-2014q2/bin/../lib/gcc/arm-none-eabi/4.8.4/../../../../arm-none-eabi/lib/armv7-m\libm.a(lib_a-wf_sqrt.o)
                                                  c:/dev/gcc-arm-none-eabi-4_8-2014q2/bin/../lib/gcc/arm-none-eabi/4.8.4/../../../../arm-none-eabi/lib/armv7-m\libm.a(lib_a-wf_pow.o)
                                                  c:/dev/gcc-arm-none-eabi-4_8-2014q2/bin/../lib/gcc/arm-none-eabi/4.8.4/../../../../arm-none-eabi/lib/armv7-m\libm.a(lib_a-wf_log.o)
                                                  C:\cygwin64\tmp\ccWFxnfo.ltrans3.ltrans.o
__aeabi_dadd                                      c:/dev/gcc-arm-none-eabi-4_8-2014q2/bin/../lib/gcc/arm-none-eabi/4.8.4/armv7-m\libgcc.a(_arm_addsubdf3.o)
                                                  c:/dev/gcc-arm-none-eabi-4_8-2014q2/bin/../lib/gcc/arm-none-eabi/4.8.4/../../../../arm-none-eabi/lib/armv7-m\libm.a(lib_a-s_rint.o)
__aeabi_dcmpeq                                    c:/dev/gcc-arm-none-eabi-4_8-2014q2/bin/../lib/gcc/arm-none-eabi/4.8.4/armv7-m\libgcc.a(_arm_cmpdf2.o)
                                                  c:/dev/gcc-arm-none-eabi-4_8-2014q2/bin/../lib/gcc/arm-none-eabi/4.8.4/../../../../arm-none-eabi/lib/armv7-m\libm.a(lib_a-wf_pow.o)
__aeabi_dcmpge                                    c:/dev/gcc-arm-none-eabi-4_8-2014q2/bin/../lib/gcc/arm-none-eabi/4.8.4/armv7-m\libgcc.a(_arm_cmpdf2.o)
__aeabi_dcmpgt                                    c:/dev/gcc-arm-none-eabi-4_8-2014q2/bin/../lib/gcc/arm-none-eabi/4.8.4/armv7-m\libgcc.a(_arm_cmpdf2.o)
__aeabi_dcmple                                    c:/dev/gcc-arm-none-eabi-4_8-2014q2/bin/../lib/gcc/arm-none-eabi/4.8.4/armv7-m\libgcc.a(_arm_cmpdf2.o)
__aeabi_dcmplt                                    c:/dev/gcc-arm-none-eabi-4_8-2014q2/bin/../lib/gcc/arm-none-eabi/4.8.4/armv7-m\libgcc.a(_arm_cmpdf2.o)
__aeabi_ddiv                                      c:/dev/gcc-arm-none-eabi-4_8-2014q2/bin/../lib/gcc/arm-none-eabi/4.8.4/armv7-m\libgcc.a(_arm_muldivdf3.o)
                                                  c:/dev/gcc-arm-none-eabi-4_8-2014q2/bin/../lib/gcc/arm-none-eabi/4.8.4/../../../../arm-none-eabi/lib/armv7-m\libm.a(lib_a-wf_sqrt.o)
                                                  c:/dev/gcc-arm-none-eabi-4_8-2014q2/bin/../lib/gcc/arm-none-eabi/4.8.4/../../../../arm-none-eabi/lib/armv7-m\libm.a(lib_a-wf_pow.o)
                                                  C:\cygwin64\tmp\ccWFxnfo.ltrans3.ltrans.o
__aeabi_dmul                                      c:/dev/gcc-arm-none-eabi-4_8-2014q2/bin/../lib/gcc/arm-none-eabi/4.8.4/armv7-m\libgcc.a(_arm_muldivdf3.o)
__aeabi_drsub                                     c:/dev/gcc-arm-none-eabi-4_8-2014q2/bin/../lib/gcc/arm-none-eabi/4.8.4/armv7-m\libgcc.a(_arm_addsubdf3.o)
__aeabi_dsub                                      c:/dev/gcc-arm-none-eabi-4_8-2014q2/bin/../lib/gcc/arm-none-eabi/4.8.4/armv7-m\libgcc.a(_arm_addsubdf3.o)
                                                  c:/dev/gcc-arm-none-eabi-4_8-2014q2/bin/../lib/gcc/arm-none-eabi/4.8.4/../../../../arm-none-eabi/lib/armv7-m\libm.a(lib_a-s_rint.o)
__aeabi_f2d                                       c:/dev/gcc-arm-none-eabi-4_8-2014q2/bin/../lib/gcc/arm-none-eabi/4.8.4/armv7-m\libgcc.a(_arm_addsubdf3.o)
                                                  c:/dev/gcc-arm-none-eabi-4_8-2014q2/bin/../lib/gcc/arm-none-eabi/4.8.4/../../../../arm-none-eabi/lib/armv7-m\libm.a(lib_a-wf_sqrt.o)
                                                  c:/dev/gcc-arm-none-eabi-4_8-2014q2/bin/../lib/gcc/arm-none-eabi/4.8.4/../../../../arm-none-eabi/lib/armv7-m\libm.a(lib_a-wf_pow.o)
                                                  c:/dev/gcc-arm-none-eabi-4_8-2014q2/bin/../lib/gcc/arm-none-eabi/4.8.4/../../../../arm-none-eabi/lib/armv7-m\libm.a(lib_a-wf_log.o)
__aeabi_f2iz                                      c:/dev/gcc-arm-none-eabi-4_8-2014q2/bin/../lib/gcc/arm-none-eabi/4.8.4/armv7-m\libgcc.a(_arm_fixsfsi.o)
                                                  c:/dev/gcc-arm-none-eabi-4_8-2014q2/bin/../lib/gcc/arm-none-eabi/4.8.4/../../../../arm-none-eabi/lib/armv7-m\libm.a(lib_a-sf_lrint.o)
                                                  C:\cygwin64\tmp\ccWFxnfo.ltrans30.ltrans.o
                                                  C:\cygwin64\tmp\ccWFxnfo.ltrans24.ltrans.o
                                                  C:\cygwin64\tmp\ccWFxnfo.ltrans22.ltrans.o
                                                  C:\cygwin64\tmp\ccWFxnfo.ltrans15.ltrans.o
                                                  C:\cygwin64\tmp\ccWFxnfo.ltrans13.ltrans.o
                                                  C:\cygwin64\tmp\ccWFxnfo.ltrans12.ltrans.o
                                                  C:\cygwin64\tmp\ccWFxnfo.ltrans11.ltrans.o
                                                  C:\cygwin64\tmp\ccWFxnfo.ltrans10.ltrans.o
                                                  C:\cygwin64\tmp\ccWFxnfo.ltrans7.ltrans.o
                                                  C:\cygwin64\tmp\ccWFxnfo.ltrans6.ltrans.o
                                                  C:\cygwin64\tmp\ccWFxnfo.ltrans3.ltrans.o
                                                  C:\cygwin64\tmp\ccWFxnfo.ltrans2.ltrans.o
__aeabi_f2uiz                                     c:/dev/gcc-arm-none-eabi-4_8-2014q2/bin/../lib/gcc/arm-none-eabi/4.8.4/armv7-m\libgcc.a(_arm_fixunssfsi.o)
                                                  C:\cygwin64\tmp\ccWFxnfo.ltrans10.ltrans.o
                                                  C:\cygwin64\tmp\ccWFxnfo.ltrans7.ltrans.o
                                                  C:\cygwin64\tmp\ccWFxnfo.ltrans4.ltrans.o
__aeabi_fadd                                      c:/dev/gcc-arm-none-eabi-4_8-2014q2/bin/../lib/gcc/arm-none-eabi/4.8.4/armv7-m\libgcc.a(_arm_addsubsf3.o)
                                                  c:/dev/gcc-arm-none-eabi-4_8-2014q2/bin/../lib/gcc/arm-none-eabi/4.8.4/../../../../arm-none-eabi/lib/armv7-m\libm.a(lib_a-sf_scalbn.o)
                                                  c:/dev/gcc-arm-none-eabi-4_8-2014q2/bin/../lib/gcc/arm-none-eabi/4.8.4/../../../../arm-none-eabi/lib/armv7-m\libm.a(lib_a-ef_sqrt.o)
                                                  c:/dev/gcc-arm-none-eabi-4_8-2014q2/bin/../lib/gcc/arm-none-eabi/4.8.4/../../../../arm-none-eabi/lib/armv7-m\libm.a(lib_a-ef_pow.o)
                                                  c:/dev/gcc-arm-none-eabi-4_8-2014q2/bin/../lib/gcc/arm-none-eabi/4.8.4/../../../../arm-none-eabi/lib/armv7-m\libm.a(lib_a-ef_log.o)
                                                  c:/dev/gcc-arm-none-eabi-4_8-2014q2/bin/../lib/gcc/arm-none-eabi/4.8.4/../../../../arm-none-eabi/lib/armv7-m\libm.a(lib_a-sf_lrint.o)
                                                  C:\cygwin64\tmp\ccWFxnfo.ltrans31.ltrans.o
                                                  C:\cygwin64\tmp\ccWFxnfo.ltrans30.ltrans.o
                                                  C:\cygwin64\tmp\ccWFxnfo.ltrans25.ltrans.o
                                                  C:\cygwin64\tmp\ccWFxnfo.ltrans24.ltrans.o
                                                  C:\cygwin64\tmp\ccWFxnfo.ltrans19.ltrans.o
                                                  C:\cygwin64\tmp\ccWFxnfo.ltrans15.ltrans.o
                                                  C:\cygwin64\tmp\ccWFxnfo.ltrans14.ltrans.o
                                                  C:\cygwin64\tmp\ccWFxnfo.ltrans11.ltrans.o
                                                  C:\cygwin64\tmp\ccWFxnfo.ltrans7.ltrans.o
                                                  C:\cygwin64\tmp\ccWFxnfo.ltrans6.ltrans.o
                                                  C:\cygwin64\tmp\ccWFxnfo.ltrans3.ltrans.o
                                                  C:\cygwin64\tmp\ccWFxnfo.ltrans2.ltrans.o
                                                  C:\cygwin64\tmp\ccWFxnfo.ltrans0.ltrans.o
__aeabi_fcmpeq                                    c:/dev/gcc-arm-none-eabi-4_8-2014q2/bin/../lib/gcc/arm-none-eabi/4.8.4/armv7-m\libgcc.a(_arm_cmpsf2.o)
                                                  c:/dev/gcc-arm-none-eabi-4_8-2014q2/bin/../lib/gcc/arm-none-eabi/4.8.4/../../../../arm-none-eabi/lib/armv7-m\libm.a(lib_a-ef_log.o)
                                                  c:/dev/gcc-arm-none-eabi-4_8-2014q2/bin/../lib/gcc/arm-none-eabi/4.8.4/../../../../arm-none-eabi/lib/armv7-m\libm.a(lib_a-wf_pow.o)
                                                  c:/dev/gcc-arm-none-eabi-4_8-2014q2/bin/../lib/gcc/arm-none-eabi/4.8.4/../../../../arm-none-eabi/lib/armv7-m\libm.a(lib_a-wf_log.o)
                                                  C:\cygwin64\tmp\ccWFxnfo.ltrans31.ltrans.o
                                                  C:\cygwin64\tmp\ccWFxnfo.ltrans20.ltrans.o
                                                  C:\cygwin64\tmp\ccWFxnfo.ltrans7.ltrans.o
                                                  C:\cygwin64\tmp\ccWFxnfo.ltrans5.ltrans.o
                                                  C:\cygwin64\tmp\ccWFxnfo.ltrans2.ltrans.o
                                                  C:\cygwin64\tmp\ccWFxnfo.ltrans0.ltrans.o
__aeabi_fcmpge                                    c:/dev/gcc-arm-none-eabi-4_8-2014q2/bin/../lib/gcc/arm-none-eabi/4.8.4/armv7-m\libgcc.a(_arm_cmpsf2.o)
                                                  C:\cygwin64\tmp\ccWFxnfo.ltrans5.ltrans.o
__aeabi_fcmpgt                                    c:/dev/gcc-arm-none-eabi-4_8-2014q2/bin/../lib/gcc/arm-none-eabi/4.8.4/armv7-m\libgcc.a(_arm_cmpsf2.o)
                                                  c:/dev/gcc-arm-none-eabi-4_8-2014q2/bin/../lib/gcc/arm-none-eabi/4.8.4/../../../../arm-none-eabi/lib/armv7-m\libm.a(lib_a-ef_pow.o)
                                                  c:/dev/gcc-arm-none-eabi-4_8-2014q2/bin/../lib/gcc/arm-none-eabi/4.8.4/../../../../arm-none-eabi/lib/armv7-m\libm.a(lib_a-wf_log.o)
                                                  C:\cygwin64\tmp\ccWFxnfo.ltrans31.ltrans.o
                                                  C:\cygwin64\tmp\ccWFxnfo.ltrans30.ltrans.o
                                                  C:\cygwin64\tmp\ccWFxnfo.ltrans19.ltrans.o
                                                  C:\cygwin64\tmp\ccWFxnfo.ltrans15.ltrans.o
                                                  C:\cygwin64\tmp\ccWFxnfo.ltrans7.ltrans.o
                                                  C:\cygwin64\tmp\ccWFxnfo.ltrans6.ltrans.o
                                                  C:\cygwin64\tmp\ccWFxnfo.ltrans4.ltrans.o
                                                  C:\cygwin64\tmp\ccWFxnfo.ltrans2.ltrans.o
__aeabi_fcmple                                    c:/dev/gcc-arm-none-eabi-4_8-2014q2/bin/../lib/gcc/arm-none-eabi/4.8.4/armv7-m\libgcc.a(_arm_cmpsf2.o)
                                                  c:/dev/gcc-arm-none-eabi-4_8-2014q2/bin/../lib/gcc/arm-none-eabi/4.8.4/../../../../arm-none-eabi/lib/armv7-m\libm.a(lib_a-ef_pow.o)
                                                  C:\cygwin64\tmp\ccWFxnfo.ltrans11.ltrans.o
                                                  C:\cygwin64\tmp\ccWFxnfo.ltrans5.ltrans.o
                                                  C:\cygwin64\tmp\ccWFxnfo.ltrans2.ltrans.o
__aeabi_fcmplt                                    c:/dev/gcc-arm-none-eabi-4_8-2014q2/bin/../lib/gcc/arm-none-eabi/4.8.4/armv7-m\libgcc.a(_arm_cmpsf2.o)
                                                  c:/dev/gcc-arm-none-eabi-4_8-2014q2/bin/../lib/gcc/arm-none-eabi/4.8.4/../../../../arm-none-eabi/lib/armv7-m\libm.a(lib_a-wf_sqrt.o)
                                                  c:/dev/gcc-arm-none-eabi-4_8-2014q2/bin/../lib/gcc/arm-none-eabi/4.8.4/../../../../arm-none-eabi/lib/armv7-m\libm.a(lib_a-wf_pow.o)
                                                  C:\cygwin64\tmp\ccWFxnfo.ltrans31.ltrans.o
                                                  C:\cygwin64\tmp\ccWFxnfo.ltrans30.ltrans.o
                                                  C:\cygwin64\tmp\ccWFxnfo.ltrans24.ltrans.o
                                                  C:\cygwin64\tmp\ccWFxnfo.ltrans20.ltrans.o
                                                  C:\cygwin64\tmp\ccWFxnfo.ltrans15.ltrans.o
                                                  C:\cygwin64\tmp\ccWFxnfo.ltrans3.ltrans.o
                                                  C:\cygwin64\tmp\ccWFxnfo.ltrans2.ltrans.o
__aeabi_fdiv                                      c:/dev/gcc-arm-none-eabi-4_8-2014q2/bin/../lib/gcc/arm-none-eabi/4.8.4/armv7-m\libgcc.a(_arm_muldivsf3.o)
                                                  c:/dev/gcc-arm-none-eabi-4_8-2014q2/bin/../lib/gcc/arm-none-eabi/4.8.4/../../../../arm-none-eabi/lib/armv7-m\libm.a(lib_a-ef_sqrt.o)
                                                  c:/dev/gcc-arm-none-eabi-4_8-2014q2/bin/../lib/gcc/arm-none-eabi/4.8.4/../../../../arm-none-eabi/lib/armv7-m\libm.a(lib_a-ef_pow.o)
                                                  c:/dev/gcc-arm-none-eabi-4_8-2014q2/bin/../lib/gcc/arm-none-eabi/4.8.4/../../../../arm-none-eabi/lib/armv7-m\libm.a(lib_a-ef_log.o)
                                                  c:/dev/gcc-arm-none-eabi-4_8-2014q2/bin/../lib/gcc/arm-none-eabi/4.8.4/../../../../arm-none-eabi/lib/armv7-m\libm.a(lib_a-sf_log2.o)
                                                  C:\cygwin64\tmp\ccWFxnfo.ltrans31.ltrans.o
                                                  C:\cygwin64\tmp\ccWFxnfo.ltrans25.ltrans.o
                                                  C:\cygwin64\tmp\ccWFxnfo.ltrans24.ltrans.o
                                                  C:\cygwin64\tmp\ccWFxnfo.ltrans22.ltrans.o
                                                  C:\cygwin64\tmp\ccWFxnfo.ltrans19.ltrans.o
                                                  C:\cygwin64\tmp\ccWFxnfo.ltrans17.ltrans.o
                                                  C:\cygwin64\tmp\ccWFxnfo.ltrans15.ltrans.o
                                                  C:\cygwin64\tmp\ccWFxnfo.ltrans14.ltrans.o
                                                  C:\cygwin64\tmp\ccWFxnfo.ltrans12.ltrans.o
                                                  C:\cygwin64\tmp\ccWFxnfo.ltrans11.ltrans.o
                                                  C:\cygwin64\tmp\ccWFxnfo.ltrans7.ltrans.o
                                                  C:\cygwin64\tmp\ccWFxnfo.ltrans4.ltrans.o
                                                  C:\cygwin64\tmp\ccWFxnfo.ltrans3.ltrans.o
                                                  C:\cygwin64\tmp\ccWFxnfo.ltrans2.ltrans.o
                                                  C:\cygwin64\tmp\ccWFxnfo.ltrans0.ltrans.o
__aeabi_fmul                                      c:/dev/gcc-arm-none-eabi-4_8-2014q2/bin/../lib/gcc/arm-none-eabi/4.8.4/armv7-m\libgcc.a(_arm_muldivsf3.o)
                                                  c:/dev/gcc-arm-none-eabi-4_8-2014q2/bin/../lib/gcc/arm-none-eabi/4.8.4/../../../../arm-none-eabi/lib/armv7-m\libm.a(lib_a-sf_scalbn.o)
                                                  c:/dev/gcc-arm-none-eabi-4_8-2014q2/bin/../lib/gcc/arm-none-eabi/4.8.4/../../../../arm-none-eabi/lib/armv7-m\libm.a(lib_a-ef_sqrt.o)
                                                  c:/dev/gcc-arm-none-eabi-4_8-2014q2/bin/../lib/gcc/arm-none-eabi/4.8.4/../../../../arm-none-eabi/lib/armv7-m\libm.a(lib_a-ef_pow.o)
                                                  c:/dev/gcc-arm-none-eabi-4_8-2014q2/bin/../lib/gcc/arm-none-eabi/4.8.4/../../../../arm-none-eabi/lib/armv7-m\libm.a(lib_a-ef_log.o)
                                                  c:/dev/gcc-arm-none-eabi-4_8-2014q2/bin/../lib/gcc/arm-none-eabi/4.8.4/../../../../arm-none-eabi/lib/armv7-m\libm.a(lib_a-wf_pow.o)
                                                  C:\cygwin64\tmp\ccWFxnfo.ltrans31.ltrans.o
                                                  C:\cygwin64\tmp\ccWFxnfo.ltrans30.ltrans.o
                                                  C:\cygwin64\tmp\ccWFxnfo.ltrans25.ltrans.o
                                                  C:\cygwin64\tmp\ccWFxnfo.ltrans24.ltrans.o
                                                  C:\cygwin64\tmp\ccWFxnfo.ltrans19.ltrans.o
                                                  C:\cygwin64\tmp\ccWFxnfo.ltrans17.ltrans.o
                                                  C:\cygwin64\tmp\ccWFxnfo.ltrans15.ltrans.o
                                                  C:\cygwin64\tmp\ccWFxnfo.ltrans14.ltrans.o
                                                  C:\cygwin64\tmp\ccWFxnfo.ltrans13.ltrans.o
                                                  C:\cygwin64\tmp\ccWFxnfo.ltrans12.ltrans.o
                                                  C:\cygwin64\tmp\ccWFxnfo.ltrans11.ltrans.o
                                                  C:\cygwin64\tmp\ccWFxnfo.ltrans10.ltrans.o
                                                  C:\cygwin64\tmp\ccWFxnfo.ltrans7.ltrans.o
                                                  C:\cygwin64\tmp\ccWFxnfo.ltrans6.ltrans.o
                                                  C:\cygwin64\tmp\ccWFxnfo.ltrans4.ltrans.o
                                                  C:\cygwin64\tmp\ccWFxnfo.ltrans3.ltrans.o
                                                  C:\cygwin64\tmp\ccWFxnfo.ltrans2.ltrans.o
                                                  C:\cygwin64\tmp\ccWFxnfo.ltrans0.ltrans.o
__aeabi_frsub                                     c:/dev/gcc-arm-none-eabi-4_8-2014q2/bin/../lib/gcc/arm-none-eabi/4.8.4/armv7-m\libgcc.a(_arm_addsubsf3.o)
__aeabi_fsub                                      c:/dev/gcc-arm-none-eabi-4_8-2014q2/bin/../lib/gcc/arm-none-eabi/4.8.4/armv7-m\libgcc.a(_arm_addsubsf3.o)
                                                  c:/dev/gcc-arm-none-eabi-4_8-2014q2/bin/../lib/gcc/arm-none-eabi/4.8.4/../../../../arm-none-eabi/lib/armv7-m\libm.a(lib_a-ef_sqrt.o)
                                                  c:/dev/gcc-arm-none-eabi-4_8-2014q2/bin/../lib/gcc/arm-none-eabi/4.8.4/../../../../arm-none-eabi/lib/armv7-m\libm.a(lib_a-ef_pow.o)
                                                  c:/dev/gcc-arm-none-eabi-4_8-2014q2/bin/../lib/gcc/arm-none-eabi/4.8.4/../../../../arm-none-eabi/lib/armv7-m\libm.a(lib_a-ef_log.o)
                                                  c:/dev/gcc-arm-none-eabi-4_8-2014q2/bin/../lib/gcc/arm-none-eabi/4.8.4/../../../../arm-none-eabi/lib/armv7-m\libm.a(lib_a-sf_lrint.o)
                                                  C:\cygwin64\tmp\ccWFxnfo.ltrans31.ltrans.o
                                                  C:\cygwin64\tmp\ccWFxnfo.ltrans30.ltrans.o
                                                  C:\cygwin64\tmp\ccWFxnfo.ltrans24.ltrans.o
                                                  C:\cygwin64\tmp\ccWFxnfo.ltrans19.ltrans.o
                                                  C:\cygwin64\tmp\ccWFxnfo.ltrans15.ltrans.o
                                                  C:\cygwin64\tmp\ccWFxnfo.ltrans14.ltrans.o
                                                  C:\cygwin64\tmp\ccWFxnfo.ltrans11.ltrans.o
                                                  C:\cygwin64\tmp\ccWFxnfo.ltrans7.ltrans.o
                                                  C:\cygwin64\tmp\ccWFxnfo.ltrans6.ltrans.o
                                                  C:\cygwin64\tmp\ccWFxnfo.ltrans2.ltrans.o
                                                  C:\cygwin64\tmp\ccWFxnfo.ltrans0.ltrans.o
__aeabi_i2d                                       c:/dev/gcc-arm-none-eabi-4_8-2014q2/bin/../lib/gcc/arm-none-eabi/4.8.4/armv7-m\libgcc.a(_arm_addsubdf3.o)
                                                  C:\cygwin64\tmp\ccWFxnfo.ltrans3.ltrans.o
__aeabi_i2f                                       c:/dev/gcc-arm-none-eabi-4_8-2014q2/bin/../lib/gcc/arm-none-eabi/4.8.4/armv7-m\libgcc.a(_arm_addsubsf3.o)
                                                  c:/dev/gcc-arm-none-eabi-4_8-2014q2/bin/../lib/gcc/arm-none-eabi/4.8.4/../../../../arm-none-eabi/lib/armv7-m\libm.a(lib_a-ef_pow.o)
                                                  c:/dev/gcc-arm-none-eabi-4_8-2014q2/bin/../lib/gcc/arm-none-eabi/4.8.4/../../../../arm-none-eabi/lib/armv7-m\libm.a(lib_a-ef_log.o)
                                                  C:\cygwin64\tmp\ccWFxnfo.ltrans25.ltrans.o
                                                  C:\cygwin64\tmp\ccWFxnfo.ltrans24.ltrans.o
                                                  C:\cygwin64\tmp\ccWFxnfo.ltrans19.ltrans.o
                                                  C:\cygwin64\tmp\ccWFxnfo.ltrans17.ltrans.o
                                                  C:\cygwin64\tmp\ccWFxnfo.ltrans15.ltrans.o
                                                  C:\cygwin64\tmp\ccWFxnfo.ltrans14.ltrans.o
                                                  C:\cygwin64\tmp\ccWFxnfo.ltrans13.ltrans.o
                                                  C:\cygwin64\tmp\ccWFxnfo.ltrans12.ltrans.o
                                                  C:\cygwin64\tmp\ccWFxnfo.ltrans11.ltrans.o
                                                  C:\cygwin64\tmp\ccWFxnfo.ltrans10.ltrans.o
                                                  C:\cygwin64\tmp\ccWFxnfo.ltrans8.ltrans.o
                                                  C:\cygwin64\tmp\ccWFxnfo.ltrans7.ltrans.o
                                                  C:\cygwin64\tmp\ccWFxnfo.ltrans5.ltrans.o
                                                  C:\cygwin64\tmp\ccWFxnfo.ltrans4.ltrans.o
                                                  C:\cygwin64\tmp\ccWFxnfo.ltrans3.ltrans.o
                                                  C:\cygwin64\tmp\ccWFxnfo.ltrans2.ltrans.o
                                                  C:\cygwin64\tmp\ccWFxnfo.ltrans0.ltrans.o
__aeabi_idiv0                                     c:/dev/gcc-arm-none-eabi-4_8-2014q2/bin/../lib/gcc/arm-none-eabi/4.8.4/armv7-m\libgcc.a(_dvmd_tls.o)
__aeabi_l2d                                       c:/dev/gcc-arm-none-eabi-4_8-2014q2/bin/../lib/gcc/arm-none-eabi/4.8.4/armv7-m\libgcc.a(_arm_addsubdf3.o)
__aeabi_l2f                                       c:/dev/gcc-arm-none-eabi-4_8-2014q2/bin/../lib/gcc/arm-none-eabi/4.8.4/armv7-m\libgcc.a(_arm_addsubsf3.o)
__aeabi_ldiv0                                     c:/dev/gcc-arm-none-eabi-4_8-2014q2/bin/../lib/gcc/arm-none-eabi/4.8.4/armv7-m\libgcc.a(_dvmd_tls.o)
                                                  c:/dev/gcc-arm-none-eabi-4_8-2014q2/bin/../lib/gcc/arm-none-eabi/4.8.4/armv7-m\libgcc.a(_aeabi_ldivmod.o)
__aeabi_ldivmod                                   c:/dev/gcc-arm-none-eabi-4_8-2014q2/bin/../lib/gcc/arm-none-eabi/4.8.4/armv7-m\libgcc.a(_aeabi_ldivmod.o)
                                                  C:\cygwin64\tmp\ccWFxnfo.ltrans26.ltrans.o
                                                  C:\cygwin64\tmp\ccWFxnfo.ltrans10.ltrans.o
__aeabi_ui2d                                      c:/dev/gcc-arm-none-eabi-4_8-2014q2/bin/../lib/gcc/arm-none-eabi/4.8.4/armv7-m\libgcc.a(_arm_addsubdf3.o)
__aeabi_ui2f                                      c:/dev/gcc-arm-none-eabi-4_8-2014q2/bin/../lib/gcc/arm-none-eabi/4.8.4/armv7-m\libgcc.a(_arm_addsubsf3.o)
                                                  C:\cygwin64\tmp\ccWFxnfo.ltrans25.ltrans.o
                                                  C:\cygwin64\tmp\ccWFxnfo.ltrans24.ltrans.o
                                                  C:\cygwin64\tmp\ccWFxnfo.ltrans22.ltrans.o
                                                  C:\cygwin64\tmp\ccWFxnfo.ltrans17.ltrans.o
                                                  C:\cygwin64\tmp\ccWFxnfo.ltrans15.ltrans.o
                                                  C:\cygwin64\tmp\ccWFxnfo.ltrans14.ltrans.o
                                                  C:\cygwin64\tmp\ccWFxnfo.ltrans11.ltrans.o
                                                  C:\cygwin64\tmp\ccWFxnfo.ltrans10.ltrans.o
                                                  C:\cygwin64\tmp\ccWFxnfo.ltrans7.ltrans.o
                                                  C:\cygwin64\tmp\ccWFxnfo.ltrans3.ltrans.o
                                                  C:\cygwin64\tmp\ccWFxnfo.ltrans2.ltrans.o
__aeabi_ul2d                                      c:/dev/gcc-arm-none-eabi-4_8-2014q2/bin/../lib/gcc/arm-none-eabi/4.8.4/armv7-m\libgcc.a(_arm_addsubdf3.o)
__aeabi_ul2f                                      c:/dev/gcc-arm-none-eabi-4_8-2014q2/bin/../lib/gcc/arm-none-eabi/4.8.4/armv7-m\libgcc.a(_arm_addsubsf3.o)
__cmpdf2                                          c:/dev/gcc-arm-none-eabi-4_8-2014q2/bin/../lib/gcc/arm-none-eabi/4.8.4/armv7-m\libgcc.a(_arm_cmpdf2.o)
__cmpsf2                                          c:/dev/gcc-arm-none-eabi-4_8-2014q2/bin/../lib/gcc/arm-none-eabi/4.8.4/armv7-m\libgcc.a(_arm_cmpsf2.o)
__config_end                                      C:\cygwin64\tmp\ccWFxnfo.ltrans25.ltrans.o
                                                  C:\cygwin64\tmp\ccWFxnfo.ltrans22.ltrans.o
                                                  C:\cygwin64\tmp\ccWFxnfo.ltrans21.ltrans.o
__config_start                                    C:\cygwin64\tmp\ccWFxnfo.ltrans25.ltrans.o
                                                  C:\cygwin64\tmp\ccWFxnfo.ltrans22.ltrans.o
                                                  C:\cygwin64\tmp\ccWFxnfo.ltrans21.ltrans.o
                                                  C:\cygwin64\tmp\ccWFxnfo.ltrans0.ltrans.o
__ctype_ptr__                                     c:/dev/gcc-arm-none-eabi-4_8-2014q2/bin/../lib/gcc/arm-none-eabi/4.8.4/../../../../arm-none-eabi/lib/armv7-m\libc_s.a(lib_a-ctype_.o)
                                                  c:/dev/gcc-arm-none-eabi-4_8-2014q2/bin/../lib/gcc/arm-none-eabi/4.8.4/../../../../arm-none-eabi/lib/armv7-m\libg_s.a(lib_a-strncasecmp.o)
                                                  c:/dev/gcc-arm-none-eabi-4_8-2014q2/bin/../lib/gcc/arm-none-eabi/4.8.4/../../../../arm-none-eabi/lib/armv7-m\libg_s.a(lib_a-strcasecmp.o)
                                                  C:\cygwin64\tmp\ccWFxnfo.ltrans28.ltrans.o
                                                  C:\cygwin64\tmp\ccWFxnfo.ltrans5.ltrans.o
                                                  c:/dev/gcc-arm-none-eabi-4_8-2014q2/bin/../lib/gcc/arm-none-eabi/4.8.4/../../../../arm-none-eabi/lib/armv7-m\libc_s.a(lib_a-strtol.o)
__divdf3                                          c:/dev/gcc-arm-none-eabi-4_8-2014q2/bin/../lib/gcc/arm-none-eabi/4.8.4/armv7-m\libgcc.a(_arm_muldivdf3.o)
__divdi3                                          c:/dev/gcc-arm-none-eabi-4_8-2014q2/bin/../lib/gcc/arm-none-eabi/4.8.4/armv7-m\libgcc.a(_divdi3.o)
                                                  c:/dev/gcc-arm-none-eabi-4_8-2014q2/bin/../lib/gcc/arm-none-eabi/4.8.4/armv7-m\libgcc.a(bpabi.o)
__divsf3                                          c:/dev/gcc-arm-none-eabi-4_8-2014q2/bin/../lib/gcc/arm-none-eabi/4.8.4/armv7-m\libgcc.a(_arm_muldivsf3.o)
__eqdf2                                           c:/dev/gcc-arm-none-eabi-4_8-2014q2/bin/../lib/gcc/arm-none-eabi/4.8.4/armv7-m\libgcc.a(_arm_cmpdf2.o)
__eqsf2                                           c:/dev/gcc-arm-none-eabi-4_8-2014q2/bin/../lib/gcc/arm-none-eabi/4.8.4/armv7-m\libgcc.a(_arm_cmpsf2.o)
__errno                                           c:/dev/gcc-arm-none-eabi-4_8-2014q2/bin/../lib/gcc/arm-none-eabi/4.8.4/../../../../arm-none-eabi/lib/armv7-m\libc_s.a(lib_a-errno.o)
                                                  c:/dev/gcc-arm-none-eabi-4_8-2014q2/bin/../lib/gcc/arm-none-eabi/4.8.4/../../../../arm-none-eabi/lib/armv7-m\libm.a(lib_a-wf_sqrt.o)
                                                  c:/dev/gcc-arm-none-eabi-4_8-2014q2/bin/../lib/gcc/arm-none-eabi/4.8.4/../../../../arm-none-eabi/lib/armv7-m\libm.a(lib_a-wf_pow.o)
                                                  c:/dev/gcc-arm-none-eabi-4_8-2014q2/bin/../lib/gcc/arm-none-eabi/4.8.4/../../../../arm-none-eabi/lib/armv7-m\libm.a(lib_a-wf_log.o)
__extendsfdf2                                     c:/dev/gcc-arm-none-eabi-4_8-2014q2/bin/../lib/gcc/arm-none-eabi/4.8.4/armv7-m\libgcc.a(_arm_addsubdf3.o)
__fdlib_version                                   c:/dev/gcc-arm-none-eabi-4_8-2014q2/bin/../lib/gcc/arm-none-eabi/4.8.4/../../../../arm-none-eabi/lib/armv7-m\libm.a(lib_a-s_lib_ver.o)
                                                  c:/dev/gcc-arm-none-eabi-4_8-2014q2/bin/../lib/gcc/arm-none-eabi/4.8.4/../../../../arm-none-eabi/lib/armv7-m\libm.a(lib_a-wf_sqrt.o)
                                                  c:/dev/gcc-arm-none-eabi-4_8-2014q2/bin/../lib/gcc/arm-none-eabi/4.8.4/../../../../arm-none-eabi/lib/armv7-m\libm.a(lib_a-wf_pow.o)
                                                  c:/dev/gcc-arm-none-eabi-4_8-2014q2/bin/../lib/gcc/arm-none-eabi/4.8.4/../../../../arm-none-eabi/lib/armv7-m\libm.a(lib_a-wf_log.o)
__fixsfsi                                         c:/dev/gcc-arm-none-eabi-4_8-2014q2/bin/../lib/gcc/arm-none-eabi/4.8.4/armv7-m\libgcc.a(_arm_fixsfsi.o)
__fixunssfsi                                      c:/dev/gcc-arm-none-eabi-4_8-2014q2/bin/../lib/gcc/arm-none-eabi/4.8.4/armv7-m\libgcc.a(_arm_fixunssfsi.o)
__floatdidf                                       c:/dev/gcc-arm-none-eabi-4_8-2014q2/bin/../lib/gcc/arm-none-eabi/4.8.4/armv7-m\libgcc.a(_arm_addsubdf3.o)
__floatdisf                                       c:/dev/gcc-arm-none-eabi-4_8-2014q2/bin/../lib/gcc/arm-none-eabi/4.8.4/armv7-m\libgcc.a(_arm_addsubsf3.o)
__floatsidf                                       c:/dev/gcc-arm-none-eabi-4_8-2014q2/bin/../lib/gcc/arm-none-eabi/4.8.4/armv7-m\libgcc.a(_arm_addsubdf3.o)
__floatsisf                                       c:/dev/gcc-arm-none-eabi-4_8-2014q2/bin/../lib/gcc/arm-none-eabi/4.8.4/armv7-m\libgcc.a(_arm_addsubsf3.o)
__floatundidf                                     c:/dev/gcc-arm-none-eabi-4_8-2014q2/bin/../lib/gcc/arm-none-eabi/4.8.4/armv7-m\libgcc.a(_arm_addsubdf3.o)
__floatundisf                                     c:/dev/gcc-arm-none-eabi-4_8-2014q2/bin/../lib/gcc/arm-none-eabi/4.8.4/armv7-m\libgcc.a(_arm_addsubsf3.o)
__floatunsidf                                     c:/dev/gcc-arm-none-eabi-4_8-2014q2/bin/../lib/gcc/arm-none-eabi/4.8.4/armv7-m\libgcc.a(_arm_addsubdf3.o)
__floatunsisf                                     c:/dev/gcc-arm-none-eabi-4_8-2014q2/bin/../lib/gcc/arm-none-eabi/4.8.4/armv7-m\libgcc.a(_arm_addsubsf3.o)
__fpclassifyf                                     c:/dev/gcc-arm-none-eabi-4_8-2014q2/bin/../lib/gcc/arm-none-eabi/4.8.4/../../../../arm-none-eabi/lib/armv7-m\libm.a(lib_a-sf_fpclassify.o)
                                                  c:/dev/gcc-arm-none-eabi-4_8-2014q2/bin/../lib/gcc/arm-none-eabi/4.8.4/../../../../arm-none-eabi/lib/armv7-m\libm.a(lib_a-wf_sqrt.o)
                                                  c:/dev/gcc-arm-none-eabi-4_8-2014q2/bin/../lib/gcc/arm-none-eabi/4.8.4/../../../../arm-none-eabi/lib/armv7-m\libm.a(lib_a-wf_pow.o)
                                                  c:/dev/gcc-arm-none-eabi-4_8-2014q2/bin/../lib/gcc/arm-none-eabi/4.8.4/../../../../arm-none-eabi/lib/armv7-m\libm.a(lib_a-wf_log.o)
__gedf2                                           c:/dev/gcc-arm-none-eabi-4_8-2014q2/bin/../lib/gcc/arm-none-eabi/4.8.4/armv7-m\libgcc.a(_arm_cmpdf2.o)
__gesf2                                           c:/dev/gcc-arm-none-eabi-4_8-2014q2/bin/../lib/gcc/arm-none-eabi/4.8.4/armv7-m\libgcc.a(_arm_cmpsf2.o)
__gnu_ldivmod_helper                              c:/dev/gcc-arm-none-eabi-4_8-2014q2/bin/../lib/gcc/arm-none-eabi/4.8.4/armv7-m\libgcc.a(bpabi.o)
                                                  c:/dev/gcc-arm-none-eabi-4_8-2014q2/bin/../lib/gcc/arm-none-eabi/4.8.4/armv7-m\libgcc.a(_aeabi_ldivmod.o)
__gnu_uldivmod_helper                             c:/dev/gcc-arm-none-eabi-4_8-2014q2/bin/../lib/gcc/arm-none-eabi/4.8.4/armv7-m\libgcc.a(bpabi.o)
__gtdf2                                           c:/dev/gcc-arm-none-eabi-4_8-2014q2/bin/../lib/gcc/arm-none-eabi/4.8.4/armv7-m\libgcc.a(_arm_cmpdf2.o)
__gtsf2                                           c:/dev/gcc-arm-none-eabi-4_8-2014q2/bin/../lib/gcc/arm-none-eabi/4.8.4/armv7-m\libgcc.a(_arm_cmpsf2.o)
__ieee754_logf                                    c:/dev/gcc-arm-none-eabi-4_8-2014q2/bin/../lib/gcc/arm-none-eabi/4.8.4/../../../../arm-none-eabi/lib/armv7-m\libm.a(lib_a-ef_log.o)
                                                  c:/dev/gcc-arm-none-eabi-4_8-2014q2/bin/../lib/gcc/arm-none-eabi/4.8.4/../../../../arm-none-eabi/lib/armv7-m\libm.a(lib_a-wf_log.o)
__ieee754_powf                                    c:/dev/gcc-arm-none-eabi-4_8-2014q2/bin/../lib/gcc/arm-none-eabi/4.8.4/../../../../arm-none-eabi/lib/armv7-m\libm.a(lib_a-ef_pow.o)
                                                  c:/dev/gcc-arm-none-eabi-4_8-2014q2/bin/../lib/gcc/arm-none-eabi/4.8.4/../../../../arm-none-eabi/lib/armv7-m\libm.a(lib_a-wf_pow.o)
__ieee754_sqrtf                                   c:/dev/gcc-arm-none-eabi-4_8-2014q2/bin/../lib/gcc/arm-none-eabi/4.8.4/../../../../arm-none-eabi/lib/armv7-m\libm.a(lib_a-ef_sqrt.o)
                                                  c:/dev/gcc-arm-none-eabi-4_8-2014q2/bin/../lib/gcc/arm-none-eabi/4.8.4/../../../../arm-none-eabi/lib/armv7-m\libm.a(lib_a-ef_pow.o)
                                                  c:/dev/gcc-arm-none-eabi-4_8-2014q2/bin/../lib/gcc/arm-none-eabi/4.8.4/../../../../arm-none-eabi/lib/armv7-m\libm.a(lib_a-wf_sqrt.o)
__ledf2                                           c:/dev/gcc-arm-none-eabi-4_8-2014q2/bin/../lib/gcc/arm-none-eabi/4.8.4/armv7-m\libgcc.a(_arm_cmpdf2.o)
__lesf2                                           c:/dev/gcc-arm-none-eabi-4_8-2014q2/bin/../lib/gcc/arm-none-eabi/4.8.4/armv7-m\libgcc.a(_arm_cmpsf2.o)
__ltdf2                                           c:/dev/gcc-arm-none-eabi-4_8-2014q2/bin/../lib/gcc/arm-none-eabi/4.8.4/armv7-m\libgcc.a(_arm_cmpdf2.o)
__ltsf2                                           c:/dev/gcc-arm-none-eabi-4_8-2014q2/bin/../lib/gcc/arm-none-eabi/4.8.4/armv7-m\libgcc.a(_arm_cmpsf2.o)
__malloc_free_list                                c:/dev/gcc-arm-none-eabi-4_8-2014q2/bin/../lib/gcc/arm-none-eabi/4.8.4/../../../../arm-none-eabi/lib/armv7-m\libc_s.a(lib_a-nano-mallocr.o)
                                                  c:/dev/gcc-arm-none-eabi-4_8-2014q2/bin/../lib/gcc/arm-none-eabi/4.8.4/../../../../arm-none-eabi/lib/armv7-m\libc_s.a(lib_a-nano-freer.o)
__malloc_sbrk_start                               c:/dev/gcc-arm-none-eabi-4_8-2014q2/bin/../lib/gcc/arm-none-eabi/4.8.4/../../../../arm-none-eabi/lib/armv7-m\libc_s.a(lib_a-nano-mallocr.o)
__muldf3                                          c:/dev/gcc-arm-none-eabi-4_8-2014q2/bin/../lib/gcc/arm-none-eabi/4.8.4/armv7-m\libgcc.a(_arm_muldivdf3.o)
__mulsf3                                          c:/dev/gcc-arm-none-eabi-4_8-2014q2/bin/../lib/gcc/arm-none-eabi/4.8.4/armv7-m\libgcc.a(_arm_muldivsf3.o)
__nedf2                                           c:/dev/gcc-arm-none-eabi-4_8-2014q2/bin/../lib/gcc/arm-none-eabi/4.8.4/armv7-m\libgcc.a(_arm_cmpdf2.o)
__nesf2                                           c:/dev/gcc-arm-none-eabi-4_8-2014q2/bin/../lib/gcc/arm-none-eabi/4.8.4/armv7-m\libgcc.a(_arm_cmpsf2.o)
__pg_registry_end                                 C:\cygwin64\tmp\ccWFxnfo.ltrans25.ltrans.o
                                                  C:\cygwin64\tmp\ccWFxnfo.ltrans22.ltrans.o
                                                  C:\cygwin64\tmp\ccWFxnfo.ltrans21.ltrans.o
                                                  C:\cygwin64\tmp\ccWFxnfo.ltrans14.ltrans.o
                                                  C:\cygwin64\tmp\ccWFxnfo.ltrans12.ltrans.o
__pg_registry_start                               C:\cygwin64\tmp\ccWFxnfo.ltrans25.ltrans.o
                                                  C:\cygwin64\tmp\ccWFxnfo.ltrans22.ltrans.o
                                                  C:\cygwin64\tmp\ccWFxnfo.ltrans21.ltrans.o
                                                  C:\cygwin64\tmp\ccWFxnfo.ltrans14.ltrans.o
                                                  C:\cygwin64\tmp\ccWFxnfo.ltrans12.ltrans.o
__pg_resetdata_end                                C:\cygwin64\tmp\ccWFxnfo.ltrans14.ltrans.o
__pg_resetdata_start                              C:\cygwin64\tmp\ccWFxnfo.ltrans14.ltrans.o
__popcount_tab                                    c:/dev/gcc-arm-none-eabi-4_8-2014q2/bin/../lib/gcc/arm-none-eabi/4.8.4/armv7-m\libgcc.a(_popcount_tab.o)
                                                  c:/dev/gcc-arm-none-eabi-4_8-2014q2/bin/../lib/gcc/arm-none-eabi/4.8.4/armv7-m\libgcc.a(_popcountsi2.o)
__popcountsi2                                     c:/dev/gcc-arm-none-eabi-4_8-2014q2/bin/../lib/gcc/arm-none-eabi/4.8.4/armv7-m\libgcc.a(_popcountsi2.o)
                                                  C:\cygwin64\tmp\ccWFxnfo.ltrans7.ltrans.o
__sf_fake_stderr                                  c:/dev/gcc-arm-none-eabi-4_8-2014q2/bin/../lib/gcc/arm-none-eabi/4.8.4/../../../../arm-none-eabi/lib/armv7-m\libc_s.a(lib_a-impure.o)
__sf_fake_stdin                                   c:/dev/gcc-arm-none-eabi-4_8-2014q2/bin/../lib/gcc/arm-none-eabi/4.8.4/../../../../arm-none-eabi/lib/armv7-m\libc_s.a(lib_a-impure.o)
__sf_fake_stdout                                  c:/dev/gcc-arm-none-eabi-4_8-2014q2/bin/../lib/gcc/arm-none-eabi/4.8.4/../../../../arm-none-eabi/lib/armv7-m\libc_s.a(lib_a-impure.o)
__strtok_r                                        c:/dev/gcc-arm-none-eabi-4_8-2014q2/bin/../lib/gcc/arm-none-eabi/4.8.4/../../../../arm-none-eabi/lib/armv7-m\libc_s.a(lib_a-strtok_r.o)
                                                  c:/dev/gcc-arm-none-eabi-4_8-2014q2/bin/../lib/gcc/arm-none-eabi/4.8.4/../../../../arm-none-eabi/lib/armv7-m\libc_s.a(lib_a-strtok.o)
__subdf3                                          c:/dev/gcc-arm-none-eabi-4_8-2014q2/bin/../lib/gcc/arm-none-eabi/4.8.4/armv7-m\libgcc.a(_arm_addsubdf3.o)
__subsf3                                          c:/dev/gcc-arm-none-eabi-4_8-2014q2/bin/../lib/gcc/arm-none-eabi/4.8.4/armv7-m\libgcc.a(_arm_addsubsf3.o)
__truncdfsf2                                      c:/dev/gcc-arm-none-eabi-4_8-2014q2/bin/../lib/gcc/arm-none-eabi/4.8.4/armv7-m\libgcc.a(_arm_truncdfsf2.o)
__udivdi3                                         c:/dev/gcc-arm-none-eabi-4_8-2014q2/bin/../lib/gcc/arm-none-eabi/4.8.4/armv7-m\libgcc.a(_udivdi3.o)
                                                  c:/dev/gcc-arm-none-eabi-4_8-2014q2/bin/../lib/gcc/arm-none-eabi/4.8.4/armv7-m\libgcc.a(bpabi.o)
_atoi_r                                           c:/dev/gcc-arm-none-eabi-4_8-2014q2/bin/../lib/gcc/arm-none-eabi/4.8.4/../../../../arm-none-eabi/lib/armv7-m\libc_s.a(lib_a-atoi.o)
_ctype_                                           c:/dev/gcc-arm-none-eabi-4_8-2014q2/bin/../lib/gcc/arm-none-eabi/4.8.4/../../../../arm-none-eabi/lib/armv7-m\libc_s.a(lib_a-ctype_.o)
_ebss                                             obj/main/NAZE/startup_stm32f10x_md_gcc.o
_edata                                            obj/main/NAZE/startup_stm32f10x_md_gcc.o
_estack                                           obj/main/NAZE/startup_stm32f10x_md_gcc.o
_free_r                                           c:/dev/gcc-arm-none-eabi-4_8-2014q2/bin/../lib/gcc/arm-none-eabi/4.8.4/../../../../arm-none-eabi/lib/armv7-m\libc_s.a(lib_a-nano-freer.o)
                                                  c:/dev/gcc-arm-none-eabi-4_8-2014q2/bin/../lib/gcc/arm-none-eabi/4.8.4/../../../../arm-none-eabi/lib/armv7-m\libc_s.a(lib_a-reent.o)
                                                  c:/dev/gcc-arm-none-eabi-4_8-2014q2/bin/../lib/gcc/arm-none-eabi/4.8.4/../../../../arm-none-eabi/lib/armv7-m\libc_s.a(lib_a-malloc.o)
_global_impure_ptr                                c:/dev/gcc-arm-none-eabi-4_8-2014q2/bin/../lib/gcc/arm-none-eabi/4.8.4/../../../../arm-none-eabi/lib/armv7-m\libc_s.a(lib_a-impure.o)
_i2a.19603                                        C:\cygwin64\tmp\ccWFxnfo.ltrans14.ltrans.o
                                                  C:\cygwin64\tmp\ccWFxnfo.ltrans6.ltrans.o
_impure_ptr                                       c:/dev/gcc-arm-none-eabi-4_8-2014q2/bin/../lib/gcc/arm-none-eabi/4.8.4/../../../../arm-none-eabi/lib/armv7-m\libc_s.a(lib_a-impure.o)
                                                  c:/dev/gcc-arm-none-eabi-4_8-2014q2/bin/../lib/gcc/arm-none-eabi/4.8.4/../../../../arm-none-eabi/lib/armv7-m\libc_s.a(lib_a-errno.o)
                                                  c:/dev/gcc-arm-none-eabi-4_8-2014q2/bin/../lib/gcc/arm-none-eabi/4.8.4/../../../../arm-none-eabi/lib/armv7-m\libc_s.a(lib_a-reent.o)
                                                  c:/dev/gcc-arm-none-eabi-4_8-2014q2/bin/../lib/gcc/arm-none-eabi/4.8.4/../../../../arm-none-eabi/lib/armv7-m\libc_s.a(lib_a-malloc.o)
                                                  c:/dev/gcc-arm-none-eabi-4_8-2014q2/bin/../lib/gcc/arm-none-eabi/4.8.4/../../../../arm-none-eabi/lib/armv7-m\libc_s.a(lib_a-strtol.o)
                                                  c:/dev/gcc-arm-none-eabi-4_8-2014q2/bin/../lib/gcc/arm-none-eabi/4.8.4/../../../../arm-none-eabi/lib/armv7-m\libc_s.a(lib_a-strtok.o)
_malloc_r                                         c:/dev/gcc-arm-none-eabi-4_8-2014q2/bin/../lib/gcc/arm-none-eabi/4.8.4/../../../../arm-none-eabi/lib/armv7-m\libc_s.a(lib_a-nano-mallocr.o)
                                                  c:/dev/gcc-arm-none-eabi-4_8-2014q2/bin/../lib/gcc/arm-none-eabi/4.8.4/../../../../arm-none-eabi/lib/armv7-m\libc_s.a(lib_a-malloc.o)
_putc.11114                                       C:\cygwin64\tmp\ccWFxnfo.ltrans18.ltrans.o
                                                  C:\cygwin64\tmp\ccWFxnfo.ltrans21.ltrans.o
_putc.19447                                       C:\cygwin64\tmp\ccWFxnfo.ltrans14.ltrans.o
                                                  C:\cygwin64\tmp\ccWFxnfo.ltrans0.ltrans.o
_reclaim_reent                                    c:/dev/gcc-arm-none-eabi-4_8-2014q2/bin/../lib/gcc/arm-none-eabi/4.8.4/../../../../arm-none-eabi/lib/armv7-m\libc_s.a(lib_a-reent.o)
_sbrk                                             c:/dev/gcc-arm-none-eabi-4_8-2014q2/bin/../lib/gcc/arm-none-eabi/4.8.4/../../../../arm-none-eabi/lib/armv7-m\libnosys.a(sbrk.o)
                                                  c:/dev/gcc-arm-none-eabi-4_8-2014q2/bin/../lib/gcc/arm-none-eabi/4.8.4/../../../../arm-none-eabi/lib/armv7-m\libc_s.a(lib_a-sbrkr.o)
_sbrk_r                                           c:/dev/gcc-arm-none-eabi-4_8-2014q2/bin/../lib/gcc/arm-none-eabi/4.8.4/../../../../arm-none-eabi/lib/armv7-m\libc_s.a(lib_a-sbrkr.o)
                                                  c:/dev/gcc-arm-none-eabi-4_8-2014q2/bin/../lib/gcc/arm-none-eabi/4.8.4/../../../../arm-none-eabi/lib/armv7-m\libc_s.a(lib_a-nano-mallocr.o)
_sbss                                             obj/main/NAZE/startup_stm32f10x_md_gcc.o
_sdata                                            obj/main/NAZE/startup_stm32f10x_md_gcc.o
_sidata                                           obj/main/NAZE/startup_stm32f10x_md_gcc.o
_strtol_r                                         c:/dev/gcc-arm-none-eabi-4_8-2014q2/bin/../lib/gcc/arm-none-eabi/4.8.4/../../../../arm-none-eabi/lib/armv7-m\libc_s.a(lib_a-strtol.o)
                                                  c:/dev/gcc-arm-none-eabi-4_8-2014q2/bin/../lib/gcc/arm-none-eabi/4.8.4/../../../../arm-none-eabi/lib/armv7-m\libc_s.a(lib_a-atoi.o)
acc                                               C:\cygwin64\tmp\ccWFxnfo.ltrans0.ltrans.o
                                                  C:\cygwin64\tmp\ccWFxnfo.ltrans25.ltrans.o
                                                  C:\cygwin64\tmp\ccWFxnfo.ltrans17.ltrans.o
                                                  C:\cygwin64\tmp\ccWFxnfo.ltrans15.ltrans.o
                                                  C:\cygwin64\tmp\ccWFxnfo.ltrans12.ltrans.o
                                                  C:\cygwin64\tmp\ccWFxnfo.ltrans3.ltrans.o
                                                  C:\cygwin64\tmp\ccWFxnfo.ltrans2.ltrans.o
                                                  C:\cygwin64\tmp\ccWFxnfo.ltrans1.ltrans.o
accAlign                                          C:\cygwin64\tmp\ccWFxnfo.ltrans17.ltrans.o
                                                  C:\cygwin64\tmp\ccWFxnfo.ltrans25.ltrans.o
accDeadband.14761                                 C:\cygwin64\tmp\ccWFxnfo.ltrans25.ltrans.o
                                                  C:\cygwin64\tmp\ccWFxnfo.ltrans15.ltrans.o
accSamplingInterval                               C:\cygwin64\tmp\ccWFxnfo.ltrans0.ltrans.o
accSmooth                                         C:\cygwin64\tmp\ccWFxnfo.ltrans1.ltrans.o
                                                  C:\cygwin64\tmp\ccWFxnfo.ltrans25.ltrans.o
                                                  C:\cygwin64\tmp\ccWFxnfo.ltrans16.ltrans.o
                                                  C:\cygwin64\tmp\ccWFxnfo.ltrans15.ltrans.o
                                                  C:\cygwin64\tmp\ccWFxnfo.ltrans3.ltrans.o
accSum                                            C:\cygwin64\tmp\ccWFxnfo.ltrans15.ltrans.o
                                                  C:\cygwin64\tmp\ccWFxnfo.ltrans11.ltrans.o
accSumCount                                       C:\cygwin64\tmp\ccWFxnfo.ltrans15.ltrans.o
                                                  C:\cygwin64\tmp\ccWFxnfo.ltrans11.ltrans.o
accTimeSum                                        C:\cygwin64\tmp\ccWFxnfo.ltrans15.ltrans.o
                                                  C:\cygwin64\tmp\ccWFxnfo.ltrans11.ltrans.o
accVelScale                                       C:\cygwin64\tmp\ccWFxnfo.ltrans0.ltrans.o
                                                  C:\cygwin64\tmp\ccWFxnfo.ltrans11.ltrans.o
accelerometerConfig_ProfileCurrent                C:\cygwin64\tmp\ccWFxnfo.ltrans2.ltrans.o
                                                  C:\cygwin64\tmp\ccWFxnfo.ltrans25.ltrans.o
                                                  C:\cygwin64\tmp\ccWFxnfo.ltrans4.ltrans.o
                                                  C:\cygwin64\tmp\ccWFxnfo.ltrans1.ltrans.o
accelerometerConfig_Registry                      C:\cygwin64\tmp\ccWFxnfo.ltrans2.ltrans.o
acosf                                             C:\cygwin64\tmp\ccWFxnfo.ltrans31.ltrans.o
                                                  C:\cygwin64\tmp\ccWFxnfo.ltrans15.ltrans.o
                                                  C:\cygwin64\tmp\ccWFxnfo.ltrans2.ltrans.o
activeBoxIds.13596                                C:\cygwin64\tmp\ccWFxnfo.ltrans0.ltrans.o
                                                  C:\cygwin64\tmp\ccWFxnfo.ltrans1.ltrans.o
activeFeaturesLatch.11374                         C:\cygwin64\tmp\ccWFxnfo.ltrans0.ltrans.o
                                                  C:\cygwin64\tmp\ccWFxnfo.ltrans27.ltrans.o
                                                  C:\cygwin64\tmp\ccWFxnfo.ltrans25.ltrans.o
                                                  C:\cygwin64\tmp\ccWFxnfo.ltrans24.ltrans.o
                                                  C:\cygwin64\tmp\ccWFxnfo.ltrans18.ltrans.o
                                                  C:\cygwin64\tmp\ccWFxnfo.ltrans15.ltrans.o
                                                  C:\cygwin64\tmp\ccWFxnfo.ltrans12.ltrans.o
                                                  C:\cygwin64\tmp\ccWFxnfo.ltrans11.ltrans.o
                                                  C:\cygwin64\tmp\ccWFxnfo.ltrans10.ltrans.o
                                                  C:\cygwin64\tmp\ccWFxnfo.ltrans9.ltrans.o
                                                  C:\cygwin64\tmp\ccWFxnfo.ltrans4.ltrans.o
                                                  C:\cygwin64\tmp\ccWFxnfo.ltrans3.ltrans.o
                                                  C:\cygwin64\tmp\ccWFxnfo.ltrans2.ltrans.o
adcConfig                                         C:\cygwin64\tmp\ccWFxnfo.ltrans0.ltrans.o
                                                  C:\cygwin64\tmp\ccWFxnfo.ltrans10.ltrans.o
                                                  C:\cygwin64\tmp\ccWFxnfo.ltrans4.ltrans.o
adcValues                                         C:\cygwin64\tmp\ccWFxnfo.ltrans0.ltrans.o
                                                  C:\cygwin64\tmp\ccWFxnfo.ltrans10.ltrans.o
                                                  C:\cygwin64\tmp\ccWFxnfo.ltrans4.ltrans.o
addr.4272                                         C:\cygwin64\tmp\ccWFxnfo.ltrans13.ltrans.o
                                                  C:\cygwin64\tmp\ccWFxnfo.ltrans16.ltrans.o
adjustmentProfile_ProfileCurrent                  C:\cygwin64\tmp\ccWFxnfo.ltrans4.ltrans.o
                                                  C:\cygwin64\tmp\ccWFxnfo.ltrans12.ltrans.o
                                                  C:\cygwin64\tmp\ccWFxnfo.ltrans1.ltrans.o
adjustmentProfile_Registry                        C:\cygwin64\tmp\ccWFxnfo.ltrans4.ltrans.o
adjustmentStates                                  C:\cygwin64\tmp\ccWFxnfo.ltrans4.ltrans.o
                                                  C:\cygwin64\tmp\ccWFxnfo.ltrans25.ltrans.o
adxl345Init.4837                                  C:\cygwin64\tmp\ccWFxnfo.ltrans13.ltrans.o
                                                  C:\cygwin64\tmp\ccWFxnfo.ltrans17.ltrans.o
adxl345Read.4831                                  C:\cygwin64\tmp\ccWFxnfo.ltrans13.ltrans.o
                                                  C:\cygwin64\tmp\ccWFxnfo.ltrans17.ltrans.o
airplaneConfig_Registry                           C:\cygwin64\tmp\ccWFxnfo.ltrans2.ltrans.o
alignSensors                                      C:\cygwin64\tmp\ccWFxnfo.ltrans7.ltrans.o
                                                  C:\cygwin64\tmp\ccWFxnfo.ltrans25.ltrans.o
                                                  C:\cygwin64\tmp\ccWFxnfo.ltrans19.ltrans.o
altHoldThrottleAdjustment                         C:\cygwin64\tmp\ccWFxnfo.ltrans2.ltrans.o
                                                  C:\cygwin64\tmp\ccWFxnfo.ltrans11.ltrans.o
                                                  C:\cygwin64\tmp\ccWFxnfo.ltrans4.ltrans.o
amperageMeterConfig_Registry                      C:\cygwin64\tmp\ccWFxnfo.ltrans2.ltrans.o
amperageMeterConfig_SystemArray                   C:\cygwin64\tmp\ccWFxnfo.ltrans2.ltrans.o
                                                  C:\cygwin64\tmp\ccWFxnfo.ltrans10.ltrans.o
                                                  C:\cygwin64\tmp\ccWFxnfo.ltrans1.ltrans.o
amperageMeters                                    C:\cygwin64\tmp\ccWFxnfo.ltrans1.ltrans.o
                                                  C:\cygwin64\tmp\ccWFxnfo.ltrans16.ltrans.o
                                                  C:\cygwin64\tmp\ccWFxnfo.ltrans12.ltrans.o
                                                  C:\cygwin64\tmp\ccWFxnfo.ltrans10.ltrans.o
                                                  C:\cygwin64\tmp\ccWFxnfo.ltrans3.ltrans.o
applyChangedBits                                  C:\cygwin64\tmp\ccWFxnfo.ltrans26.ltrans.o
                                                  C:\cygwin64\tmp\ccWFxnfo.ltrans21.ltrans.o
applyDeadband                                     C:\cygwin64\tmp\ccWFxnfo.ltrans14.ltrans.o
                                                  C:\cygwin64\tmp\ccWFxnfo.ltrans15.ltrans.o
                                                  C:\cygwin64\tmp\ccWFxnfo.ltrans11.ltrans.o
applyLarsonScannerLayer.8645                      C:\cygwin64\tmp\ccWFxnfo.ltrans11.ltrans.o
                                                  C:\cygwin64\tmp\ccWFxnfo.ltrans21.ltrans.o
applyLedBatteryLayer.8679                         C:\cygwin64\tmp\ccWFxnfo.ltrans12.ltrans.o
                                                  C:\cygwin64\tmp\ccWFxnfo.ltrans21.ltrans.o
applyLedBlinkLayer.8667                           C:\cygwin64\tmp\ccWFxnfo.ltrans21.ltrans.o
applyLedGpsLayer.8624                             C:\cygwin64\tmp\ccWFxnfo.ltrans12.ltrans.o
                                                  C:\cygwin64\tmp\ccWFxnfo.ltrans21.ltrans.o
applyLedHsv.8616                                  C:\cygwin64\tmp\ccWFxnfo.ltrans16.ltrans.o
                                                  C:\cygwin64\tmp\ccWFxnfo.ltrans12.ltrans.o
applyLedIndicatorLayer.8673                       C:\cygwin64\tmp\ccWFxnfo.ltrans21.ltrans.o
applyLedRssiLayer.8661                            C:\cygwin64\tmp\ccWFxnfo.ltrans16.ltrans.o
                                                  C:\cygwin64\tmp\ccWFxnfo.ltrans21.ltrans.o
applyLedThrustRingLayer.8612                      C:\cygwin64\tmp\ccWFxnfo.ltrans16.ltrans.o
                                                  C:\cygwin64\tmp\ccWFxnfo.ltrans21.ltrans.o
applyLedWarningLayer.8620                         C:\cygwin64\tmp\ccWFxnfo.ltrans12.ltrans.o
                                                  C:\cygwin64\tmp\ccWFxnfo.ltrans21.ltrans.o
armingBeepTimeMicros.15637                        C:\cygwin64\tmp\ccWFxnfo.ltrans27.ltrans.o
                                                  C:\cygwin64\tmp\ccWFxnfo.ltrans24.ltrans.o
                                                  C:\cygwin64\tmp\ccWFxnfo.ltrans9.ltrans.o
armingConfig_Registry                             C:\cygwin64\tmp\ccWFxnfo.ltrans4.ltrans.o
armingConfig_System                               C:\cygwin64\tmp\ccWFxnfo.ltrans4.ltrans.o
                                                  C:\cygwin64\tmp\ccWFxnfo.ltrans27.ltrans.o
                                                  C:\cygwin64\tmp\ccWFxnfo.ltrans25.ltrans.o
                                                  C:\cygwin64\tmp\ccWFxnfo.ltrans1.ltrans.o
armingFlags                                       C:\cygwin64\tmp\ccWFxnfo.ltrans0.ltrans.o
                                                  C:\cygwin64\tmp\ccWFxnfo.ltrans27.ltrans.o
                                                  C:\cygwin64\tmp\ccWFxnfo.ltrans24.ltrans.o
                                                  C:\cygwin64\tmp\ccWFxnfo.ltrans18.ltrans.o
                                                  C:\cygwin64\tmp\ccWFxnfo.ltrans16.ltrans.o
                                                  C:\cygwin64\tmp\ccWFxnfo.ltrans15.ltrans.o
                                                  C:\cygwin64\tmp\ccWFxnfo.ltrans12.ltrans.o
                                                  C:\cygwin64\tmp\ccWFxnfo.ltrans11.ltrans.o
                                                  C:\cygwin64\tmp\ccWFxnfo.ltrans10.ltrans.o
                                                  C:\cygwin64\tmp\ccWFxnfo.ltrans4.ltrans.o
                                                  C:\cygwin64\tmp\ccWFxnfo.ltrans3.ltrans.o
                                                  C:\cygwin64\tmp\ccWFxnfo.ltrans2.ltrans.o
                                                  C:\cygwin64\tmp\ccWFxnfo.ltrans1.ltrans.o
atan2f                                            C:\cygwin64\tmp\ccWFxnfo.ltrans31.ltrans.o
                                                  C:\cygwin64\tmp\ccWFxnfo.ltrans15.ltrans.o
                                                  C:\cygwin64\tmp\ccWFxnfo.ltrans7.ltrans.o
atoi                                              c:/dev/gcc-arm-none-eabi-4_8-2014q2/bin/../lib/gcc/arm-none-eabi/4.8.4/../../../../arm-none-eabi/lib/armv7-m\libc_s.a(lib_a-atoi.o)
                                                  C:\cygwin64\tmp\ccWFxnfo.ltrans28.ltrans.o
                                                  C:\cygwin64\tmp\ccWFxnfo.ltrans22.ltrans.o
                                                  C:\cygwin64\tmp\ccWFxnfo.ltrans21.ltrans.o
                                                  C:\cygwin64\tmp\ccWFxnfo.ltrans20.ltrans.o
                                                  C:\cygwin64\tmp\ccWFxnfo.ltrans15.ltrans.o
                                                  C:\cygwin64\tmp\ccWFxnfo.ltrans12.ltrans.o
                                                  C:\cygwin64\tmp\ccWFxnfo.ltrans8.ltrans.o
                                                  C:\cygwin64\tmp\ccWFxnfo.ltrans5.ltrans.o
attitude                                          C:\cygwin64\tmp\ccWFxnfo.ltrans2.ltrans.o
                                                  C:\cygwin64\tmp\ccWFxnfo.ltrans27.ltrans.o
                                                  C:\cygwin64\tmp\ccWFxnfo.ltrans15.ltrans.o
                                                  C:\cygwin64\tmp\ccWFxnfo.ltrans11.ltrans.o
                                                  C:\cygwin64\tmp\ccWFxnfo.ltrans7.ltrans.o
                                                  C:\cygwin64\tmp\ccWFxnfo.ltrans4.ltrans.o
                                                  C:\cygwin64\tmp\ccWFxnfo.ltrans3.ltrans.o
                                                  C:\cygwin64\tmp\ccWFxnfo.ltrans1.ltrans.o
averageSystemLoadPercent                          C:\cygwin64\tmp\ccWFxnfo.ltrans4.ltrans.o
                                                  C:\cygwin64\tmp\ccWFxnfo.ltrans19.ltrans.o
                                                  C:\cygwin64\tmp\ccWFxnfo.ltrans12.ltrans.o
                                                  C:\cygwin64\tmp\ccWFxnfo.ltrans6.ltrans.o
                                                  C:\cygwin64\tmp\ccWFxnfo.ltrans1.ltrans.o
axisPID_D                                         C:\cygwin64\tmp\ccWFxnfo.ltrans2.ltrans.o
                                                  C:\cygwin64\tmp\ccWFxnfo.ltrans16.ltrans.o
axisPID_I                                         C:\cygwin64\tmp\ccWFxnfo.ltrans2.ltrans.o
                                                  C:\cygwin64\tmp\ccWFxnfo.ltrans16.ltrans.o
axisPID_P                                         C:\cygwin64\tmp\ccWFxnfo.ltrans2.ltrans.o
                                                  C:\cygwin64\tmp\ccWFxnfo.ltrans16.ltrans.o
baro                                              C:\cygwin64\tmp\ccWFxnfo.ltrans17.ltrans.o
                                                  C:\cygwin64\tmp\ccWFxnfo.ltrans11.ltrans.o
baroTemperature                                   C:\cygwin64\tmp\ccWFxnfo.ltrans3.ltrans.o
                                                  C:\cygwin64\tmp\ccWFxnfo.ltrans11.ltrans.o
barometerConfig_Registry                          C:\cygwin64\tmp\ccWFxnfo.ltrans11.ltrans.o
batteryCapacityRemainingPercentage                C:\cygwin64\tmp\ccWFxnfo.ltrans12.ltrans.o
                                                  C:\cygwin64\tmp\ccWFxnfo.ltrans11.ltrans.o
                                                  C:\cygwin64\tmp\ccWFxnfo.ltrans3.ltrans.o
batteryCellCount                                  C:\cygwin64\tmp\ccWFxnfo.ltrans0.ltrans.o
                                                  C:\cygwin64\tmp\ccWFxnfo.ltrans12.ltrans.o
                                                  C:\cygwin64\tmp\ccWFxnfo.ltrans10.ltrans.o
                                                  C:\cygwin64\tmp\ccWFxnfo.ltrans3.ltrans.o
batteryConfig_Registry                            C:\cygwin64\tmp\ccWFxnfo.ltrans0.ltrans.o
batteryConfig_System                              C:\cygwin64\tmp\ccWFxnfo.ltrans0.ltrans.o
                                                  C:\cygwin64\tmp\ccWFxnfo.ltrans16.ltrans.o
                                                  C:\cygwin64\tmp\ccWFxnfo.ltrans12.ltrans.o
                                                  C:\cygwin64\tmp\ccWFxnfo.ltrans10.ltrans.o
                                                  C:\cygwin64\tmp\ccWFxnfo.ltrans3.ltrans.o
                                                  C:\cygwin64\tmp\ccWFxnfo.ltrans2.ltrans.o
                                                  C:\cygwin64\tmp\ccWFxnfo.ltrans1.ltrans.o
batteryCriticalVoltage                            C:\cygwin64\tmp\ccWFxnfo.ltrans0.ltrans.o
                                                  C:\cygwin64\tmp\ccWFxnfo.ltrans10.ltrans.o
batteryState.18311                                C:\cygwin64\tmp\ccWFxnfo.ltrans0.ltrans.o
                                                  C:\cygwin64\tmp\ccWFxnfo.ltrans12.ltrans.o
                                                  C:\cygwin64\tmp\ccWFxnfo.ltrans10.ltrans.o
                                                  C:\cygwin64\tmp\ccWFxnfo.ltrans3.ltrans.o
                                                  C:\cygwin64\tmp\ccWFxnfo.ltrans1.ltrans.o
batteryWarningVoltage                             C:\cygwin64\tmp\ccWFxnfo.ltrans0.ltrans.o
                                                  C:\cygwin64\tmp\ccWFxnfo.ltrans10.ltrans.o
baudRates                                         C:\cygwin64\tmp\ccWFxnfo.ltrans28.ltrans.o
                                                  C:\cygwin64\tmp\ccWFxnfo.ltrans27.ltrans.o
                                                  C:\cygwin64\tmp\ccWFxnfo.ltrans23.ltrans.o
                                                  C:\cygwin64\tmp\ccWFxnfo.ltrans22.ltrans.o
                                                  C:\cygwin64\tmp\ccWFxnfo.ltrans9.ltrans.o
beepInverted.15518                                C:\cygwin64\tmp\ccWFxnfo.ltrans7.ltrans.o
                                                  C:\cygwin64\tmp\ccWFxnfo.ltrans0.ltrans.o
beepNormal.15514                                  C:\cygwin64\tmp\ccWFxnfo.ltrans7.ltrans.o
                                                  C:\cygwin64\tmp\ccWFxnfo.ltrans0.ltrans.o
beep_2longerBeeps.15633                           C:\cygwin64\tmp\ccWFxnfo.ltrans24.ltrans.o
beep_2shortBeeps.15632                            C:\cygwin64\tmp\ccWFxnfo.ltrans24.ltrans.o
beep_armedBeep.15636                              C:\cygwin64\tmp\ccWFxnfo.ltrans24.ltrans.o
beep_armedGpsFix.15627                            C:\cygwin64\tmp\ccWFxnfo.ltrans24.ltrans.o
beep_armingBeep.15626                             C:\cygwin64\tmp\ccWFxnfo.ltrans24.ltrans.o
beep_critBatteryBeep.15628                        C:\cygwin64\tmp\ccWFxnfo.ltrans24.ltrans.o
beep_disarmBeep.15625                             C:\cygwin64\tmp\ccWFxnfo.ltrans24.ltrans.o
beep_disarmRepeatBeep.15635                       C:\cygwin64\tmp\ccWFxnfo.ltrans24.ltrans.o
beep_gyroCalibrated.15622                         C:\cygwin64\tmp\ccWFxnfo.ltrans24.ltrans.o
beep_lowBatteryBeep.15629                         C:\cygwin64\tmp\ccWFxnfo.ltrans24.ltrans.o
beep_multiBeeps.15630                             C:\cygwin64\tmp\ccWFxnfo.ltrans24.ltrans.o
                                                  C:\cygwin64\tmp\ccWFxnfo.ltrans10.ltrans.o
beep_readyBeep.15634                              C:\cygwin64\tmp\ccWFxnfo.ltrans24.ltrans.o
beep_shortBeep.15631                              C:\cygwin64\tmp\ccWFxnfo.ltrans24.ltrans.o
beep_sos.15623                                    C:\cygwin64\tmp\ccWFxnfo.ltrans24.ltrans.o
beep_txLostBeep.15624                             C:\cygwin64\tmp\ccWFxnfo.ltrans24.ltrans.o
beeper                                            C:\cygwin64\tmp\ccWFxnfo.ltrans10.ltrans.o
                                                  C:\cygwin64\tmp\ccWFxnfo.ltrans27.ltrans.o
                                                  C:\cygwin64\tmp\ccWFxnfo.ltrans25.ltrans.o
                                                  C:\cygwin64\tmp\ccWFxnfo.ltrans24.ltrans.o
                                                  C:\cygwin64\tmp\ccWFxnfo.ltrans19.ltrans.o
                                                  C:\cygwin64\tmp\ccWFxnfo.ltrans18.ltrans.o
                                                  C:\cygwin64\tmp\ccWFxnfo.ltrans4.ltrans.o
beeperConfirmationBeeps                           C:\cygwin64\tmp\ccWFxnfo.ltrans10.ltrans.o
                                                  C:\cygwin64\tmp\ccWFxnfo.ltrans27.ltrans.o
                                                  C:\cygwin64\tmp\ccWFxnfo.ltrans25.ltrans.o
                                                  C:\cygwin64\tmp\ccWFxnfo.ltrans4.ltrans.o
beeperIsOn.15609                                  C:\cygwin64\tmp\ccWFxnfo.ltrans24.ltrans.o
                                                  C:\cygwin64\tmp\ccWFxnfo.ltrans10.ltrans.o
beeperNextToggleTime.15610                        C:\cygwin64\tmp\ccWFxnfo.ltrans24.ltrans.o
                                                  C:\cygwin64\tmp\ccWFxnfo.ltrans10.ltrans.o
beeperPos.15611                                   C:\cygwin64\tmp\ccWFxnfo.ltrans24.ltrans.o
                                                  C:\cygwin64\tmp\ccWFxnfo.ltrans10.ltrans.o
beeperSilence                                     C:\cygwin64\tmp\ccWFxnfo.ltrans10.ltrans.o
                                                  C:\cygwin64\tmp\ccWFxnfo.ltrans24.ltrans.o
                                                  C:\cygwin64\tmp\ccWFxnfo.ltrans20.ltrans.o
                                                  C:\cygwin64\tmp\ccWFxnfo.ltrans19.ltrans.o
                                                  C:\cygwin64\tmp\ccWFxnfo.ltrans4.ltrans.o
beeperTable.15621                                 C:\cygwin64\tmp\ccWFxnfo.ltrans24.ltrans.o
                                                  C:\cygwin64\tmp\ccWFxnfo.ltrans10.ltrans.o
biquadFilterApply                                 C:\cygwin64\tmp\ccWFxnfo.ltrans14.ltrans.o
                                                  C:\cygwin64\tmp\ccWFxnfo.ltrans25.ltrans.o
                                                  C:\cygwin64\tmp\ccWFxnfo.ltrans19.ltrans.o
                                                  C:\cygwin64\tmp\ccWFxnfo.ltrans10.ltrans.o
                                                  C:\cygwin64\tmp\ccWFxnfo.ltrans2.ltrans.o
biquadFilterCalculateNotchQ.19247                 C:\cygwin64\tmp\ccWFxnfo.ltrans14.ltrans.o
                                                  C:\cygwin64\tmp\ccWFxnfo.ltrans17.ltrans.o
                                                  C:\cygwin64\tmp\ccWFxnfo.ltrans15.ltrans.o
biquadFilterInit.19253                            C:\cygwin64\tmp\ccWFxnfo.ltrans14.ltrans.o
                                                  C:\cygwin64\tmp\ccWFxnfo.ltrans17.ltrans.o
                                                  C:\cygwin64\tmp\ccWFxnfo.ltrans15.ltrans.o
biquadFilterInitLPF                               C:\cygwin64\tmp\ccWFxnfo.ltrans14.ltrans.o
                                                  C:\cygwin64\tmp\ccWFxnfo.ltrans25.ltrans.o
                                                  C:\cygwin64\tmp\ccWFxnfo.ltrans17.ltrans.o
                                                  C:\cygwin64\tmp\ccWFxnfo.ltrans15.ltrans.o
                                                  C:\cygwin64\tmp\ccWFxnfo.ltrans0.ltrans.o
blackboxAdvanceIterationTimers.10740              C:\cygwin64\tmp\ccWFxnfo.ltrans7.ltrans.o
                                                  C:\cygwin64\tmp\ccWFxnfo.ltrans2.ltrans.o
blackboxConditionCache.10844                      C:\cygwin64\tmp\ccWFxnfo.ltrans2.ltrans.o
                                                  C:\cygwin64\tmp\ccWFxnfo.ltrans27.ltrans.o
                                                  C:\cygwin64\tmp\ccWFxnfo.ltrans18.ltrans.o
                                                  C:\cygwin64\tmp\ccWFxnfo.ltrans9.ltrans.o
blackboxConfig_Registry                           C:\cygwin64\tmp\ccWFxnfo.ltrans2.ltrans.o
blackboxConfig_System                             C:\cygwin64\tmp\ccWFxnfo.ltrans2.ltrans.o
                                                  C:\cygwin64\tmp\ccWFxnfo.ltrans27.ltrans.o
                                                  C:\cygwin64\tmp\ccWFxnfo.ltrans21.ltrans.o
                                                  C:\cygwin64\tmp\ccWFxnfo.ltrans18.ltrans.o
                                                  C:\cygwin64\tmp\ccWFxnfo.ltrans9.ltrans.o
                                                  C:\cygwin64\tmp\ccWFxnfo.ltrans1.ltrans.o
blackboxDeviceFlushForce                          C:\cygwin64\tmp\ccWFxnfo.ltrans18.ltrans.o
                                                  C:\cygwin64\tmp\ccWFxnfo.ltrans2.ltrans.o
blackboxDeviceReserveBufferSpace                  C:\cygwin64\tmp\ccWFxnfo.ltrans18.ltrans.o
                                                  C:\cygwin64\tmp\ccWFxnfo.ltrans2.ltrans.o
blackboxHeaderBudget                              C:\cygwin64\tmp\ccWFxnfo.ltrans0.ltrans.o
                                                  C:\cygwin64\tmp\ccWFxnfo.ltrans18.ltrans.o
                                                  C:\cygwin64\tmp\ccWFxnfo.ltrans2.ltrans.o
blackboxHistory.10899                             C:\cygwin64\tmp\ccWFxnfo.ltrans27.ltrans.o
                                                  C:\cygwin64\tmp\ccWFxnfo.ltrans18.ltrans.o
                                                  C:\cygwin64\tmp\ccWFxnfo.ltrans16.ltrans.o
                                                  C:\cygwin64\tmp\ccWFxnfo.ltrans9.ltrans.o
blackboxHistoryRing.10983                         C:\cygwin64\tmp\ccWFxnfo.ltrans27.ltrans.o
                                                  C:\cygwin64\tmp\ccWFxnfo.ltrans9.ltrans.o
blackboxIFrameIndex.10998                         C:\cygwin64\tmp\ccWFxnfo.ltrans27.ltrans.o
                                                  C:\cygwin64\tmp\ccWFxnfo.ltrans9.ltrans.o
                                                  C:\cygwin64\tmp\ccWFxnfo.ltrans7.ltrans.o
blackboxIteration.10982                           C:\cygwin64\tmp\ccWFxnfo.ltrans2.ltrans.o
                                                  C:\cygwin64\tmp\ccWFxnfo.ltrans27.ltrans.o
                                                  C:\cygwin64\tmp\ccWFxnfo.ltrans9.ltrans.o
                                                  C:\cygwin64\tmp\ccWFxnfo.ltrans7.ltrans.o
blackboxLastArmingBeep.11004                      C:\cygwin64\tmp\ccWFxnfo.ltrans27.ltrans.o
                                                  C:\cygwin64\tmp\ccWFxnfo.ltrans9.ltrans.o
blackboxLogEvent                                  C:\cygwin64\tmp\ccWFxnfo.ltrans18.ltrans.o
                                                  C:\cygwin64\tmp\ccWFxnfo.ltrans9.ltrans.o
                                                  C:\cygwin64\tmp\ccWFxnfo.ltrans2.ltrans.o
blackboxLogInflightAdjustmentEvent                C:\cygwin64\tmp\ccWFxnfo.ltrans18.ltrans.o
                                                  C:\cygwin64\tmp\ccWFxnfo.ltrans4.ltrans.o
blackboxLogIteration.10760                        C:\cygwin64\tmp\ccWFxnfo.ltrans9.ltrans.o
                                                  C:\cygwin64\tmp\ccWFxnfo.ltrans2.ltrans.o
blackboxLoggedAnyFrames.10888                     C:\cygwin64\tmp\ccWFxnfo.ltrans0.ltrans.o
                                                  C:\cygwin64\tmp\ccWFxnfo.ltrans27.ltrans.o
                                                  C:\cygwin64\tmp\ccWFxnfo.ltrans9.ltrans.o
blackboxMaxHeaderBytesPerIteration.11276          C:\cygwin64\tmp\ccWFxnfo.ltrans2.ltrans.o
                                                  C:\cygwin64\tmp\ccWFxnfo.ltrans27.ltrans.o
blackboxModeActivationConditionPresent.11003      C:\cygwin64\tmp\ccWFxnfo.ltrans2.ltrans.o
                                                  C:\cygwin64\tmp\ccWFxnfo.ltrans27.ltrans.o
blackboxPFrameIndex.10997                         C:\cygwin64\tmp\ccWFxnfo.ltrans2.ltrans.o
                                                  C:\cygwin64\tmp\ccWFxnfo.ltrans27.ltrans.o
                                                  C:\cygwin64\tmp\ccWFxnfo.ltrans9.ltrans.o
                                                  C:\cygwin64\tmp\ccWFxnfo.ltrans7.ltrans.o
blackboxPort.11272                                C:\cygwin64\tmp\ccWFxnfo.ltrans2.ltrans.o
                                                  C:\cygwin64\tmp\ccWFxnfo.ltrans27.ltrans.o
                                                  C:\cygwin64\tmp\ccWFxnfo.ltrans18.ltrans.o
blackboxPortSharing.11273                         C:\cygwin64\tmp\ccWFxnfo.ltrans2.ltrans.o
                                                  C:\cygwin64\tmp\ccWFxnfo.ltrans27.ltrans.o
blackboxPrintf                                    C:\cygwin64\tmp\ccWFxnfo.ltrans21.ltrans.o
                                                  C:\cygwin64\tmp\ccWFxnfo.ltrans18.ltrans.o
blackboxPrintfHeaderLine                          C:\cygwin64\tmp\ccWFxnfo.ltrans18.ltrans.o
                                                  C:\cygwin64\tmp\ccWFxnfo.ltrans2.ltrans.o
blackboxSlowFrameIterationTimer.10897             C:\cygwin64\tmp\ccWFxnfo.ltrans0.ltrans.o
                                                  C:\cygwin64\tmp\ccWFxnfo.ltrans9.ltrans.o
                                                  C:\cygwin64\tmp\ccWFxnfo.ltrans7.ltrans.o
                                                  C:\cygwin64\tmp\ccWFxnfo.ltrans2.ltrans.o
blackboxState.10898                               C:\cygwin64\tmp\ccWFxnfo.ltrans0.ltrans.o
                                                  C:\cygwin64\tmp\ccWFxnfo.ltrans27.ltrans.o
                                                  C:\cygwin64\tmp\ccWFxnfo.ltrans18.ltrans.o
                                                  C:\cygwin64\tmp\ccWFxnfo.ltrans2.ltrans.o
                                                  C:\cygwin64\tmp\ccWFxnfo.ltrans1.ltrans.o
blackboxWrite                                     C:\cygwin64\tmp\ccWFxnfo.ltrans18.ltrans.o
                                                  C:\cygwin64\tmp\ccWFxnfo.ltrans9.ltrans.o
                                                  C:\cygwin64\tmp\ccWFxnfo.ltrans2.ltrans.o
blackboxWriteMainStateArrayUsingAveragePredictor.10705 C:\cygwin64\tmp\ccWFxnfo.ltrans18.ltrans.o
                                                  C:\cygwin64\tmp\ccWFxnfo.ltrans9.ltrans.o
blackboxWriteSigned16VBArray.constprop.57         C:\cygwin64\tmp\ccWFxnfo.ltrans18.ltrans.o
                                                  C:\cygwin64\tmp\ccWFxnfo.ltrans9.ltrans.o
blackboxWriteSignedVB                             C:\cygwin64\tmp\ccWFxnfo.ltrans18.ltrans.o
                                                  C:\cygwin64\tmp\ccWFxnfo.ltrans9.ltrans.o
blackboxWriteSignedVBArray.constprop.56           C:\cygwin64\tmp\ccWFxnfo.ltrans18.ltrans.o
                                                  C:\cygwin64\tmp\ccWFxnfo.ltrans9.ltrans.o
blackboxWriteTag2_3S32                            C:\cygwin64\tmp\ccWFxnfo.ltrans18.ltrans.o
                                                  C:\cygwin64\tmp\ccWFxnfo.ltrans9.ltrans.o
blackboxWriteUnsignedVB                           C:\cygwin64\tmp\ccWFxnfo.ltrans18.ltrans.o
                                                  C:\cygwin64\tmp\ccWFxnfo.ltrans9.ltrans.o
blinkMask.16935                                   C:\cygwin64\tmp\ccWFxnfo.ltrans4.ltrans.o
                                                  C:\cygwin64\tmp\ccWFxnfo.ltrans24.ltrans.o
                                                  C:\cygwin64\tmp\ccWFxnfo.ltrans10.ltrans.o
bma280Init.4874                                   C:\cygwin64\tmp\ccWFxnfo.ltrans13.ltrans.o
                                                  C:\cygwin64\tmp\ccWFxnfo.ltrans17.ltrans.o
bma280Read.4868                                   C:\cygwin64\tmp\ccWFxnfo.ltrans13.ltrans.o
                                                  C:\cygwin64\tmp\ccWFxnfo.ltrans17.ltrans.o
bmp085.5517                                       C:\cygwin64\tmp\ccWFxnfo.ltrans17.ltrans.o
                                                  C:\cygwin64\tmp\ccWFxnfo.ltrans26.ltrans.o
                                                  C:\cygwin64\tmp\ccWFxnfo.ltrans13.ltrans.o
bmp085InitXCLRGpio                                C:\cygwin64\tmp\ccWFxnfo.ltrans12.ltrans.o
                                                  C:\cygwin64\tmp\ccWFxnfo.ltrans17.ltrans.o
bmp085_calculate.5448                             C:\cygwin64\tmp\ccWFxnfo.ltrans26.ltrans.o
                                                  C:\cygwin64\tmp\ccWFxnfo.ltrans17.ltrans.o
bmp085_extiHandler                                C:\cygwin64\tmp\ccWFxnfo.ltrans26.ltrans.o
                                                  C:\cygwin64\tmp\ccWFxnfo.ltrans17.ltrans.o
bmp085_get_up.5460                                C:\cygwin64\tmp\ccWFxnfo.ltrans13.ltrans.o
                                                  C:\cygwin64\tmp\ccWFxnfo.ltrans17.ltrans.o
bmp085_get_ut.5464                                C:\cygwin64\tmp\ccWFxnfo.ltrans13.ltrans.o
                                                  C:\cygwin64\tmp\ccWFxnfo.ltrans17.ltrans.o
bmp085_start_up.5454                              C:\cygwin64\tmp\ccWFxnfo.ltrans13.ltrans.o
                                                  C:\cygwin64\tmp\ccWFxnfo.ltrans17.ltrans.o
bmp085_start_ut.5456                              C:\cygwin64\tmp\ccWFxnfo.ltrans13.ltrans.o
                                                  C:\cygwin64\tmp\ccWFxnfo.ltrans17.ltrans.o
bmp085_up.5544                                    C:\cygwin64\tmp\ccWFxnfo.ltrans13.ltrans.o
                                                  C:\cygwin64\tmp\ccWFxnfo.ltrans26.ltrans.o
bmp085_ut.5543                                    C:\cygwin64\tmp\ccWFxnfo.ltrans13.ltrans.o
                                                  C:\cygwin64\tmp\ccWFxnfo.ltrans26.ltrans.o
bmp280_cal.5681                                   C:\cygwin64\tmp\ccWFxnfo.ltrans17.ltrans.o
                                                  C:\cygwin64\tmp\ccWFxnfo.ltrans26.ltrans.o
bmp280_calculate.5652                             C:\cygwin64\tmp\ccWFxnfo.ltrans26.ltrans.o
                                                  C:\cygwin64\tmp\ccWFxnfo.ltrans17.ltrans.o
bmp280_get_up.5656                                C:\cygwin64\tmp\ccWFxnfo.ltrans13.ltrans.o
                                                  C:\cygwin64\tmp\ccWFxnfo.ltrans17.ltrans.o
bmp280_get_ut.5644                                C:\cygwin64\tmp\ccWFxnfo.ltrans26.ltrans.o
                                                  C:\cygwin64\tmp\ccWFxnfo.ltrans17.ltrans.o
bmp280_start_up.5658                              C:\cygwin64\tmp\ccWFxnfo.ltrans13.ltrans.o
                                                  C:\cygwin64\tmp\ccWFxnfo.ltrans17.ltrans.o
bmp280_start_ut.5642                              C:\cygwin64\tmp\ccWFxnfo.ltrans26.ltrans.o
                                                  C:\cygwin64\tmp\ccWFxnfo.ltrans17.ltrans.o
bmp280_up.5684                                    C:\cygwin64\tmp\ccWFxnfo.ltrans13.ltrans.o
                                                  C:\cygwin64\tmp\ccWFxnfo.ltrans26.ltrans.o
bmp280_ut.5683                                    C:\cygwin64\tmp\ccWFxnfo.ltrans13.ltrans.o
                                                  C:\cygwin64\tmp\ccWFxnfo.ltrans26.ltrans.o
boardAlignment_Registry                           C:\cygwin64\tmp\ccWFxnfo.ltrans0.ltrans.o
boardAlignment_System                             C:\cygwin64\tmp\ccWFxnfo.ltrans0.ltrans.o
                                                  C:\cygwin64\tmp\ccWFxnfo.ltrans1.ltrans.o
boardRotation.18527                               C:\cygwin64\tmp\ccWFxnfo.ltrans0.ltrans.o
                                                  C:\cygwin64\tmp\ccWFxnfo.ltrans7.ltrans.o
boxes.13594                                       C:\cygwin64\tmp\ccWFxnfo.ltrans1.ltrans.o
                                                  C:\cygwin64\tmp\ccWFxnfo.ltrans7.ltrans.o
bufWriterFlush                                    C:\cygwin64\tmp\ccWFxnfo.ltrans14.ltrans.o
                                                  C:\cygwin64\tmp\ccWFxnfo.ltrans28.ltrans.o
                                                  C:\cygwin64\tmp\ccWFxnfo.ltrans12.ltrans.o
                                                  C:\cygwin64\tmp\ccWFxnfo.ltrans10.ltrans.o
bufferHead.7709                                   C:\cygwin64\tmp\ccWFxnfo.ltrans18.ltrans.o
                                                  C:\cygwin64\tmp\ccWFxnfo.ltrans21.ltrans.o
                                                  C:\cygwin64\tmp\ccWFxnfo.ltrans7.ltrans.o
bufferIndex.16747                                 C:\cygwin64\tmp\ccWFxnfo.ltrans28.ltrans.o
                                                  C:\cygwin64\tmp\ccWFxnfo.ltrans12.ltrans.o
bufferTail.7710                                   C:\cygwin64\tmp\ccWFxnfo.ltrans18.ltrans.o
                                                  C:\cygwin64\tmp\ccWFxnfo.ltrans21.ltrans.o
                                                  C:\cygwin64\tmp\ccWFxnfo.ltrans7.ltrans.o
buildDate                                         C:\cygwin64\tmp\ccWFxnfo.ltrans2.ltrans.o
buildTime                                         C:\cygwin64\tmp\ccWFxnfo.ltrans2.ltrans.o
busy.4277                                         C:\cygwin64\tmp\ccWFxnfo.ltrans13.ltrans.o
                                                  C:\cygwin64\tmp\ccWFxnfo.ltrans16.ltrans.o
bytes.4271                                        C:\cygwin64\tmp\ccWFxnfo.ltrans13.ltrans.o
                                                  C:\cygwin64\tmp\ccWFxnfo.ltrans16.ltrans.o
cachedRccCsrValue                                 C:\cygwin64\tmp\ccWFxnfo.ltrans0.ltrans.o
                                                  C:\cygwin64\tmp\ccWFxnfo.ltrans9.ltrans.o
calculateMotorOff                                 C:\cygwin64\tmp\ccWFxnfo.ltrans12.ltrans.o
                                                  C:\cygwin64\tmp\ccWFxnfo.ltrans0.ltrans.o
calculateThrottleStatus.constprop.61              C:\cygwin64\tmp\ccWFxnfo.ltrans12.ltrans.o
                                                  C:\cygwin64\tmp\ccWFxnfo.ltrans10.ltrans.o
                                                  C:\cygwin64\tmp\ccWFxnfo.ltrans4.ltrans.o
                                                  C:\cygwin64\tmp\ccWFxnfo.ltrans3.ltrans.o
calculatedAltitude.10506                          C:\cygwin64\tmp\ccWFxnfo.ltrans0.ltrans.o
                                                  C:\cygwin64\tmp\ccWFxnfo.ltrans11.ltrans.o
                                                  C:\cygwin64\tmp\ccWFxnfo.ltrans1.ltrans.o
calibratingA                                      C:\cygwin64\tmp\ccWFxnfo.ltrans0.ltrans.o
                                                  C:\cygwin64\tmp\ccWFxnfo.ltrans25.ltrans.o
                                                  C:\cygwin64\tmp\ccWFxnfo.ltrans11.ltrans.o
                                                  C:\cygwin64\tmp\ccWFxnfo.ltrans4.ltrans.o
                                                  C:\cygwin64\tmp\ccWFxnfo.ltrans1.ltrans.o
calibratingB                                      C:\cygwin64\tmp\ccWFxnfo.ltrans0.ltrans.o
                                                  C:\cygwin64\tmp\ccWFxnfo.ltrans11.ltrans.o
                                                  C:\cygwin64\tmp\ccWFxnfo.ltrans4.ltrans.o
calibratingG.18723                                C:\cygwin64\tmp\ccWFxnfo.ltrans0.ltrans.o
                                                  C:\cygwin64\tmp\ccWFxnfo.ltrans19.ltrans.o
                                                  C:\cygwin64\tmp\ccWFxnfo.ltrans11.ltrans.o
                                                  C:\cygwin64\tmp\ccWFxnfo.ltrans4.ltrans.o
captures.6901                                     C:\cygwin64\tmp\ccWFxnfo.ltrans15.ltrans.o
                                                  C:\cygwin64\tmp\ccWFxnfo.ltrans26.ltrans.o
                                                  C:\cygwin64\tmp\ccWFxnfo.ltrans7.ltrans.o
                                                  C:\cygwin64\tmp\ccWFxnfo.ltrans6.ltrans.o
cfTasks                                           C:\cygwin64\tmp\ccWFxnfo.ltrans0.ltrans.o
                                                  C:\cygwin64\tmp\ccWFxnfo.ltrans23.ltrans.o
                                                  C:\cygwin64\tmp\ccWFxnfo.ltrans22.ltrans.o
                                                  C:\cygwin64\tmp\ccWFxnfo.ltrans6.ltrans.o
                                                  C:\cygwin64\tmp\ccWFxnfo.ltrans2.ltrans.o
changeProfile                                     C:\cygwin64\tmp\ccWFxnfo.ltrans25.ltrans.o
                                                  C:\cygwin64\tmp\ccWFxnfo.ltrans20.ltrans.o
                                                  C:\cygwin64\tmp\ccWFxnfo.ltrans4.ltrans.o
                                                  C:\cygwin64\tmp\ccWFxnfo.ltrans1.ltrans.o
channelRanges_Registry                            C:\cygwin64\tmp\ccWFxnfo.ltrans4.ltrans.o
                                                  C:\cygwin64\tmp\ccWFxnfo.ltrans8.ltrans.o
channelRanges_SystemArray                         C:\cygwin64\tmp\ccWFxnfo.ltrans4.ltrans.o
                                                  C:\cygwin64\tmp\ccWFxnfo.ltrans8.ltrans.o
ckSumOut.16234                                    C:\cygwin64\tmp\ccWFxnfo.ltrans22.ltrans.o
                                                  C:\cygwin64\tmp\ccWFxnfo.ltrans19.ltrans.o
cleanup_glue                                      c:/dev/gcc-arm-none-eabi-4_8-2014q2/bin/../lib/gcc/arm-none-eabi/4.8.4/../../../../arm-none-eabi/lib/armv7-m\libc_s.a(lib_a-reent.o)
cliAdjustmentRange.16471                          C:\cygwin64\tmp\ccWFxnfo.ltrans12.ltrans.o
                                                  C:\cygwin64\tmp\ccWFxnfo.ltrans28.ltrans.o
                                                  C:\cygwin64\tmp\ccWFxnfo.ltrans20.ltrans.o
cliAux.16465                                      C:\cygwin64\tmp\ccWFxnfo.ltrans12.ltrans.o
                                                  C:\cygwin64\tmp\ccWFxnfo.ltrans28.ltrans.o
                                                  C:\cygwin64\tmp\ccWFxnfo.ltrans20.ltrans.o
cliBuffer.16655                                   C:\cygwin64\tmp\ccWFxnfo.ltrans28.ltrans.o
                                                  C:\cygwin64\tmp\ccWFxnfo.ltrans12.ltrans.o
cliColor.16497                                    C:\cygwin64\tmp\ccWFxnfo.ltrans5.ltrans.o
                                                  C:\cygwin64\tmp\ccWFxnfo.ltrans28.ltrans.o
                                                  C:\cygwin64\tmp\ccWFxnfo.ltrans20.ltrans.o
cliDefaults.16442                                 C:\cygwin64\tmp\ccWFxnfo.ltrans15.ltrans.o
                                                  C:\cygwin64\tmp\ccWFxnfo.ltrans28.ltrans.o
cliDump.16500                                     C:\cygwin64\tmp\ccWFxnfo.ltrans20.ltrans.o
                                                  C:\cygwin64\tmp\ccWFxnfo.ltrans28.ltrans.o
cliExit.16439                                     C:\cygwin64\tmp\ccWFxnfo.ltrans12.ltrans.o
                                                  C:\cygwin64\tmp\ccWFxnfo.ltrans28.ltrans.o
cliFeature.16436                                  C:\cygwin64\tmp\ccWFxnfo.ltrans9.ltrans.o
                                                  C:\cygwin64\tmp\ccWFxnfo.ltrans28.ltrans.o
cliFlashErase.16433                               C:\cygwin64\tmp\ccWFxnfo.ltrans24.ltrans.o
                                                  C:\cygwin64\tmp\ccWFxnfo.ltrans28.ltrans.o
cliFlashInfo.16430                                C:\cygwin64\tmp\ccWFxnfo.ltrans16.ltrans.o
                                                  C:\cygwin64\tmp\ccWFxnfo.ltrans28.ltrans.o
cliGet.16390                                      C:\cygwin64\tmp\ccWFxnfo.ltrans8.ltrans.o
                                                  C:\cygwin64\tmp\ccWFxnfo.ltrans28.ltrans.o
                                                  C:\cygwin64\tmp\ccWFxnfo.ltrans5.ltrans.o
cliGpsPassthrough.16427                           C:\cygwin64\tmp\ccWFxnfo.ltrans19.ltrans.o
                                                  C:\cygwin64\tmp\ccWFxnfo.ltrans28.ltrans.o
cliHelp.16332                                     C:\cygwin64\tmp\ccWFxnfo.ltrans8.ltrans.o
                                                  C:\cygwin64\tmp\ccWFxnfo.ltrans28.ltrans.o
cliLed.16486                                      C:\cygwin64\tmp\ccWFxnfo.ltrans21.ltrans.o
                                                  C:\cygwin64\tmp\ccWFxnfo.ltrans28.ltrans.o
                                                  C:\cygwin64\tmp\ccWFxnfo.ltrans20.ltrans.o
cliMap.16424                                      C:\cygwin64\tmp\ccWFxnfo.ltrans5.ltrans.o
                                                  C:\cygwin64\tmp\ccWFxnfo.ltrans28.ltrans.o
cliMixer.16447                                    C:\cygwin64\tmp\ccWFxnfo.ltrans5.ltrans.o
                                                  C:\cygwin64\tmp\ccWFxnfo.ltrans28.ltrans.o
cliMode                                           C:\cygwin64\tmp\ccWFxnfo.ltrans2.ltrans.o
                                                  C:\cygwin64\tmp\ccWFxnfo.ltrans28.ltrans.o
                                                  C:\cygwin64\tmp\ccWFxnfo.ltrans12.ltrans.o
                                                  C:\cygwin64\tmp\ccWFxnfo.ltrans4.ltrans.o
                                                  C:\cygwin64\tmp\ccWFxnfo.ltrans3.ltrans.o
                                                  C:\cygwin64\tmp\ccWFxnfo.ltrans1.ltrans.o
cliModeColor.16492                                C:\cygwin64\tmp\ccWFxnfo.ltrans5.ltrans.o
                                                  C:\cygwin64\tmp\ccWFxnfo.ltrans28.ltrans.o
                                                  C:\cygwin64\tmp\ccWFxnfo.ltrans20.ltrans.o
cliMotor.16418                                    C:\cygwin64\tmp\ccWFxnfo.ltrans5.ltrans.o
                                                  C:\cygwin64\tmp\ccWFxnfo.ltrans28.ltrans.o
cliMotorMix.16421                                 C:\cygwin64\tmp\ccWFxnfo.ltrans5.ltrans.o
                                                  C:\cygwin64\tmp\ccWFxnfo.ltrans28.ltrans.o
cliPort.16730                                     C:\cygwin64\tmp\ccWFxnfo.ltrans28.ltrans.o
                                                  C:\cygwin64\tmp\ccWFxnfo.ltrans19.ltrans.o
                                                  C:\cygwin64\tmp\ccWFxnfo.ltrans12.ltrans.o
                                                  C:\cygwin64\tmp\ccWFxnfo.ltrans1.ltrans.o
cliPrint.16327                                    C:\cygwin64\tmp\ccWFxnfo.ltrans14.ltrans.o
                                                  C:\cygwin64\tmp\ccWFxnfo.ltrans28.ltrans.o
                                                  C:\cygwin64\tmp\ccWFxnfo.ltrans22.ltrans.o
                                                  C:\cygwin64\tmp\ccWFxnfo.ltrans20.ltrans.o
                                                  C:\cygwin64\tmp\ccWFxnfo.ltrans15.ltrans.o
                                                  C:\cygwin64\tmp\ccWFxnfo.ltrans12.ltrans.o
                                                  C:\cygwin64\tmp\ccWFxnfo.ltrans9.ltrans.o
                                                  C:\cygwin64\tmp\ccWFxnfo.ltrans8.ltrans.o
                                                  C:\cygwin64\tmp\ccWFxnfo.ltrans5.ltrans.o
                                                  C:\cygwin64\tmp\ccWFxnfo.ltrans1.ltrans.o
cliPrintVar.16383                                 C:\cygwin64\tmp\ccWFxnfo.ltrans8.ltrans.o
                                                  C:\cygwin64\tmp\ccWFxnfo.ltrans5.ltrans.o
cliPrintf.16316                                   C:\cygwin64\tmp\ccWFxnfo.ltrans8.ltrans.o
                                                  C:\cygwin64\tmp\ccWFxnfo.ltrans24.ltrans.o
                                                  C:\cygwin64\tmp\ccWFxnfo.ltrans22.ltrans.o
                                                  C:\cygwin64\tmp\ccWFxnfo.ltrans21.ltrans.o
                                                  C:\cygwin64\tmp\ccWFxnfo.ltrans20.ltrans.o
                                                  C:\cygwin64\tmp\ccWFxnfo.ltrans16.ltrans.o
                                                  C:\cygwin64\tmp\ccWFxnfo.ltrans15.ltrans.o
                                                  C:\cygwin64\tmp\ccWFxnfo.ltrans12.ltrans.o
                                                  C:\cygwin64\tmp\ccWFxnfo.ltrans9.ltrans.o
                                                  C:\cygwin64\tmp\ccWFxnfo.ltrans5.ltrans.o
cliProfile.16481                                  C:\cygwin64\tmp\ccWFxnfo.ltrans20.ltrans.o
                                                  C:\cygwin64\tmp\ccWFxnfo.ltrans28.ltrans.o
cliPrompt.16396                                   C:\cygwin64\tmp\ccWFxnfo.ltrans14.ltrans.o
                                                  C:\cygwin64\tmp\ccWFxnfo.ltrans28.ltrans.o
                                                  C:\cygwin64\tmp\ccWFxnfo.ltrans1.ltrans.o
cliPutp.16311                                     C:\cygwin64\tmp\ccWFxnfo.ltrans10.ltrans.o
                                                  C:\cygwin64\tmp\ccWFxnfo.ltrans8.ltrans.o
cliRateProfile.16476                              C:\cygwin64\tmp\ccWFxnfo.ltrans15.ltrans.o
                                                  C:\cygwin64\tmp\ccWFxnfo.ltrans28.ltrans.o
                                                  C:\cygwin64\tmp\ccWFxnfo.ltrans20.ltrans.o
cliReboot.16398                                   C:\cygwin64\tmp\ccWFxnfo.ltrans12.ltrans.o
                                                  C:\cygwin64\tmp\ccWFxnfo.ltrans22.ltrans.o
                                                  C:\cygwin64\tmp\ccWFxnfo.ltrans15.ltrans.o
cliRxFail.16403                                   C:\cygwin64\tmp\ccWFxnfo.ltrans12.ltrans.o
                                                  C:\cygwin64\tmp\ccWFxnfo.ltrans28.ltrans.o
                                                  C:\cygwin64\tmp\ccWFxnfo.ltrans20.ltrans.o
cliRxRange.16415                                  C:\cygwin64\tmp\ccWFxnfo.ltrans8.ltrans.o
                                                  C:\cygwin64\tmp\ccWFxnfo.ltrans28.ltrans.o
                                                  C:\cygwin64\tmp\ccWFxnfo.ltrans20.ltrans.o
cliSave.16400                                     C:\cygwin64\tmp\ccWFxnfo.ltrans22.ltrans.o
                                                  C:\cygwin64\tmp\ccWFxnfo.ltrans28.ltrans.o
cliSerial.16393                                   C:\cygwin64\tmp\ccWFxnfo.ltrans22.ltrans.o
                                                  C:\cygwin64\tmp\ccWFxnfo.ltrans28.ltrans.o
                                                  C:\cygwin64\tmp\ccWFxnfo.ltrans20.ltrans.o
cliSerialPassthrough.16459                        C:\cygwin64\tmp\ccWFxnfo.ltrans28.ltrans.o
cliServo.16347                                    C:\cygwin64\tmp\ccWFxnfo.ltrans8.ltrans.o
                                                  C:\cygwin64\tmp\ccWFxnfo.ltrans28.ltrans.o
                                                  C:\cygwin64\tmp\ccWFxnfo.ltrans20.ltrans.o
cliServoMix.16344                                 C:\cygwin64\tmp\ccWFxnfo.ltrans8.ltrans.o
                                                  C:\cygwin64\tmp\ccWFxnfo.ltrans28.ltrans.o
cliSet.16453                                      C:\cygwin64\tmp\ccWFxnfo.ltrans5.ltrans.o
                                                  C:\cygwin64\tmp\ccWFxnfo.ltrans28.ltrans.o
cliShowArgumentRangeError.16322                   C:\cygwin64\tmp\ccWFxnfo.ltrans8.ltrans.o
                                                  C:\cygwin64\tmp\ccWFxnfo.ltrans21.ltrans.o
                                                  C:\cygwin64\tmp\ccWFxnfo.ltrans12.ltrans.o
                                                  C:\cygwin64\tmp\ccWFxnfo.ltrans5.ltrans.o
cliShowParseError.16330                           C:\cygwin64\tmp\ccWFxnfo.ltrans14.ltrans.o
                                                  C:\cygwin64\tmp\ccWFxnfo.ltrans28.ltrans.o
                                                  C:\cygwin64\tmp\ccWFxnfo.ltrans22.ltrans.o
                                                  C:\cygwin64\tmp\ccWFxnfo.ltrans21.ltrans.o
                                                  C:\cygwin64\tmp\ccWFxnfo.ltrans12.ltrans.o
                                                  C:\cygwin64\tmp\ccWFxnfo.ltrans8.ltrans.o
                                                  C:\cygwin64\tmp\ccWFxnfo.ltrans5.ltrans.o
cliStatus.16341                                   C:\cygwin64\tmp\ccWFxnfo.ltrans12.ltrans.o
                                                  C:\cygwin64\tmp\ccWFxnfo.ltrans28.ltrans.o
cliTasks.16338                                    C:\cygwin64\tmp\ccWFxnfo.ltrans22.ltrans.o
                                                  C:\cygwin64\tmp\ccWFxnfo.ltrans28.ltrans.o
cliVarPtr.16350                                   C:\cygwin64\tmp\ccWFxnfo.ltrans14.ltrans.o
                                                  C:\cygwin64\tmp\ccWFxnfo.ltrans8.ltrans.o
                                                  C:\cygwin64\tmp\ccWFxnfo.ltrans5.ltrans.o
cliVersion.16319                                  C:\cygwin64\tmp\ccWFxnfo.ltrans8.ltrans.o
                                                  C:\cygwin64\tmp\ccWFxnfo.ltrans28.ltrans.o
                                                  C:\cygwin64\tmp\ccWFxnfo.ltrans20.ltrans.o
cliWrite.16335                                    C:\cygwin64\tmp\ccWFxnfo.ltrans10.ltrans.o
                                                  C:\cygwin64\tmp\ccWFxnfo.ltrans28.ltrans.o
                                                  C:\cygwin64\tmp\ccWFxnfo.ltrans20.ltrans.o
cliWriter.16656                                   C:\cygwin64\tmp\ccWFxnfo.ltrans28.ltrans.o
                                                  C:\cygwin64\tmp\ccWFxnfo.ltrans14.ltrans.o
                                                  C:\cygwin64\tmp\ccWFxnfo.ltrans12.ltrans.o
                                                  C:\cygwin64\tmp\ccWFxnfo.ltrans10.ltrans.o
                                                  C:\cygwin64\tmp\ccWFxnfo.ltrans8.ltrans.o
                                                  C:\cygwin64\tmp\ccWFxnfo.ltrans1.ltrans.o
closeSerialPort                                   C:\cygwin64\tmp\ccWFxnfo.ltrans6.ltrans.o
                                                  C:\cygwin64\tmp\ccWFxnfo.ltrans23.ltrans.o
                                                  C:\cygwin64\tmp\ccWFxnfo.ltrans19.ltrans.o
                                                  C:\cygwin64\tmp\ccWFxnfo.ltrans2.ltrans.o
cmdTable                                          C:\cygwin64\tmp\ccWFxnfo.ltrans28.ltrans.o
                                                  C:\cygwin64\tmp\ccWFxnfo.ltrans8.ltrans.o
colors_Registry                                   C:\cygwin64\tmp\ccWFxnfo.ltrans1.ltrans.o
colors_SystemArray                                C:\cygwin64\tmp\ccWFxnfo.ltrans1.ltrans.o
                                                  C:\cygwin64\tmp\ccWFxnfo.ltrans21.ltrans.o
                                                  C:\cygwin64\tmp\ccWFxnfo.ltrans16.ltrans.o
                                                  C:\cygwin64\tmp\ccWFxnfo.ltrans12.ltrans.o
                                                  C:\cygwin64\tmp\ccWFxnfo.ltrans11.ltrans.o
                                                  C:\cygwin64\tmp\ccWFxnfo.ltrans5.ltrans.o
compassConfig_ProfileCurrent                      C:\cygwin64\tmp\ccWFxnfo.ltrans1.ltrans.o
                                                  C:\cygwin64\tmp\ccWFxnfo.ltrans25.ltrans.o
compassConfig_Registry                            C:\cygwin64\tmp\ccWFxnfo.ltrans1.ltrans.o
configTimeBase                                    C:\cygwin64\tmp\ccWFxnfo.ltrans21.ltrans.o
                                                  C:\cygwin64\tmp\ccWFxnfo.ltrans10.ltrans.o
config_streamer_write                             C:\cygwin64\tmp\ccWFxnfo.ltrans6.ltrans.o
                                                  C:\cygwin64\tmp\ccWFxnfo.ltrans22.ltrans.o
controlRateProfiles_Registry                      C:\cygwin64\tmp\ccWFxnfo.ltrans2.ltrans.o
controlRateProfiles_SystemArray                   C:\cygwin64\tmp\ccWFxnfo.ltrans2.ltrans.o
                                                  C:\cygwin64\tmp\ccWFxnfo.ltrans25.ltrans.o
                                                  C:\cygwin64\tmp\ccWFxnfo.ltrans22.ltrans.o
                                                  C:\cygwin64\tmp\ccWFxnfo.ltrans15.ltrans.o
                                                  C:\cygwin64\tmp\ccWFxnfo.ltrans4.ltrans.o
copysignf                                         c:/dev/gcc-arm-none-eabi-4_8-2014q2/bin/../lib/gcc/arm-none-eabi/4.8.4/../../../../arm-none-eabi/lib/armv7-m\libm.a(lib_a-sf_copysign.o)
                                                  c:/dev/gcc-arm-none-eabi-4_8-2014q2/bin/../lib/gcc/arm-none-eabi/4.8.4/../../../../arm-none-eabi/lib/armv7-m\libm.a(lib_a-sf_scalbn.o)
cosf                                              C:\cygwin64\tmp\ccWFxnfo.ltrans30.ltrans.o
                                                  C:\cygwin64\tmp\ccWFxnfo.ltrans24.ltrans.o
                                                  C:\cygwin64\tmp\ccWFxnfo.ltrans14.ltrans.o
                                                  C:\cygwin64\tmp\ccWFxnfo.ltrans7.ltrans.o
                                                  C:\cygwin64\tmp\ccWFxnfo.ltrans4.ltrans.o
                                                  C:\cygwin64\tmp\ccWFxnfo.ltrans2.ltrans.o
                                                  C:\cygwin64\tmp\ccWFxnfo.ltrans0.ltrans.o
couldBeBusy.6015                                  C:\cygwin64\tmp\ccWFxnfo.ltrans0.ltrans.o
                                                  C:\cygwin64\tmp\ccWFxnfo.ltrans24.ltrans.o
                                                  C:\cygwin64\tmp\ccWFxnfo.ltrans18.ltrans.o
                                                  C:\cygwin64\tmp\ccWFxnfo.ltrans13.ltrans.o
crc.17512                                         C:\cygwin64\tmp\ccWFxnfo.ltrans14.ltrans.o
                                                  C:\cygwin64\tmp\ccWFxnfo.ltrans7.ltrans.o
crc16Byte.16023                                   C:\cygwin64\tmp\ccWFxnfo.ltrans7.ltrans.o
                                                  C:\cygwin64\tmp\ccWFxnfo.ltrans15.ltrans.o
                                                  C:\cygwin64\tmp\ccWFxnfo.ltrans14.ltrans.o
crcIn.15962                                       C:\cygwin64\tmp\ccWFxnfo.ltrans20.ltrans.o
                                                  C:\cygwin64\tmp\ccWFxnfo.ltrans22.ltrans.o
crcOut.15963                                      C:\cygwin64\tmp\ccWFxnfo.ltrans20.ltrans.o
                                                  C:\cygwin64\tmp\ccWFxnfo.ltrans14.ltrans.o
crc_accumulate.9869                               C:\cygwin64\tmp\ccWFxnfo.ltrans7.ltrans.o
                                                  C:\cygwin64\tmp\ccWFxnfo.ltrans8.ltrans.o
currentBeeperEntry.15614                          C:\cygwin64\tmp\ccWFxnfo.ltrans24.ltrans.o
                                                  C:\cygwin64\tmp\ccWFxnfo.ltrans10.ltrans.o
currentControlRateProfile                         C:\cygwin64\tmp\ccWFxnfo.ltrans2.ltrans.o
                                                  C:\cygwin64\tmp\ccWFxnfo.ltrans25.ltrans.o
                                                  C:\cygwin64\tmp\ccWFxnfo.ltrans22.ltrans.o
                                                  C:\cygwin64\tmp\ccWFxnfo.ltrans15.ltrans.o
                                                  C:\cygwin64\tmp\ccWFxnfo.ltrans7.ltrans.o
                                                  C:\cygwin64\tmp\ccWFxnfo.ltrans4.ltrans.o
                                                  C:\cygwin64\tmp\ccWFxnfo.ltrans1.ltrans.o
currentControlRateProfileIndex.12489              C:\cygwin64\tmp\ccWFxnfo.ltrans4.ltrans.o
                                                  C:\cygwin64\tmp\ccWFxnfo.ltrans25.ltrans.o
                                                  C:\cygwin64\tmp\ccWFxnfo.ltrans22.ltrans.o
                                                  C:\cygwin64\tmp\ccWFxnfo.ltrans15.ltrans.o
                                                  C:\cygwin64\tmp\ccWFxnfo.ltrans14.ltrans.o
currentMixer                                      C:\cygwin64\tmp\ccWFxnfo.ltrans0.ltrans.o
                                                  C:\cygwin64\tmp\ccWFxnfo.ltrans2.ltrans.o
currentServoMixer.15158                           C:\cygwin64\tmp\ccWFxnfo.ltrans0.ltrans.o
                                                  C:\cygwin64\tmp\ccWFxnfo.ltrans7.ltrans.o
                                                  C:\cygwin64\tmp\ccWFxnfo.ltrans2.ltrans.o
currentTask.20091                                 C:\cygwin64\tmp\ccWFxnfo.ltrans0.ltrans.o
                                                  C:\cygwin64\tmp\ccWFxnfo.ltrans19.ltrans.o
                                                  C:\cygwin64\tmp\ccWFxnfo.ltrans11.ltrans.o
                                                  C:\cygwin64\tmp\ccWFxnfo.ltrans6.ltrans.o
currentTime                                       C:\cygwin64\tmp\ccWFxnfo.ltrans0.ltrans.o
                                                  C:\cygwin64\tmp\ccWFxnfo.ltrans25.ltrans.o
                                                  C:\cygwin64\tmp\ccWFxnfo.ltrans18.ltrans.o
                                                  C:\cygwin64\tmp\ccWFxnfo.ltrans16.ltrans.o
                                                  C:\cygwin64\tmp\ccWFxnfo.ltrans15.ltrans.o
                                                  C:\cygwin64\tmp\ccWFxnfo.ltrans11.ltrans.o
                                                  C:\cygwin64\tmp\ccWFxnfo.ltrans10.ltrans.o
                                                  C:\cygwin64\tmp\ccWFxnfo.ltrans9.ltrans.o
                                                  C:\cygwin64\tmp\ccWFxnfo.ltrans7.ltrans.o
                                                  C:\cygwin64\tmp\ccWFxnfo.ltrans4.ltrans.o
                                                  C:\cygwin64\tmp\ccWFxnfo.ltrans2.ltrans.o
customMotorMixer_Registry                         C:\cygwin64\tmp\ccWFxnfo.ltrans0.ltrans.o
customMotorMixer_SystemArray                      C:\cygwin64\tmp\ccWFxnfo.ltrans0.ltrans.o
                                                  C:\cygwin64\tmp\ccWFxnfo.ltrans20.ltrans.o
                                                  C:\cygwin64\tmp\ccWFxnfo.ltrans5.ltrans.o
customServoMixer_Registry                         C:\cygwin64\tmp\ccWFxnfo.ltrans0.ltrans.o
customServoMixer_SystemArray                      C:\cygwin64\tmp\ccWFxnfo.ltrans0.ltrans.o
                                                  C:\cygwin64\tmp\ccWFxnfo.ltrans20.ltrans.o
                                                  C:\cygwin64\tmp\ccWFxnfo.ltrans8.ltrans.o
                                                  C:\cygwin64\tmp\ccWFxnfo.ltrans1.ltrans.o
customServoMixers.15214                           C:\cygwin64\tmp\ccWFxnfo.ltrans0.ltrans.o
                                                  C:\cygwin64\tmp\ccWFxnfo.ltrans7.ltrans.o
debug                                             C:\cygwin64\tmp\ccWFxnfo.ltrans2.ltrans.o
                                                  C:\cygwin64\tmp\ccWFxnfo.ltrans19.ltrans.o
                                                  C:\cygwin64\tmp\ccWFxnfo.ltrans7.ltrans.o
                                                  C:\cygwin64\tmp\ccWFxnfo.ltrans1.ltrans.o
debugConfig_Registry                              C:\cygwin64\tmp\ccWFxnfo.ltrans0.ltrans.o
debugMode                                         C:\cygwin64\tmp\ccWFxnfo.ltrans0.ltrans.o
                                                  C:\cygwin64\tmp\ccWFxnfo.ltrans19.ltrans.o
                                                  C:\cygwin64\tmp\ccWFxnfo.ltrans7.ltrans.o
                                                  C:\cygwin64\tmp\ccWFxnfo.ltrans2.ltrans.o
delay                                             C:\cygwin64\tmp\ccWFxnfo.ltrans6.ltrans.o
                                                  C:\cygwin64\tmp\ccWFxnfo.ltrans24.ltrans.o
                                                  C:\cygwin64\tmp\ccWFxnfo.ltrans19.ltrans.o
                                                  C:\cygwin64\tmp\ccWFxnfo.ltrans17.ltrans.o
                                                  C:\cygwin64\tmp\ccWFxnfo.ltrans12.ltrans.o
                                                  C:\cygwin64\tmp\ccWFxnfo.ltrans10.ltrans.o
                                                  C:\cygwin64\tmp\ccWFxnfo.ltrans0.ltrans.o
delayMicroseconds                                 C:\cygwin64\tmp\ccWFxnfo.ltrans6.ltrans.o
                                                  C:\cygwin64\tmp\ccWFxnfo.ltrans19.ltrans.o
                                                  C:\cygwin64\tmp\ccWFxnfo.ltrans17.ltrans.o
                                                  C:\cygwin64\tmp\ccWFxnfo.ltrans13.ltrans.o
                                                  C:\cygwin64\tmp\ccWFxnfo.ltrans11.ltrans.o
                                                  C:\cygwin64\tmp\ccWFxnfo.ltrans0.ltrans.o
detectedSensors                                   C:\cygwin64\tmp\ccWFxnfo.ltrans17.ltrans.o
                                                  C:\cygwin64\tmp\ccWFxnfo.ltrans12.ltrans.o
determinePortSharing                              C:\cygwin64\tmp\ccWFxnfo.ltrans6.ltrans.o
                                                  C:\cygwin64\tmp\ccWFxnfo.ltrans27.ltrans.o
                                                  C:\cygwin64\tmp\ccWFxnfo.ltrans0.ltrans.o
determineServoMiddleOrForwardFromChannel          C:\cygwin64\tmp\ccWFxnfo.ltrans7.ltrans.o
                                                  C:\cygwin64\tmp\ccWFxnfo.ltrans2.ltrans.o
disableFlightMode                                 C:\cygwin64\tmp\ccWFxnfo.ltrans10.ltrans.o
                                                  C:\cygwin64\tmp\ccWFxnfo.ltrans4.ltrans.o
                                                  C:\cygwin64\tmp\ccWFxnfo.ltrans2.ltrans.o
                                                  C:\cygwin64\tmp\ccWFxnfo.ltrans1.ltrans.o
disarmAt.12292                                    C:\cygwin64\tmp\ccWFxnfo.ltrans4.ltrans.o
                                                  C:\cygwin64\tmp\ccWFxnfo.ltrans27.ltrans.o
dmaChannels                                       C:\cygwin64\tmp\ccWFxnfo.ltrans31.ltrans.o
                                                  C:\cygwin64\tmp\ccWFxnfo.ltrans23.ltrans.o
                                                  C:\cygwin64\tmp\ccWFxnfo.ltrans0.ltrans.o
dmaSetHandler                                     C:\cygwin64\tmp\ccWFxnfo.ltrans12.ltrans.o
                                                  C:\cygwin64\tmp\ccWFxnfo.ltrans23.ltrans.o
                                                  C:\cygwin64\tmp\ccWFxnfo.ltrans0.ltrans.o
doesConfigurationUsePort                          C:\cygwin64\tmp\ccWFxnfo.ltrans21.ltrans.o
                                                  C:\cygwin64\tmp\ccWFxnfo.ltrans0.ltrans.o
dtermFilterLpf                                    C:\cygwin64\tmp\ccWFxnfo.ltrans2.ltrans.o
                                                  C:\cygwin64\tmp\ccWFxnfo.ltrans15.ltrans.o
dtermFilterNotch                                  C:\cygwin64\tmp\ccWFxnfo.ltrans2.ltrans.o
                                                  C:\cygwin64\tmp\ccWFxnfo.ltrans15.ltrans.o
dumpValues.16387                                  C:\cygwin64\tmp\ccWFxnfo.ltrans8.ltrans.o
                                                  C:\cygwin64\tmp\ccWFxnfo.ltrans20.ltrans.o
enableFlightMode                                  C:\cygwin64\tmp\ccWFxnfo.ltrans10.ltrans.o
                                                  C:\cygwin64\tmp\ccWFxnfo.ltrans4.ltrans.o
                                                  C:\cygwin64\tmp\ccWFxnfo.ltrans2.ltrans.o
enabledSensors.13338                              C:\cygwin64\tmp\ccWFxnfo.ltrans0.ltrans.o
                                                  C:\cygwin64\tmp\ccWFxnfo.ltrans27.ltrans.o
                                                  C:\cygwin64\tmp\ccWFxnfo.ltrans25.ltrans.o
                                                  C:\cygwin64\tmp\ccWFxnfo.ltrans24.ltrans.o
                                                  C:\cygwin64\tmp\ccWFxnfo.ltrans17.ltrans.o
                                                  C:\cygwin64\tmp\ccWFxnfo.ltrans15.ltrans.o
                                                  C:\cygwin64\tmp\ccWFxnfo.ltrans12.ltrans.o
                                                  C:\cygwin64\tmp\ccWFxnfo.ltrans11.ltrans.o
                                                  C:\cygwin64\tmp\ccWFxnfo.ltrans9.ltrans.o
                                                  C:\cygwin64\tmp\ccWFxnfo.ltrans4.ltrans.o
                                                  C:\cygwin64\tmp\ccWFxnfo.ltrans3.ltrans.o
                                                  C:\cygwin64\tmp\ccWFxnfo.ltrans2.ltrans.o
                                                  C:\cygwin64\tmp\ccWFxnfo.ltrans1.ltrans.o
end                                               c:/dev/gcc-arm-none-eabi-4_8-2014q2/bin/../lib/gcc/arm-none-eabi/4.8.4/../../../../arm-none-eabi/lib/armv7-m\libnosys.a(sbrk.o)
errno                                             c:/dev/gcc-arm-none-eabi-4_8-2014q2/bin/../lib/gcc/arm-none-eabi/4.8.4/../../../../arm-none-eabi/lib/armv7-m\libnosys.a(sbrk.o)
                                                  c:/dev/gcc-arm-none-eabi-4_8-2014q2/bin/../lib/gcc/arm-none-eabi/4.8.4/../../../../arm-none-eabi/lib/armv7-m\libc_s.a(lib_a-reent.o)
                                                  c:/dev/gcc-arm-none-eabi-4_8-2014q2/bin/../lib/gcc/arm-none-eabi/4.8.4/../../../../arm-none-eabi/lib/armv7-m\libc_s.a(lib_a-sbrkr.o)
error.8039                                        C:\cygwin64\tmp\ccWFxnfo.ltrans24.ltrans.o
                                                  C:\cygwin64\tmp\ccWFxnfo.ltrans10.ltrans.o
errorVelocityI                                    C:\cygwin64\tmp\ccWFxnfo.ltrans2.ltrans.o
                                                  C:\cygwin64\tmp\ccWFxnfo.ltrans11.ltrans.o
                                                  C:\cygwin64\tmp\ccWFxnfo.ltrans4.ltrans.o
esc4wayProcess                                    C:\cygwin64\tmp\ccWFxnfo.ltrans20.ltrans.o
                                                  C:\cygwin64\tmp\ccWFxnfo.ltrans18.ltrans.o
escCount.15961                                    C:\cygwin64\tmp\ccWFxnfo.ltrans1.ltrans.o
                                                  C:\cygwin64\tmp\ccWFxnfo.ltrans20.ltrans.o
escHardware                                       C:\cygwin64\tmp\ccWFxnfo.ltrans1.ltrans.o
                                                  C:\cygwin64\tmp\ccWFxnfo.ltrans22.ltrans.o
                                                  C:\cygwin64\tmp\ccWFxnfo.ltrans20.ltrans.o
                                                  C:\cygwin64\tmp\ccWFxnfo.ltrans19.ltrans.o
                                                  C:\cygwin64\tmp\ccWFxnfo.ltrans15.ltrans.o
                                                  C:\cygwin64\tmp\ccWFxnfo.ltrans14.ltrans.o
escSelected                                       C:\cygwin64\tmp\ccWFxnfo.ltrans20.ltrans.o
                                                  C:\cygwin64\tmp\ccWFxnfo.ltrans22.ltrans.o
                                                  C:\cygwin64\tmp\ccWFxnfo.ltrans19.ltrans.o
                                                  C:\cygwin64\tmp\ccWFxnfo.ltrans15.ltrans.o
                                                  C:\cygwin64\tmp\ccWFxnfo.ltrans14.ltrans.o
extiChannelRecs                                   C:\cygwin64\tmp\ccWFxnfo.ltrans0.ltrans.o
                                                  C:\cygwin64\tmp\ccWFxnfo.ltrans17.ltrans.o
                                                  C:\cygwin64\tmp\ccWFxnfo.ltrans10.ltrans.o
                                                  C:\cygwin64\tmp\ccWFxnfo.ltrans7.ltrans.o
extiGroupPriority.15359                           C:\cygwin64\tmp\ccWFxnfo.ltrans0.ltrans.o
                                                  C:\cygwin64\tmp\ccWFxnfo.ltrans10.ltrans.o
fabsf                                             c:/dev/gcc-arm-none-eabi-4_8-2014q2/bin/../lib/gcc/arm-none-eabi/4.8.4/../../../../arm-none-eabi/lib/armv7-m\libm.a(lib_a-sf_fabs.o)
                                                  c:/dev/gcc-arm-none-eabi-4_8-2014q2/bin/../lib/gcc/arm-none-eabi/4.8.4/../../../../arm-none-eabi/lib/armv7-m\libm.a(lib_a-ef_pow.o)
failsafeActivate.14251                            C:\cygwin64\tmp\ccWFxnfo.ltrans10.ltrans.o
                                                  C:\cygwin64\tmp\ccWFxnfo.ltrans4.ltrans.o
failsafeChannelConfigs_Registry                   C:\cygwin64\tmp\ccWFxnfo.ltrans1.ltrans.o
failsafeChannelConfigs_SystemArray                C:\cygwin64\tmp\ccWFxnfo.ltrans1.ltrans.o
                                                  C:\cygwin64\tmp\ccWFxnfo.ltrans12.ltrans.o
failsafeConfig_Registry                           C:\cygwin64\tmp\ccWFxnfo.ltrans4.ltrans.o
failsafeConfig_System                             C:\cygwin64\tmp\ccWFxnfo.ltrans4.ltrans.o
                                                  C:\cygwin64\tmp\ccWFxnfo.ltrans25.ltrans.o
                                                  C:\cygwin64\tmp\ccWFxnfo.ltrans10.ltrans.o
                                                  C:\cygwin64\tmp\ccWFxnfo.ltrans1.ltrans.o
failsafeState.14306                               C:\cygwin64\tmp\ccWFxnfo.ltrans0.ltrans.o
                                                  C:\cygwin64\tmp\ccWFxnfo.ltrans25.ltrans.o
                                                  C:\cygwin64\tmp\ccWFxnfo.ltrans12.ltrans.o
                                                  C:\cygwin64\tmp\ccWFxnfo.ltrans10.ltrans.o
                                                  C:\cygwin64\tmp\ccWFxnfo.ltrans9.ltrans.o
                                                  C:\cygwin64\tmp\ccWFxnfo.ltrans8.ltrans.o
                                                  C:\cygwin64\tmp\ccWFxnfo.ltrans4.ltrans.o
                                                  C:\cygwin64\tmp\ccWFxnfo.ltrans3.ltrans.o
                                                  C:\cygwin64\tmp\ccWFxnfo.ltrans2.ltrans.o
failureMode                                       C:\cygwin64\tmp\ccWFxnfo.ltrans6.ltrans.o
                                                  C:\cygwin64\tmp\ccWFxnfo.ltrans22.ltrans.o
                                                  C:\cygwin64\tmp\ccWFxnfo.ltrans17.ltrans.o
                                                  C:\cygwin64\tmp\ccWFxnfo.ltrans0.ltrans.o
fastA2F                                           C:\cygwin64\tmp\ccWFxnfo.ltrans14.ltrans.o
                                                  C:\cygwin64\tmp\ccWFxnfo.ltrans5.ltrans.o
fc_acc                                            C:\cygwin64\tmp\ccWFxnfo.ltrans25.ltrans.o
                                                  C:\cygwin64\tmp\ccWFxnfo.ltrans15.ltrans.o
featureClear                                      C:\cygwin64\tmp\ccWFxnfo.ltrans7.ltrans.o
                                                  C:\cygwin64\tmp\ccWFxnfo.ltrans25.ltrans.o
                                                  C:\cygwin64\tmp\ccWFxnfo.ltrans9.ltrans.o
                                                  C:\cygwin64\tmp\ccWFxnfo.ltrans0.ltrans.o
featureConfig_Registry                            C:\cygwin64\tmp\ccWFxnfo.ltrans0.ltrans.o
featureConfig_System                              C:\cygwin64\tmp\ccWFxnfo.ltrans0.ltrans.o
                                                  C:\cygwin64\tmp\ccWFxnfo.ltrans25.ltrans.o
                                                  C:\cygwin64\tmp\ccWFxnfo.ltrans22.ltrans.o
                                                  C:\cygwin64\tmp\ccWFxnfo.ltrans20.ltrans.o
                                                  C:\cygwin64\tmp\ccWFxnfo.ltrans12.ltrans.o
                                                  C:\cygwin64\tmp\ccWFxnfo.ltrans9.ltrans.o
                                                  C:\cygwin64\tmp\ccWFxnfo.ltrans7.ltrans.o
                                                  C:\cygwin64\tmp\ccWFxnfo.ltrans1.ltrans.o
featureNames.16746                                C:\cygwin64\tmp\ccWFxnfo.ltrans9.ltrans.o
                                                  C:\cygwin64\tmp\ccWFxnfo.ltrans20.ltrans.o
findBoxByBoxId.13379                              C:\cygwin64\tmp\ccWFxnfo.ltrans7.ltrans.o
                                                  C:\cygwin64\tmp\ccWFxnfo.ltrans1.ltrans.o
                                                  C:\cygwin64\tmp\ccWFxnfo.ltrans0.ltrans.o
findNextSharedSerialPort.constprop.22             C:\cygwin64\tmp\ccWFxnfo.ltrans8.ltrans.o
                                                  C:\cygwin64\tmp\ccWFxnfo.ltrans27.ltrans.o
                                                  C:\cygwin64\tmp\ccWFxnfo.ltrans4.ltrans.o
findSerialPortConfig                              C:\cygwin64\tmp\ccWFxnfo.ltrans15.ltrans.o
                                                  C:\cygwin64\tmp\ccWFxnfo.ltrans29.ltrans.o
                                                  C:\cygwin64\tmp\ccWFxnfo.ltrans28.ltrans.o
                                                  C:\cygwin64\tmp\ccWFxnfo.ltrans27.ltrans.o
                                                  C:\cygwin64\tmp\ccWFxnfo.ltrans0.ltrans.o
findSerialPortConfigState.20272                   C:\cygwin64\tmp\ccWFxnfo.ltrans28.ltrans.o
                                                  C:\cygwin64\tmp\ccWFxnfo.ltrans15.ltrans.o
findSerialPortUsageByIdentifier                   C:\cygwin64\tmp\ccWFxnfo.ltrans6.ltrans.o
                                                  C:\cygwin64\tmp\ccWFxnfo.ltrans28.ltrans.o
                                                  C:\cygwin64\tmp\ccWFxnfo.ltrans23.ltrans.o
                                                  C:\cygwin64\tmp\ccWFxnfo.ltrans8.ltrans.o
                                                  C:\cygwin64\tmp\ccWFxnfo.ltrans1.ltrans.o
findSharedSerialPortState.20273                   C:\cygwin64\tmp\ccWFxnfo.ltrans4.ltrans.o
                                                  C:\cygwin64\tmp\ccWFxnfo.ltrans27.ltrans.o
                                                  C:\cygwin64\tmp\ccWFxnfo.ltrans8.ltrans.o
finitef                                           c:/dev/gcc-arm-none-eabi-4_8-2014q2/bin/../lib/gcc/arm-none-eabi/4.8.4/../../../../arm-none-eabi/lib/armv7-m\libm.a(lib_a-sf_finite.o)
                                                  c:/dev/gcc-arm-none-eabi-4_8-2014q2/bin/../lib/gcc/arm-none-eabi/4.8.4/../../../../arm-none-eabi/lib/armv7-m\libm.a(lib_a-wf_pow.o)
flashWriteBuffer.7708                             C:\cygwin64\tmp\ccWFxnfo.ltrans18.ltrans.o
                                                  C:\cygwin64\tmp\ccWFxnfo.ltrans7.ltrans.o
flashchipConfig_Registry                          C:\cygwin64\tmp\ccWFxnfo.ltrans0.ltrans.o
flashfsAdvanceTailInBuffer.7625                   C:\cygwin64\tmp\ccWFxnfo.ltrans21.ltrans.o
                                                  C:\cygwin64\tmp\ccWFxnfo.ltrans18.ltrans.o
flashfsClearBuffer.7613                           C:\cygwin64\tmp\ccWFxnfo.ltrans7.ltrans.o
                                                  C:\cygwin64\tmp\ccWFxnfo.ltrans24.ltrans.o
                                                  C:\cygwin64\tmp\ccWFxnfo.ltrans21.ltrans.o
                                                  C:\cygwin64\tmp\ccWFxnfo.ltrans18.ltrans.o
flashfsEraseCompletely                            C:\cygwin64\tmp\ccWFxnfo.ltrans24.ltrans.o
                                                  C:\cygwin64\tmp\ccWFxnfo.ltrans1.ltrans.o
flashfsFlushAsync                                 C:\cygwin64\tmp\ccWFxnfo.ltrans18.ltrans.o
                                                  C:\cygwin64\tmp\ccWFxnfo.ltrans9.ltrans.o
flashfsFlushSync                                  C:\cygwin64\tmp\ccWFxnfo.ltrans18.ltrans.o
                                                  C:\cygwin64\tmp\ccWFxnfo.ltrans1.ltrans.o
                                                  C:\cygwin64\tmp\ccWFxnfo.ltrans0.ltrans.o
flashfsGetDirtyDataBuffers.7621                   C:\cygwin64\tmp\ccWFxnfo.ltrans7.ltrans.o
                                                  C:\cygwin64\tmp\ccWFxnfo.ltrans18.ltrans.o
flashfsGetOffset                                  C:\cygwin64\tmp\ccWFxnfo.ltrans7.ltrans.o
                                                  C:\cygwin64\tmp\ccWFxnfo.ltrans16.ltrans.o
                                                  C:\cygwin64\tmp\ccWFxnfo.ltrans1.ltrans.o
flashfsTransmitBufferUsed.7617                    C:\cygwin64\tmp\ccWFxnfo.ltrans7.ltrans.o
                                                  C:\cygwin64\tmp\ccWFxnfo.ltrans18.ltrans.o
                                                  C:\cygwin64\tmp\ccWFxnfo.ltrans2.ltrans.o
flightModeFlags                                   C:\cygwin64\tmp\ccWFxnfo.ltrans2.ltrans.o
                                                  C:\cygwin64\tmp\ccWFxnfo.ltrans24.ltrans.o
                                                  C:\cygwin64\tmp\ccWFxnfo.ltrans11.ltrans.o
                                                  C:\cygwin64\tmp\ccWFxnfo.ltrans10.ltrans.o
                                                  C:\cygwin64\tmp\ccWFxnfo.ltrans9.ltrans.o
                                                  C:\cygwin64\tmp\ccWFxnfo.ltrans4.ltrans.o
                                                  C:\cygwin64\tmp\ccWFxnfo.ltrans3.ltrans.o
                                                  C:\cygwin64\tmp\ccWFxnfo.ltrans1.ltrans.o
flushHottRxBuffer.9364                            C:\cygwin64\tmp\ccWFxnfo.ltrans14.ltrans.o
                                                  C:\cygwin64\tmp\ccWFxnfo.ltrans3.ltrans.o
free                                              c:/dev/gcc-arm-none-eabi-4_8-2014q2/bin/../lib/gcc/arm-none-eabi/4.8.4/../../../../arm-none-eabi/lib/armv7-m\libc_s.a(lib_a-malloc.o)
frskyPort.9150                                    C:\cygwin64\tmp\ccWFxnfo.ltrans23.ltrans.o
                                                  C:\cygwin64\tmp\ccWFxnfo.ltrans14.ltrans.o
frskyPortSharing.9204                             C:\cygwin64\tmp\ccWFxnfo.ltrans0.ltrans.o
                                                  C:\cygwin64\tmp\ccWFxnfo.ltrans23.ltrans.o
frskyTelemetryConfig_Registry                     C:\cygwin64\tmp\ccWFxnfo.ltrans3.ltrans.o
frskyTelemetryConfig_System                       C:\cygwin64\tmp\ccWFxnfo.ltrans3.ltrans.o
                                                  C:\cygwin64\tmp\ccWFxnfo.ltrans7.ltrans.o
frskyTelemetryEnabled.9205                        C:\cygwin64\tmp\ccWFxnfo.ltrans3.ltrans.o
                                                  C:\cygwin64\tmp\ccWFxnfo.ltrans23.ltrans.o
ftoa                                              C:\cygwin64\tmp\ccWFxnfo.ltrans6.ltrans.o
                                                  C:\cygwin64\tmp\ccWFxnfo.ltrans20.ltrans.o
                                                  C:\cygwin64\tmp\ccWFxnfo.ltrans8.ltrans.o
                                                  C:\cygwin64\tmp\ccWFxnfo.ltrans5.ltrans.o
g_pfnVectors                                      obj/main/NAZE/startup_stm32f10x_md_gcc.o
generatePitchRollCurve                            C:\cygwin64\tmp\ccWFxnfo.ltrans7.ltrans.o
                                                  C:\cygwin64\tmp\ccWFxnfo.ltrans25.ltrans.o
                                                  C:\cygwin64\tmp\ccWFxnfo.ltrans15.ltrans.o
                                                  C:\cygwin64\tmp\ccWFxnfo.ltrans4.ltrans.o
generateThrottleCurve                             C:\cygwin64\tmp\ccWFxnfo.ltrans7.ltrans.o
                                                  C:\cygwin64\tmp\ccWFxnfo.ltrans25.ltrans.o
                                                  C:\cygwin64\tmp\ccWFxnfo.ltrans15.ltrans.o
                                                  C:\cygwin64\tmp\ccWFxnfo.ltrans4.ltrans.o
generateYawCurve                                  C:\cygwin64\tmp\ccWFxnfo.ltrans7.ltrans.o
                                                  C:\cygwin64\tmp\ccWFxnfo.ltrans25.ltrans.o
                                                  C:\cygwin64\tmp\ccWFxnfo.ltrans15.ltrans.o
                                                  C:\cygwin64\tmp\ccWFxnfo.ltrans4.ltrans.o
geometry.6008                                     C:\cygwin64\tmp\ccWFxnfo.ltrans0.ltrans.o
                                                  C:\cygwin64\tmp\ccWFxnfo.ltrans27.ltrans.o
                                                  C:\cygwin64\tmp\ccWFxnfo.ltrans21.ltrans.o
                                                  C:\cygwin64\tmp\ccWFxnfo.ltrans18.ltrans.o
                                                  C:\cygwin64\tmp\ccWFxnfo.ltrans16.ltrans.o
                                                  C:\cygwin64\tmp\ccWFxnfo.ltrans1.ltrans.o
getLatestVoltageForADCChannel.constprop.55        C:\cygwin64\tmp\ccWFxnfo.ltrans8.ltrans.o
                                                  C:\cygwin64\tmp\ccWFxnfo.ltrans27.ltrans.o
                                                  C:\cygwin64\tmp\ccWFxnfo.ltrans16.ltrans.o
                                                  C:\cygwin64\tmp\ccWFxnfo.ltrans10.ltrans.o
getLedQuadrant.8593                               C:\cygwin64\tmp\ccWFxnfo.ltrans7.ltrans.o
                                                  C:\cygwin64\tmp\ccWFxnfo.ltrans21.ltrans.o
                                                  C:\cygwin64\tmp\ccWFxnfo.ltrans11.ltrans.o
getRxfailValue.17024                              C:\cygwin64\tmp\ccWFxnfo.ltrans12.ltrans.o
                                                  C:\cygwin64\tmp\ccWFxnfo.ltrans4.ltrans.o
getdT                                             C:\cygwin64\tmp\ccWFxnfo.ltrans7.ltrans.o
                                                  C:\cygwin64\tmp\ccWFxnfo.ltrans2.ltrans.o
gimbalConfig_Registry                             C:\cygwin64\tmp\ccWFxnfo.ltrans2.ltrans.o
gpioInit                                          C:\cygwin64\tmp\ccWFxnfo.ltrans26.ltrans.o
                                                  C:\cygwin64\tmp\ccWFxnfo.ltrans29.ltrans.o
                                                  C:\cygwin64\tmp\ccWFxnfo.ltrans23.ltrans.o
                                                  C:\cygwin64\tmp\ccWFxnfo.ltrans22.ltrans.o
                                                  C:\cygwin64\tmp\ccWFxnfo.ltrans20.ltrans.o
                                                  C:\cygwin64\tmp\ccWFxnfo.ltrans19.ltrans.o
                                                  C:\cygwin64\tmp\ccWFxnfo.ltrans17.ltrans.o
                                                  C:\cygwin64\tmp\ccWFxnfo.ltrans14.ltrans.o
                                                  C:\cygwin64\tmp\ccWFxnfo.ltrans13.ltrans.o
                                                  C:\cygwin64\tmp\ccWFxnfo.ltrans12.ltrans.o
                                                  C:\cygwin64\tmp\ccWFxnfo.ltrans10.ltrans.o
                                                  C:\cygwin64\tmp\ccWFxnfo.ltrans0.ltrans.o
gpsConfig_Registry                                C:\cygwin64\tmp\ccWFxnfo.ltrans0.ltrans.o
gpsConfig_System                                  C:\cygwin64\tmp\ccWFxnfo.ltrans0.ltrans.o
                                                  C:\cygwin64\tmp\ccWFxnfo.ltrans9.ltrans.o
                                                  C:\cygwin64\tmp\ccWFxnfo.ltrans5.ltrans.o
                                                  C:\cygwin64\tmp\ccWFxnfo.ltrans1.ltrans.o
gpsData                                           C:\cygwin64\tmp\ccWFxnfo.ltrans0.ltrans.o
                                                  C:\cygwin64\tmp\ccWFxnfo.ltrans24.ltrans.o
                                                  C:\cygwin64\tmp\ccWFxnfo.ltrans12.ltrans.o
                                                  C:\cygwin64\tmp\ccWFxnfo.ltrans9.ltrans.o
                                                  C:\cygwin64\tmp\ccWFxnfo.ltrans5.ltrans.o
gpsHandlePassthrough.8171                         C:\cygwin64\tmp\ccWFxnfo.ltrans9.ltrans.o
                                                  C:\cygwin64\tmp\ccWFxnfo.ltrans19.ltrans.o
gpsHistory.10833                                  C:\cygwin64\tmp\ccWFxnfo.ltrans27.ltrans.o
                                                  C:\cygwin64\tmp\ccWFxnfo.ltrans18.ltrans.o
                                                  C:\cygwin64\tmp\ccWFxnfo.ltrans9.ltrans.o
gpsInitData.8442                                  C:\cygwin64\tmp\ccWFxnfo.ltrans0.ltrans.o
                                                  C:\cygwin64\tmp\ccWFxnfo.ltrans9.ltrans.o
gpsNewData.part.2.8213                            C:\cygwin64\tmp\ccWFxnfo.ltrans24.ltrans.o
                                                  C:\cygwin64\tmp\ccWFxnfo.ltrans9.ltrans.o
gpsNewFrame                                       C:\cygwin64\tmp\ccWFxnfo.ltrans5.ltrans.o
                                                  C:\cygwin64\tmp\ccWFxnfo.ltrans9.ltrans.o
gpsPacketLog                                      C:\cygwin64\tmp\ccWFxnfo.ltrans0.ltrans.o
                                                  C:\cygwin64\tmp\ccWFxnfo.ltrans7.ltrans.o
                                                  C:\cygwin64\tmp\ccWFxnfo.ltrans5.ltrans.o
gpsPacketLogChar.8308                             C:\cygwin64\tmp\ccWFxnfo.ltrans0.ltrans.o
gpsPort.8441                                      C:\cygwin64\tmp\ccWFxnfo.ltrans0.ltrans.o
                                                  C:\cygwin64\tmp\ccWFxnfo.ltrans19.ltrans.o
                                                  C:\cygwin64\tmp\ccWFxnfo.ltrans9.ltrans.o
gpsProfile_ProfileCurrent                         C:\cygwin64\tmp\ccWFxnfo.ltrans2.ltrans.o
                                                  C:\cygwin64\tmp\ccWFxnfo.ltrans24.ltrans.o
                                                  C:\cygwin64\tmp\ccWFxnfo.ltrans10.ltrans.o
                                                  C:\cygwin64\tmp\ccWFxnfo.ltrans4.ltrans.o
gpsProfile_Registry                               C:\cygwin64\tmp\ccWFxnfo.ltrans2.ltrans.o
gpsSetState.8203                                  C:\cygwin64\tmp\ccWFxnfo.ltrans12.ltrans.o
                                                  C:\cygwin64\tmp\ccWFxnfo.ltrans9.ltrans.o
                                                  C:\cygwin64\tmp\ccWFxnfo.ltrans0.ltrans.o
gpsUsePIDs                                        C:\cygwin64\tmp\ccWFxnfo.ltrans7.ltrans.o
                                                  C:\cygwin64\tmp\ccWFxnfo.ltrans25.ltrans.o
                                                  C:\cygwin64\tmp\ccWFxnfo.ltrans0.ltrans.o
gtuneConfig_Registry                              C:\cygwin64\tmp\ccWFxnfo.ltrans2.ltrans.o
gyro                                              C:\cygwin64\tmp\ccWFxnfo.ltrans0.ltrans.o
                                                  C:\cygwin64\tmp\ccWFxnfo.ltrans19.ltrans.o
                                                  C:\cygwin64\tmp\ccWFxnfo.ltrans17.ltrans.o
                                                  C:\cygwin64\tmp\ccWFxnfo.ltrans2.ltrans.o
gyroADC                                           C:\cygwin64\tmp\ccWFxnfo.ltrans2.ltrans.o
                                                  C:\cygwin64\tmp\ccWFxnfo.ltrans19.ltrans.o
                                                  C:\cygwin64\tmp\ccWFxnfo.ltrans16.ltrans.o
                                                  C:\cygwin64\tmp\ccWFxnfo.ltrans15.ltrans.o
                                                  C:\cygwin64\tmp\ccWFxnfo.ltrans1.ltrans.o
gyroADCf                                          C:\cygwin64\tmp\ccWFxnfo.ltrans2.ltrans.o
                                                  C:\cygwin64\tmp\ccWFxnfo.ltrans19.ltrans.o
gyroAlign                                         C:\cygwin64\tmp\ccWFxnfo.ltrans17.ltrans.o
                                                  C:\cygwin64\tmp\ccWFxnfo.ltrans19.ltrans.o
gyroConfig_Registry                               C:\cygwin64\tmp\ccWFxnfo.ltrans0.ltrans.o
gyroConfig_System                                 C:\cygwin64\tmp\ccWFxnfo.ltrans0.ltrans.o
                                                  C:\cygwin64\tmp\ccWFxnfo.ltrans25.ltrans.o
                                                  C:\cygwin64\tmp\ccWFxnfo.ltrans19.ltrans.o
                                                  C:\cygwin64\tmp\ccWFxnfo.ltrans17.ltrans.o
                                                  C:\cygwin64\tmp\ccWFxnfo.ltrans7.ltrans.o
gyroDeltaUs                                       C:\cygwin64\tmp\ccWFxnfo.ltrans1.ltrans.o
                                                  C:\cygwin64\tmp\ccWFxnfo.ltrans19.ltrans.o
                                                  C:\cygwin64\tmp\ccWFxnfo.ltrans12.ltrans.o
gyroFilterLPF.18750                               C:\cygwin64\tmp\ccWFxnfo.ltrans17.ltrans.o
                                                  C:\cygwin64\tmp\ccWFxnfo.ltrans19.ltrans.o
gyroFilterNotch.18737                             C:\cygwin64\tmp\ccWFxnfo.ltrans17.ltrans.o
                                                  C:\cygwin64\tmp\ccWFxnfo.ltrans19.ltrans.o
gyroFilterPt1.18751                               C:\cygwin64\tmp\ccWFxnfo.ltrans17.ltrans.o
                                                  C:\cygwin64\tmp\ccWFxnfo.ltrans19.ltrans.o
gyroReadyCounter                                  C:\cygwin64\tmp\ccWFxnfo.ltrans2.ltrans.o
                                                  C:\cygwin64\tmp\ccWFxnfo.ltrans19.ltrans.o
                                                  C:\cygwin64\tmp\ccWFxnfo.ltrans7.ltrans.o
gyroScale.14773                                   C:\cygwin64\tmp\ccWFxnfo.ltrans0.ltrans.o
                                                  C:\cygwin64\tmp\ccWFxnfo.ltrans15.ltrans.o
gyroUpdateAt                                      C:\cygwin64\tmp\ccWFxnfo.ltrans19.ltrans.o
                                                  C:\cygwin64\tmp\ccWFxnfo.ltrans7.ltrans.o
hardwareRevision                                  C:\cygwin64\tmp\ccWFxnfo.ltrans0.ltrans.o
                                                  C:\cygwin64\tmp\ccWFxnfo.ltrans17.ltrans.o
                                                  C:\cygwin64\tmp\ccWFxnfo.ltrans1.ltrans.o
hcsr04_extiHandler                                C:\cygwin64\tmp\ccWFxnfo.ltrans14.ltrans.o
                                                  C:\cygwin64\tmp\ccWFxnfo.ltrans0.ltrans.o
headFreeModeHold                                  C:\cygwin64\tmp\ccWFxnfo.ltrans2.ltrans.o
                                                  C:\cygwin64\tmp\ccWFxnfo.ltrans27.ltrans.o
                                                  C:\cygwin64\tmp\ccWFxnfo.ltrans4.ltrans.o
hiLoTsh.16238                                     C:\cygwin64\tmp\ccWFxnfo.ltrans22.ltrans.o
                                                  C:\cygwin64\tmp\ccWFxnfo.ltrans19.ltrans.o
highestXValueForWest.8760                         C:\cygwin64\tmp\ccWFxnfo.ltrans11.ltrans.o
                                                  C:\cygwin64\tmp\ccWFxnfo.ltrans7.ltrans.o
highestYValueForNorth.8758                        C:\cygwin64\tmp\ccWFxnfo.ltrans11.ltrans.o
                                                  C:\cygwin64\tmp\ccWFxnfo.ltrans7.ltrans.o
hmc5883Config.5865                                C:\cygwin64\tmp\ccWFxnfo.ltrans17.ltrans.o
                                                  C:\cygwin64\tmp\ccWFxnfo.ltrans19.ltrans.o
hmc5883_extiHandler                               C:\cygwin64\tmp\ccWFxnfo.ltrans26.ltrans.o
                                                  C:\cygwin64\tmp\ccWFxnfo.ltrans19.ltrans.o
hmc5883lInit                                      C:\cygwin64\tmp\ccWFxnfo.ltrans19.ltrans.o
                                                  C:\cygwin64\tmp\ccWFxnfo.ltrans17.ltrans.o
hmc5883lRead                                      C:\cygwin64\tmp\ccWFxnfo.ltrans13.ltrans.o
                                                  C:\cygwin64\tmp\ccWFxnfo.ltrans19.ltrans.o
                                                  C:\cygwin64\tmp\ccWFxnfo.ltrans17.ltrans.o
hottEAMMessage.9471                               C:\cygwin64\tmp\ccWFxnfo.ltrans0.ltrans.o
                                                  C:\cygwin64\tmp\ccWFxnfo.ltrans3.ltrans.o
hottGPSMessage.9470                               C:\cygwin64\tmp\ccWFxnfo.ltrans0.ltrans.o
                                                  C:\cygwin64\tmp\ccWFxnfo.ltrans3.ltrans.o
hottPort.9490                                     C:\cygwin64\tmp\ccWFxnfo.ltrans3.ltrans.o
                                                  C:\cygwin64\tmp\ccWFxnfo.ltrans23.ltrans.o
                                                  C:\cygwin64\tmp\ccWFxnfo.ltrans14.ltrans.o
hottPortSharing.9508                              C:\cygwin64\tmp\ccWFxnfo.ltrans0.ltrans.o
                                                  C:\cygwin64\tmp\ccWFxnfo.ltrans23.ltrans.o
hottTelemetryConfig_Registry                      C:\cygwin64\tmp\ccWFxnfo.ltrans3.ltrans.o
hottTelemetryEnabled.9507                         C:\cygwin64\tmp\ccWFxnfo.ltrans3.ltrans.o
                                                  C:\cygwin64\tmp\ccWFxnfo.ltrans23.ltrans.o
hse_value                                         C:\cygwin64\tmp\ccWFxnfo.ltrans0.ltrans.o
                                                  C:\cygwin64\tmp\ccWFxnfo.ltrans6.ltrans.o
hsv                                               C:\cygwin64\tmp\ccWFxnfo.ltrans21.ltrans.o
                                                  C:\cygwin64\tmp\ccWFxnfo.ltrans12.ltrans.o
                                                  C:\cygwin64\tmp\ccWFxnfo.ltrans11.ltrans.o
                                                  C:\cygwin64\tmp\ccWFxnfo.ltrans7.ltrans.o
i2cErrorCount.4292                                C:\cygwin64\tmp\ccWFxnfo.ltrans1.ltrans.o
                                                  C:\cygwin64\tmp\ccWFxnfo.ltrans13.ltrans.o
                                                  C:\cygwin64\tmp\ccWFxnfo.ltrans12.ltrans.o
i2cInit                                           C:\cygwin64\tmp\ccWFxnfo.ltrans13.ltrans.o
                                                  C:\cygwin64\tmp\ccWFxnfo.ltrans0.ltrans.o
i2cOverClock.4289                                 C:\cygwin64\tmp\ccWFxnfo.ltrans0.ltrans.o
                                                  C:\cygwin64\tmp\ccWFxnfo.ltrans13.ltrans.o
i2cRead                                           C:\cygwin64\tmp\ccWFxnfo.ltrans13.ltrans.o
                                                  C:\cygwin64\tmp\ccWFxnfo.ltrans17.ltrans.o
i2cWrite                                          C:\cygwin64\tmp\ccWFxnfo.ltrans13.ltrans.o
                                                  C:\cygwin64\tmp\ccWFxnfo.ltrans19.ltrans.o
                                                  C:\cygwin64\tmp\ccWFxnfo.ltrans17.ltrans.o
i2c_er_handler.4173                               C:\cygwin64\tmp\ccWFxnfo.ltrans13.ltrans.o
                                                  C:\cygwin64\tmp\ccWFxnfo.ltrans30.ltrans.o
i2c_ev_handler.4159                               C:\cygwin64\tmp\ccWFxnfo.ltrans16.ltrans.o
                                                  C:\cygwin64\tmp\ccWFxnfo.ltrans30.ltrans.o
ibus.17974                                        C:\cygwin64\tmp\ccWFxnfo.ltrans6.ltrans.o
                                                  C:\cygwin64\tmp\ccWFxnfo.ltrans7.ltrans.o
ibusBaseAddress.10385                             C:\cygwin64\tmp\ccWFxnfo.ltrans0.ltrans.o
                                                  C:\cygwin64\tmp\ccWFxnfo.ltrans3.ltrans.o
ibusDataReceive.17892                             C:\cygwin64\tmp\ccWFxnfo.ltrans6.ltrans.o
                                                  C:\cygwin64\tmp\ccWFxnfo.ltrans0.ltrans.o
ibusFrameDone.17975                               C:\cygwin64\tmp\ccWFxnfo.ltrans6.ltrans.o
                                                  C:\cygwin64\tmp\ccWFxnfo.ltrans7.ltrans.o
ibusFramePosition.17973                           C:\cygwin64\tmp\ccWFxnfo.ltrans6.ltrans.o
                                                  C:\cygwin64\tmp\ccWFxnfo.ltrans7.ltrans.o
ibusFrameStatus                                   C:\cygwin64\tmp\ccWFxnfo.ltrans7.ltrans.o
                                                  C:\cygwin64\tmp\ccWFxnfo.ltrans15.ltrans.o
                                                  C:\cygwin64\tmp\ccWFxnfo.ltrans0.ltrans.o
ibusPortSharing.10402                             C:\cygwin64\tmp\ccWFxnfo.ltrans0.ltrans.o
                                                  C:\cygwin64\tmp\ccWFxnfo.ltrans23.ltrans.o
ibusReadRawRC.17895                               C:\cygwin64\tmp\ccWFxnfo.ltrans7.ltrans.o
                                                  C:\cygwin64\tmp\ccWFxnfo.ltrans0.ltrans.o
ibusSerialPort.10386                              C:\cygwin64\tmp\ccWFxnfo.ltrans3.ltrans.o
                                                  C:\cygwin64\tmp\ccWFxnfo.ltrans23.ltrans.o
                                                  C:\cygwin64\tmp\ccWFxnfo.ltrans14.ltrans.o
ibusSerialPortConfig.10401                        C:\cygwin64\tmp\ccWFxnfo.ltrans0.ltrans.o
                                                  C:\cygwin64\tmp\ccWFxnfo.ltrans23.ltrans.o
ibusTelemetryConfig_Registry                      C:\cygwin64\tmp\ccWFxnfo.ltrans3.ltrans.o
ibusTelemetryEnabled.10403                        C:\cygwin64\tmp\ccWFxnfo.ltrans3.ltrans.o
                                                  C:\cygwin64\tmp\ccWFxnfo.ltrans23.ltrans.o
imuComputeRotationMatrix.14611                    C:\cygwin64\tmp\ccWFxnfo.ltrans7.ltrans.o
                                                  C:\cygwin64\tmp\ccWFxnfo.ltrans15.ltrans.o
                                                  C:\cygwin64\tmp\ccWFxnfo.ltrans0.ltrans.o
imuConfig_Registry                                C:\cygwin64\tmp\ccWFxnfo.ltrans2.ltrans.o
imuConfig_System                                  C:\cygwin64\tmp\ccWFxnfo.ltrans2.ltrans.o
                                                  C:\cygwin64\tmp\ccWFxnfo.ltrans25.ltrans.o
imuRuntimeConfig.14745                            C:\cygwin64\tmp\ccWFxnfo.ltrans0.ltrans.o
                                                  C:\cygwin64\tmp\ccWFxnfo.ltrans25.ltrans.o
                                                  C:\cygwin64\tmp\ccWFxnfo.ltrans15.ltrans.o
initSpi2                                          C:\cygwin64\tmp\ccWFxnfo.ltrans29.ltrans.o
                                                  C:\cygwin64\tmp\ccWFxnfo.ltrans0.ltrans.o
initialRawThrottleHold.14143                      C:\cygwin64\tmp\ccWFxnfo.ltrans2.ltrans.o
                                                  C:\cygwin64\tmp\ccWFxnfo.ltrans4.ltrans.o
initialThrottleHold.14148                         C:\cygwin64\tmp\ccWFxnfo.ltrans2.ltrans.o
                                                  C:\cygwin64\tmp\ccWFxnfo.ltrans4.ltrans.o
ioDefUsedMask.15491                               C:\cygwin64\tmp\ccWFxnfo.ltrans0.ltrans.o
                                                  C:\cygwin64\tmp\ccWFxnfo.ltrans7.ltrans.o
ioRecs                                            C:\cygwin64\tmp\ccWFxnfo.ltrans0.ltrans.o
                                                  C:\cygwin64\tmp\ccWFxnfo.ltrans7.ltrans.o
isAccelUpdatedAtLeastOnce.14785                   C:\cygwin64\tmp\ccWFxnfo.ltrans25.ltrans.o
                                                  C:\cygwin64\tmp\ccWFxnfo.ltrans15.ltrans.o
isBlackboxDeviceFull                              C:\cygwin64\tmp\ccWFxnfo.ltrans21.ltrans.o
                                                  C:\cygwin64\tmp\ccWFxnfo.ltrans27.ltrans.o
                                                  C:\cygwin64\tmp\ccWFxnfo.ltrans2.ltrans.o
isCalibrating                                     C:\cygwin64\tmp\ccWFxnfo.ltrans11.ltrans.o
                                                  C:\cygwin64\tmp\ccWFxnfo.ltrans4.ltrans.o
                                                  C:\cygwin64\tmp\ccWFxnfo.ltrans3.ltrans.o
isConversionComplete.5516                         C:\cygwin64\tmp\ccWFxnfo.ltrans13.ltrans.o
                                                  C:\cygwin64\tmp\ccWFxnfo.ltrans26.ltrans.o
isEOCConnected.5545                               C:\cygwin64\tmp\ccWFxnfo.ltrans17.ltrans.o
                                                  C:\cygwin64\tmp\ccWFxnfo.ltrans13.ltrans.o
isRXDataNew.12324                                 C:\cygwin64\tmp\ccWFxnfo.ltrans2.ltrans.o
                                                  C:\cygwin64\tmp\ccWFxnfo.ltrans4.ltrans.o
isRangeActive.part.0.12758                        C:\cygwin64\tmp\ccWFxnfo.ltrans12.ltrans.o
                                                  C:\cygwin64\tmp\ccWFxnfo.ltrans4.ltrans.o
isSerialTransmitBufferEmpty                       C:\cygwin64\tmp\ccWFxnfo.ltrans14.ltrans.o
                                                  C:\cygwin64\tmp\ccWFxnfo.ltrans18.ltrans.o
                                                  C:\cygwin64\tmp\ccWFxnfo.ltrans9.ltrans.o
                                                  C:\cygwin64\tmp\ccWFxnfo.ltrans8.ltrans.o
                                                  C:\cygwin64\tmp\ccWFxnfo.ltrans6.ltrans.o
isSoftSerialTransmitBufferEmpty                   C:\cygwin64\tmp\ccWFxnfo.ltrans26.ltrans.o
                                                  C:\cygwin64\tmp\ccWFxnfo.ltrans10.ltrans.o
isUartTransmitBufferEmpty                         C:\cygwin64\tmp\ccWFxnfo.ltrans26.ltrans.o
                                                  C:\cygwin64\tmp\ccWFxnfo.ltrans23.ltrans.o
isUsingSticksToArm.12861                          C:\cygwin64\tmp\ccWFxnfo.ltrans2.ltrans.o
                                                  C:\cygwin64\tmp\ccWFxnfo.ltrans25.ltrans.o
                                                  C:\cygwin64\tmp\ccWFxnfo.ltrans4.ltrans.o
                                                  C:\cygwin64\tmp\ccWFxnfo.ltrans1.ltrans.o
itoa.constprop.0                                  C:\cygwin64\tmp\ccWFxnfo.ltrans6.ltrans.o
                                                  C:\cygwin64\tmp\ccWFxnfo.ltrans12.ltrans.o
lastBitTime.16237                                 C:\cygwin64\tmp\ccWFxnfo.ltrans22.ltrans.o
                                                  C:\cygwin64\tmp\ccWFxnfo.ltrans19.ltrans.o
lastITermf                                        C:\cygwin64\tmp\ccWFxnfo.ltrans2.ltrans.o
                                                  C:\cygwin64\tmp\ccWFxnfo.ltrans4.ltrans.o
lastMeasurementAt.6370                            C:\cygwin64\tmp\ccWFxnfo.ltrans0.ltrans.o
                                                  C:\cygwin64\tmp\ccWFxnfo.ltrans11.ltrans.o
layerTable.8794                                   C:\cygwin64\tmp\ccWFxnfo.ltrans21.ltrans.o
                                                  C:\cygwin64\tmp\ccWFxnfo.ltrans11.ltrans.o
ledColorBuffer.6153                               C:\cygwin64\tmp\ccWFxnfo.ltrans0.ltrans.o
                                                  C:\cygwin64\tmp\ccWFxnfo.ltrans21.ltrans.o
                                                  C:\cygwin64\tmp\ccWFxnfo.ltrans16.ltrans.o
                                                  C:\cygwin64\tmp\ccWFxnfo.ltrans11.ltrans.o
ledConfigs_Registry                               C:\cygwin64\tmp\ccWFxnfo.ltrans1.ltrans.o
ledConfigs_SystemArray                            C:\cygwin64\tmp\ccWFxnfo.ltrans1.ltrans.o
                                                  C:\cygwin64\tmp\ccWFxnfo.ltrans21.ltrans.o
                                                  C:\cygwin64\tmp\ccWFxnfo.ltrans16.ltrans.o
                                                  C:\cygwin64\tmp\ccWFxnfo.ltrans11.ltrans.o
                                                  C:\cygwin64\tmp\ccWFxnfo.ltrans7.ltrans.o
ledCounts.8749                                    C:\cygwin64\tmp\ccWFxnfo.ltrans21.ltrans.o
                                                  C:\cygwin64\tmp\ccWFxnfo.ltrans16.ltrans.o
                                                  C:\cygwin64\tmp\ccWFxnfo.ltrans11.ltrans.o
ledStripDMABuffer                                 C:\cygwin64\tmp\ccWFxnfo.ltrans0.ltrans.o
                                                  C:\cygwin64\tmp\ccWFxnfo.ltrans16.ltrans.o
ledStripInitialised.8800                          C:\cygwin64\tmp\ccWFxnfo.ltrans0.ltrans.o
                                                  C:\cygwin64\tmp\ccWFxnfo.ltrans11.ltrans.o
led_config                                        C:\cygwin64\tmp\ccWFxnfo.ltrans0.ltrans.o
                                                  C:\cygwin64\tmp\ccWFxnfo.ltrans25.ltrans.o
                                                  C:\cygwin64\tmp\ccWFxnfo.ltrans24.ltrans.o
                                                  C:\cygwin64\tmp\ccWFxnfo.ltrans20.ltrans.o
                                                  C:\cygwin64\tmp\ccWFxnfo.ltrans19.ltrans.o
                                                  C:\cygwin64\tmp\ccWFxnfo.ltrans17.ltrans.o
                                                  C:\cygwin64\tmp\ccWFxnfo.ltrans10.ltrans.o
                                                  C:\cygwin64\tmp\ccWFxnfo.ltrans9.ltrans.o
                                                  C:\cygwin64\tmp\ccWFxnfo.ltrans6.ltrans.o
                                                  C:\cygwin64\tmp\ccWFxnfo.ltrans4.ltrans.o
loadCustomServoMixer                              C:\cygwin64\tmp\ccWFxnfo.ltrans7.ltrans.o
                                                  C:\cygwin64\tmp\ccWFxnfo.ltrans1.ltrans.o
                                                  C:\cygwin64\tmp\ccWFxnfo.ltrans0.ltrans.o
loadMainState.10734                               C:\cygwin64\tmp\ccWFxnfo.ltrans16.ltrans.o
                                                  C:\cygwin64\tmp\ccWFxnfo.ltrans9.ltrans.o
log2f                                             c:/dev/gcc-arm-none-eabi-4_8-2014q2/bin/../lib/gcc/arm-none-eabi/4.8.4/../../../../arm-none-eabi/lib/armv7-m\libm.a(lib_a-sf_log2.o)
                                                  C:\cygwin64\tmp\ccWFxnfo.ltrans14.ltrans.o
logf                                              c:/dev/gcc-arm-none-eabi-4_8-2014q2/bin/../lib/gcc/arm-none-eabi/4.8.4/../../../../arm-none-eabi/lib/armv7-m\libm.a(lib_a-wf_log.o)
                                                  c:/dev/gcc-arm-none-eabi-4_8-2014q2/bin/../lib/gcc/arm-none-eabi/4.8.4/../../../../arm-none-eabi/lib/armv7-m\libm.a(lib_a-sf_log2.o)
lookupPitchRollRC.12943                           C:\cygwin64\tmp\ccWFxnfo.ltrans2.ltrans.o
                                                  C:\cygwin64\tmp\ccWFxnfo.ltrans7.ltrans.o
lookupTableAlignment.16711                        C:\cygwin64\tmp\ccWFxnfo.ltrans5.ltrans.o
lookupTableAmperageMeter.16715                    C:\cygwin64\tmp\ccWFxnfo.ltrans5.ltrans.o
lookupTableBlackboxDevice.16714                   C:\cygwin64\tmp\ccWFxnfo.ltrans5.ltrans.o
lookupTableDebug.16709                            C:\cygwin64\tmp\ccWFxnfo.ltrans5.ltrans.o
lookupTableGPSProvider.16712                      C:\cygwin64\tmp\ccWFxnfo.ltrans5.ltrans.o
lookupTableGPSSBASMode.16713                      C:\cygwin64\tmp\ccWFxnfo.ltrans5.ltrans.o
lookupTableGimbalMode.16716                       C:\cygwin64\tmp\ccWFxnfo.ltrans5.ltrans.o
lookupTableGyroFilter.16718                       C:\cygwin64\tmp\ccWFxnfo.ltrans5.ltrans.o
lookupTableGyroLpf.16719                          C:\cygwin64\tmp\ccWFxnfo.ltrans5.ltrans.o
lookupTableHorizonTiltMode.16722                  C:\cygwin64\tmp\ccWFxnfo.ltrans5.ltrans.o
lookupTableLowpassType.16721                      C:\cygwin64\tmp\ccWFxnfo.ltrans5.ltrans.o
lookupTableOffOn.16708                            C:\cygwin64\tmp\ccWFxnfo.ltrans5.ltrans.o
lookupTablePidDeltaMethod.16720                   C:\cygwin64\tmp\ccWFxnfo.ltrans5.ltrans.o
lookupTableSerialRX.16717                         C:\cygwin64\tmp\ccWFxnfo.ltrans5.ltrans.o
lookupTableUnit.16710                             C:\cygwin64\tmp\ccWFxnfo.ltrans5.ltrans.o
lookupTables.16703                                C:\cygwin64\tmp\ccWFxnfo.ltrans5.ltrans.o
                                                  C:\cygwin64\tmp\ccWFxnfo.ltrans8.ltrans.o
lookupThrottleRC.12945                            C:\cygwin64\tmp\ccWFxnfo.ltrans2.ltrans.o
                                                  C:\cygwin64\tmp\ccWFxnfo.ltrans7.ltrans.o
lookupTimerIndex.7318                             C:\cygwin64\tmp\ccWFxnfo.ltrans7.ltrans.o
                                                  C:\cygwin64\tmp\ccWFxnfo.ltrans16.ltrans.o
                                                  C:\cygwin64\tmp\ccWFxnfo.ltrans12.ltrans.o
lookupYawRC.12944                                 C:\cygwin64\tmp\ccWFxnfo.ltrans2.ltrans.o
                                                  C:\cygwin64\tmp\ccWFxnfo.ltrans7.ltrans.o
lowestXValueForEast.8761                          C:\cygwin64\tmp\ccWFxnfo.ltrans11.ltrans.o
                                                  C:\cygwin64\tmp\ccWFxnfo.ltrans7.ltrans.o
lowestYValueForSouth.8759                         C:\cygwin64\tmp\ccWFxnfo.ltrans11.ltrans.o
                                                  C:\cygwin64\tmp\ccWFxnfo.ltrans7.ltrans.o
lrintf                                            c:/dev/gcc-arm-none-eabi-4_8-2014q2/bin/../lib/gcc/arm-none-eabi/4.8.4/../../../../arm-none-eabi/lib/armv7-m\libm.a(lib_a-sf_lrint.o)
                                                  C:\cygwin64\tmp\ccWFxnfo.ltrans25.ltrans.o
                                                  C:\cygwin64\tmp\ccWFxnfo.ltrans19.ltrans.o
                                                  C:\cygwin64\tmp\ccWFxnfo.ltrans15.ltrans.o
                                                  C:\cygwin64\tmp\ccWFxnfo.ltrans11.ltrans.o
                                                  C:\cygwin64\tmp\ccWFxnfo.ltrans7.ltrans.o
                                                  C:\cygwin64\tmp\ccWFxnfo.ltrans2.ltrans.o
ltmEnabled.9831                                   C:\cygwin64\tmp\ccWFxnfo.ltrans3.ltrans.o
                                                  C:\cygwin64\tmp\ccWFxnfo.ltrans23.ltrans.o
ltmPort.9807                                      C:\cygwin64\tmp\ccWFxnfo.ltrans3.ltrans.o
                                                  C:\cygwin64\tmp\ccWFxnfo.ltrans23.ltrans.o
                                                  C:\cygwin64\tmp\ccWFxnfo.ltrans14.ltrans.o
ltmPortSharing.9833                               C:\cygwin64\tmp\ccWFxnfo.ltrans0.ltrans.o
                                                  C:\cygwin64\tmp\ccWFxnfo.ltrans23.ltrans.o
ltm_finalise.9733                                 C:\cygwin64\tmp\ccWFxnfo.ltrans14.ltrans.o
                                                  C:\cygwin64\tmp\ccWFxnfo.ltrans3.ltrans.o
ltm_initialise_packet.9721                        C:\cygwin64\tmp\ccWFxnfo.ltrans14.ltrans.o
                                                  C:\cygwin64\tmp\ccWFxnfo.ltrans3.ltrans.o
ltm_serialise_16.9727                             C:\cygwin64\tmp\ccWFxnfo.ltrans14.ltrans.o
                                                  C:\cygwin64\tmp\ccWFxnfo.ltrans3.ltrans.o
ltm_serialise_32.9730                             C:\cygwin64\tmp\ccWFxnfo.ltrans14.ltrans.o
                                                  C:\cygwin64\tmp\ccWFxnfo.ltrans3.ltrans.o
ltm_serialise_8.9724                              C:\cygwin64\tmp\ccWFxnfo.ltrans14.ltrans.o
                                                  C:\cygwin64\tmp\ccWFxnfo.ltrans3.ltrans.o
m25p16_isReady                                    C:\cygwin64\tmp\ccWFxnfo.ltrans13.ltrans.o
                                                  C:\cygwin64\tmp\ccWFxnfo.ltrans24.ltrans.o
                                                  C:\cygwin64\tmp\ccWFxnfo.ltrans18.ltrans.o
                                                  C:\cygwin64\tmp\ccWFxnfo.ltrans11.ltrans.o
                                                  C:\cygwin64\tmp\ccWFxnfo.ltrans1.ltrans.o
m25p16_readBytes                                  C:\cygwin64\tmp\ccWFxnfo.ltrans11.ltrans.o
                                                  C:\cygwin64\tmp\ccWFxnfo.ltrans1.ltrans.o
                                                  C:\cygwin64\tmp\ccWFxnfo.ltrans0.ltrans.o
m25p16_waitForReady                               C:\cygwin64\tmp\ccWFxnfo.ltrans11.ltrans.o
                                                  C:\cygwin64\tmp\ccWFxnfo.ltrans24.ltrans.o
                                                  C:\cygwin64\tmp\ccWFxnfo.ltrans18.ltrans.o
mag                                               C:\cygwin64\tmp\ccWFxnfo.ltrans17.ltrans.o
                                                  C:\cygwin64\tmp\ccWFxnfo.ltrans25.ltrans.o
magADC                                            C:\cygwin64\tmp\ccWFxnfo.ltrans1.ltrans.o
                                                  C:\cygwin64\tmp\ccWFxnfo.ltrans25.ltrans.o
                                                  C:\cygwin64\tmp\ccWFxnfo.ltrans16.ltrans.o
                                                  C:\cygwin64\tmp\ccWFxnfo.ltrans15.ltrans.o
magAlign                                          C:\cygwin64\tmp\ccWFxnfo.ltrans17.ltrans.o
                                                  C:\cygwin64\tmp\ccWFxnfo.ltrans25.ltrans.o
magGain.5864                                      C:\cygwin64\tmp\ccWFxnfo.ltrans19.ltrans.o
                                                  C:\cygwin64\tmp\ccWFxnfo.ltrans13.ltrans.o
magHold                                           C:\cygwin64\tmp\ccWFxnfo.ltrans2.ltrans.o
                                                  C:\cygwin64\tmp\ccWFxnfo.ltrans24.ltrans.o
                                                  C:\cygwin64\tmp\ccWFxnfo.ltrans4.ltrans.o
                                                  C:\cygwin64\tmp\ccWFxnfo.ltrans1.ltrans.o
magInit.18600                                     C:\cygwin64\tmp\ccWFxnfo.ltrans17.ltrans.o
                                                  C:\cygwin64\tmp\ccWFxnfo.ltrans25.ltrans.o
magneticDeclination                               C:\cygwin64\tmp\ccWFxnfo.ltrans25.ltrans.o
                                                  C:\cygwin64\tmp\ccWFxnfo.ltrans15.ltrans.o
main                                              C:\cygwin64\tmp\ccWFxnfo.ltrans0.ltrans.o
                                                  obj/main/NAZE/startup_stm32f10x_md_gcc.o
malloc                                            c:/dev/gcc-arm-none-eabi-4_8-2014q2/bin/../lib/gcc/arm-none-eabi/4.8.4/../../../../arm-none-eabi/lib/armv7-m\libc_s.a(lib_a-malloc.o)
                                                  c:/dev/gcc-arm-none-eabi-4_8-2014q2/bin/../lib/gcc/arm-none-eabi/4.8.4/../../../../arm-none-eabi/lib/armv7-m\libc_s.a(lib_a-strtok.o)
matherr                                           c:/dev/gcc-arm-none-eabi-4_8-2014q2/bin/../lib/gcc/arm-none-eabi/4.8.4/../../../../arm-none-eabi/lib/armv7-m\libm.a(lib_a-s_matherr.o)
                                                  c:/dev/gcc-arm-none-eabi-4_8-2014q2/bin/../lib/gcc/arm-none-eabi/4.8.4/../../../../arm-none-eabi/lib/armv7-m\libm.a(lib_a-wf_sqrt.o)
                                                  c:/dev/gcc-arm-none-eabi-4_8-2014q2/bin/../lib/gcc/arm-none-eabi/4.8.4/../../../../arm-none-eabi/lib/armv7-m\libm.a(lib_a-wf_pow.o)
                                                  c:/dev/gcc-arm-none-eabi-4_8-2014q2/bin/../lib/gcc/arm-none-eabi/4.8.4/../../../../arm-none-eabi/lib/armv7-m\libm.a(lib_a-wf_log.o)
mavBuffer.10103                                   C:\cygwin64\tmp\ccWFxnfo.ltrans3.ltrans.o
                                                  C:\cygwin64\tmp\ccWFxnfo.ltrans8.ltrans.o
mavMsg.10102                                      C:\cygwin64\tmp\ccWFxnfo.ltrans3.ltrans.o
                                                  C:\cygwin64\tmp\ccWFxnfo.ltrans8.ltrans.o
mavlinkPort.10123                                 C:\cygwin64\tmp\ccWFxnfo.ltrans3.ltrans.o
                                                  C:\cygwin64\tmp\ccWFxnfo.ltrans23.ltrans.o
                                                  C:\cygwin64\tmp\ccWFxnfo.ltrans8.ltrans.o
mavlinkPortSharing.10142                          C:\cygwin64\tmp\ccWFxnfo.ltrans0.ltrans.o
                                                  C:\cygwin64\tmp\ccWFxnfo.ltrans23.ltrans.o
mavlinkSerialWrite.10011.constprop.83             C:\cygwin64\tmp\ccWFxnfo.ltrans8.ltrans.o
                                                  C:\cygwin64\tmp\ccWFxnfo.ltrans3.ltrans.o
mavlinkStreamTrigger.9898                         C:\cygwin64\tmp\ccWFxnfo.ltrans7.ltrans.o
                                                  C:\cygwin64\tmp\ccWFxnfo.ltrans3.ltrans.o
mavlinkTelemetryEnabled.10140                     C:\cygwin64\tmp\ccWFxnfo.ltrans3.ltrans.o
                                                  C:\cygwin64\tmp\ccWFxnfo.ltrans23.ltrans.o
mavlink_finalize_message_chan.9883.constprop.80   C:\cygwin64\tmp\ccWFxnfo.ltrans8.ltrans.o
                                                  C:\cygwin64\tmp\ccWFxnfo.ltrans3.ltrans.o
mavlink_msg_to_send_buffer.9921.constprop.82      C:\cygwin64\tmp\ccWFxnfo.ltrans8.ltrans.o
                                                  C:\cygwin64\tmp\ccWFxnfo.ltrans3.ltrans.o
measurement.6368                                  C:\cygwin64\tmp\ccWFxnfo.ltrans8.ltrans.o
                                                  C:\cygwin64\tmp\ccWFxnfo.ltrans14.ltrans.o
memcmp                                            c:/dev/gcc-arm-none-eabi-4_8-2014q2/bin/../lib/gcc/arm-none-eabi/4.8.4/../../../../arm-none-eabi/lib/armv7-m\libg_s.a(lib_a-memcmp.o)
                                                  C:\cygwin64\tmp\ccWFxnfo.ltrans20.ltrans.o
                                                  C:\cygwin64\tmp\ccWFxnfo.ltrans9.ltrans.o
memcpy                                            c:/dev/gcc-arm-none-eabi-4_8-2014q2/bin/../lib/gcc/arm-none-eabi/4.8.4/../../../../arm-none-eabi/lib/armv7-m\libc_s.a(lib_a-memcpy-stub.o)
                                                  C:\cygwin64\tmp\ccWFxnfo.ltrans25.ltrans.o
                                                  C:\cygwin64\tmp\ccWFxnfo.ltrans22.ltrans.o
                                                  C:\cygwin64\tmp\ccWFxnfo.ltrans18.ltrans.o
                                                  C:\cygwin64\tmp\ccWFxnfo.ltrans14.ltrans.o
                                                  C:\cygwin64\tmp\ccWFxnfo.ltrans8.ltrans.o
                                                  C:\cygwin64\tmp\ccWFxnfo.ltrans7.ltrans.o
memmove                                           c:/dev/gcc-arm-none-eabi-4_8-2014q2/bin/../lib/gcc/arm-none-eabi/4.8.4/../../../../arm-none-eabi/lib/armv7-m\libg_s.a(lib_a-memmove.o)
                                                  C:\cygwin64\tmp\ccWFxnfo.ltrans6.ltrans.o
                                                  C:\cygwin64\tmp\ccWFxnfo.ltrans3.ltrans.o
memset                                            c:/dev/gcc-arm-none-eabi-4_8-2014q2/bin/../lib/gcc/arm-none-eabi/4.8.4/../../../../arm-none-eabi/lib/armv7-m\libg_s.a(lib_a-memset.o)
                                                  C:\cygwin64\tmp\ccWFxnfo.ltrans28.ltrans.o
                                                  C:\cygwin64\tmp\ccWFxnfo.ltrans27.ltrans.o
                                                  C:\cygwin64\tmp\ccWFxnfo.ltrans25.ltrans.o
                                                  C:\cygwin64\tmp\ccWFxnfo.ltrans22.ltrans.o
                                                  C:\cygwin64\tmp\ccWFxnfo.ltrans21.ltrans.o
                                                  C:\cygwin64\tmp\ccWFxnfo.ltrans19.ltrans.o
                                                  C:\cygwin64\tmp\ccWFxnfo.ltrans17.ltrans.o
                                                  C:\cygwin64\tmp\ccWFxnfo.ltrans14.ltrans.o
                                                  C:\cygwin64\tmp\ccWFxnfo.ltrans12.ltrans.o
                                                  C:\cygwin64\tmp\ccWFxnfo.ltrans8.ltrans.o
                                                  C:\cygwin64\tmp\ccWFxnfo.ltrans7.ltrans.o
                                                  C:\cygwin64\tmp\ccWFxnfo.ltrans6.ltrans.o
                                                  C:\cygwin64\tmp\ccWFxnfo.ltrans5.ltrans.o
                                                  C:\cygwin64\tmp\ccWFxnfo.ltrans1.ltrans.o
                                                  C:\cygwin64\tmp\ccWFxnfo.ltrans0.ltrans.o
micros                                            C:\cygwin64\tmp\ccWFxnfo.ltrans14.ltrans.o
                                                  C:\cygwin64\tmp\ccWFxnfo.ltrans24.ltrans.o
                                                  C:\cygwin64\tmp\ccWFxnfo.ltrans19.ltrans.o
                                                  C:\cygwin64\tmp\ccWFxnfo.ltrans15.ltrans.o
                                                  C:\cygwin64\tmp\ccWFxnfo.ltrans12.ltrans.o
                                                  C:\cygwin64\tmp\ccWFxnfo.ltrans11.ltrans.o
                                                  C:\cygwin64\tmp\ccWFxnfo.ltrans8.ltrans.o
                                                  C:\cygwin64\tmp\ccWFxnfo.ltrans6.ltrans.o
                                                  C:\cygwin64\tmp\ccWFxnfo.ltrans4.ltrans.o
                                                  C:\cygwin64\tmp\ccWFxnfo.ltrans3.ltrans.o
                                                  C:\cygwin64\tmp\ccWFxnfo.ltrans2.ltrans.o
                                                  C:\cygwin64\tmp\ccWFxnfo.ltrans0.ltrans.o
mixerAtail4.14893                                 C:\cygwin64\tmp\ccWFxnfo.ltrans0.ltrans.o
mixerBicopter.14881                               C:\cygwin64\tmp\ccWFxnfo.ltrans0.ltrans.o
mixerConfig_Registry                              C:\cygwin64\tmp\ccWFxnfo.ltrans0.ltrans.o
mixerConfig_System                                C:\cygwin64\tmp\ccWFxnfo.ltrans0.ltrans.o
                                                  C:\cygwin64\tmp\ccWFxnfo.ltrans27.ltrans.o
                                                  C:\cygwin64\tmp\ccWFxnfo.ltrans25.ltrans.o
                                                  C:\cygwin64\tmp\ccWFxnfo.ltrans20.ltrans.o
                                                  C:\cygwin64\tmp\ccWFxnfo.ltrans5.ltrans.o
                                                  C:\cygwin64\tmp\ccWFxnfo.ltrans4.ltrans.o
                                                  C:\cygwin64\tmp\ccWFxnfo.ltrans3.ltrans.o
                                                  C:\cygwin64\tmp\ccWFxnfo.ltrans2.ltrans.o
                                                  C:\cygwin64\tmp\ccWFxnfo.ltrans1.ltrans.o
mixerDualcopter.14892                             C:\cygwin64\tmp\ccWFxnfo.ltrans0.ltrans.o
mixerHex6H.14891                                  C:\cygwin64\tmp\ccWFxnfo.ltrans0.ltrans.o
mixerHex6P.14883                                  C:\cygwin64\tmp\ccWFxnfo.ltrans0.ltrans.o
mixerHex6X.14886                                  C:\cygwin64\tmp\ccWFxnfo.ltrans0.ltrans.o
mixerNames.16702                                  C:\cygwin64\tmp\ccWFxnfo.ltrans20.ltrans.o
                                                  C:\cygwin64\tmp\ccWFxnfo.ltrans8.ltrans.o
                                                  C:\cygwin64\tmp\ccWFxnfo.ltrans5.ltrans.o
mixerOctoFlatP.14888                              C:\cygwin64\tmp\ccWFxnfo.ltrans0.ltrans.o
mixerOctoFlatX.14889                              C:\cygwin64\tmp\ccWFxnfo.ltrans0.ltrans.o
mixerOctoX8.14887                                 C:\cygwin64\tmp\ccWFxnfo.ltrans0.ltrans.o
mixerQuadP.14879                                  C:\cygwin64\tmp\ccWFxnfo.ltrans0.ltrans.o
mixerQuadX.14880                                  C:\cygwin64\tmp\ccWFxnfo.ltrans0.ltrans.o
mixerResetDisarmedMotors                          C:\cygwin64\tmp\ccWFxnfo.ltrans12.ltrans.o
                                                  C:\cygwin64\tmp\ccWFxnfo.ltrans0.ltrans.o
mixerSingleProp.14884                             C:\cygwin64\tmp\ccWFxnfo.ltrans0.ltrans.o
mixerTricopter.14878                              C:\cygwin64\tmp\ccWFxnfo.ltrans0.ltrans.o
mixerVtail4.14890                                 C:\cygwin64\tmp\ccWFxnfo.ltrans0.ltrans.o
mixerY4.14885                                     C:\cygwin64\tmp\ccWFxnfo.ltrans0.ltrans.o
mixerY6.14882                                     C:\cygwin64\tmp\ccWFxnfo.ltrans0.ltrans.o
mixers                                            C:\cygwin64\tmp\ccWFxnfo.ltrans0.ltrans.o
                                                  C:\cygwin64\tmp\ccWFxnfo.ltrans5.ltrans.o
mma8452Init.4961                                  C:\cygwin64\tmp\ccWFxnfo.ltrans13.ltrans.o
                                                  C:\cygwin64\tmp\ccWFxnfo.ltrans17.ltrans.o
mma8452Read.4953                                  C:\cygwin64\tmp\ccWFxnfo.ltrans13.ltrans.o
                                                  C:\cygwin64\tmp\ccWFxnfo.ltrans17.ltrans.o
modeActivationProfile_ProfileCurrent              C:\cygwin64\tmp\ccWFxnfo.ltrans0.ltrans.o
                                                  C:\cygwin64\tmp\ccWFxnfo.ltrans27.ltrans.o
                                                  C:\cygwin64\tmp\ccWFxnfo.ltrans25.ltrans.o
                                                  C:\cygwin64\tmp\ccWFxnfo.ltrans12.ltrans.o
                                                  C:\cygwin64\tmp\ccWFxnfo.ltrans4.ltrans.o
                                                  C:\cygwin64\tmp\ccWFxnfo.ltrans1.ltrans.o
modeActivationProfile_Registry                    C:\cygwin64\tmp\ccWFxnfo.ltrans0.ltrans.o
modeColors_Registry                               C:\cygwin64\tmp\ccWFxnfo.ltrans1.ltrans.o
modeColors_SystemArray                            C:\cygwin64\tmp\ccWFxnfo.ltrans1.ltrans.o
                                                  C:\cygwin64\tmp\ccWFxnfo.ltrans11.ltrans.o
                                                  C:\cygwin64\tmp\ccWFxnfo.ltrans5.ltrans.o
motor                                             C:\cygwin64\tmp\ccWFxnfo.ltrans2.ltrans.o
                                                  C:\cygwin64\tmp\ccWFxnfo.ltrans16.ltrans.o
                                                  C:\cygwin64\tmp\ccWFxnfo.ltrans12.ltrans.o
                                                  C:\cygwin64\tmp\ccWFxnfo.ltrans1.ltrans.o
motor3DConfig_Registry                            C:\cygwin64\tmp\ccWFxnfo.ltrans2.ltrans.o
motor3DConfig_System                              C:\cygwin64\tmp\ccWFxnfo.ltrans2.ltrans.o
                                                  C:\cygwin64\tmp\ccWFxnfo.ltrans12.ltrans.o
                                                  C:\cygwin64\tmp\ccWFxnfo.ltrans1.ltrans.o
motorConfig_Registry                              C:\cygwin64\tmp\ccWFxnfo.ltrans0.ltrans.o
motorConfig_System                                C:\cygwin64\tmp\ccWFxnfo.ltrans0.ltrans.o
                                                  C:\cygwin64\tmp\ccWFxnfo.ltrans12.ltrans.o
                                                  C:\cygwin64\tmp\ccWFxnfo.ltrans9.ltrans.o
                                                  C:\cygwin64\tmp\ccWFxnfo.ltrans7.ltrans.o
                                                  C:\cygwin64\tmp\ccWFxnfo.ltrans2.ltrans.o
                                                  C:\cygwin64\tmp\ccWFxnfo.ltrans1.ltrans.o
motorControlEnable                                C:\cygwin64\tmp\ccWFxnfo.ltrans0.ltrans.o
                                                  C:\cygwin64\tmp\ccWFxnfo.ltrans2.ltrans.o
motorCount                                        C:\cygwin64\tmp\ccWFxnfo.ltrans0.ltrans.o
                                                  C:\cygwin64\tmp\ccWFxnfo.ltrans27.ltrans.o
                                                  C:\cygwin64\tmp\ccWFxnfo.ltrans16.ltrans.o
                                                  C:\cygwin64\tmp\ccWFxnfo.ltrans12.ltrans.o
                                                  C:\cygwin64\tmp\ccWFxnfo.ltrans9.ltrans.o
                                                  C:\cygwin64\tmp\ccWFxnfo.ltrans2.ltrans.o
motor_disarmed                                    C:\cygwin64\tmp\ccWFxnfo.ltrans2.ltrans.o
                                                  C:\cygwin64\tmp\ccWFxnfo.ltrans12.ltrans.o
                                                  C:\cygwin64\tmp\ccWFxnfo.ltrans5.ltrans.o
                                                  C:\cygwin64\tmp\ccWFxnfo.ltrans1.ltrans.o
motors.6695                                       C:\cygwin64\tmp\ccWFxnfo.ltrans0.ltrans.o
                                                  C:\cygwin64\tmp\ccWFxnfo.ltrans26.ltrans.o
                                                  C:\cygwin64\tmp\ccWFxnfo.ltrans12.ltrans.o
mpu3050Init.5110                                  C:\cygwin64\tmp\ccWFxnfo.ltrans6.ltrans.o
                                                  C:\cygwin64\tmp\ccWFxnfo.ltrans17.ltrans.o
mpu3050ReadTemp.5104                              C:\cygwin64\tmp\ccWFxnfo.ltrans26.ltrans.o
                                                  C:\cygwin64\tmp\ccWFxnfo.ltrans17.ltrans.o
mpu6050AccInit.5156                               C:\cygwin64\tmp\ccWFxnfo.ltrans19.ltrans.o
                                                  C:\cygwin64\tmp\ccWFxnfo.ltrans17.ltrans.o
mpu6050GyroInit.5173                              C:\cygwin64\tmp\ccWFxnfo.ltrans19.ltrans.o
                                                  C:\cygwin64\tmp\ccWFxnfo.ltrans17.ltrans.o
mpu6500AccInit                                    C:\cygwin64\tmp\ccWFxnfo.ltrans19.ltrans.o
                                                  C:\cygwin64\tmp\ccWFxnfo.ltrans17.ltrans.o
mpu6500GyroInit                                   C:\cygwin64\tmp\ccWFxnfo.ltrans19.ltrans.o
                                                  C:\cygwin64\tmp\ccWFxnfo.ltrans17.ltrans.o
mpu6500ReadRegister                               C:\cygwin64\tmp\ccWFxnfo.ltrans11.ltrans.o
                                                  C:\cygwin64\tmp\ccWFxnfo.ltrans17.ltrans.o
mpu6500ReadTemp.5226                              C:\cygwin64\tmp\ccWFxnfo.ltrans26.ltrans.o
                                                  C:\cygwin64\tmp\ccWFxnfo.ltrans17.ltrans.o
mpu6500WriteRegister                              C:\cygwin64\tmp\ccWFxnfo.ltrans13.ltrans.o
                                                  C:\cygwin64\tmp\ccWFxnfo.ltrans17.ltrans.o
mpuAccRead                                        C:\cygwin64\tmp\ccWFxnfo.ltrans26.ltrans.o
                                                  C:\cygwin64\tmp\ccWFxnfo.ltrans17.ltrans.o
mpuConfiguration                                  C:\cygwin64\tmp\ccWFxnfo.ltrans17.ltrans.o
                                                  C:\cygwin64\tmp\ccWFxnfo.ltrans26.ltrans.o
                                                  C:\cygwin64\tmp\ccWFxnfo.ltrans19.ltrans.o
                                                  C:\cygwin64\tmp\ccWFxnfo.ltrans6.ltrans.o
mpuDetectionResult                                C:\cygwin64\tmp\ccWFxnfo.ltrans17.ltrans.o
                                                  C:\cygwin64\tmp\ccWFxnfo.ltrans19.ltrans.o
mpuGyroRead                                       C:\cygwin64\tmp\ccWFxnfo.ltrans26.ltrans.o
                                                  C:\cygwin64\tmp\ccWFxnfo.ltrans17.ltrans.o
mpuIntDenominator                                 C:\cygwin64\tmp\ccWFxnfo.ltrans19.ltrans.o
                                                  C:\cygwin64\tmp\ccWFxnfo.ltrans7.ltrans.o
mpuIntExtiConfig.5097                             C:\cygwin64\tmp\ccWFxnfo.ltrans17.ltrans.o
                                                  C:\cygwin64\tmp\ccWFxnfo.ltrans19.ltrans.o
mpuIntExtiHandler                                 C:\cygwin64\tmp\ccWFxnfo.ltrans7.ltrans.o
                                                  C:\cygwin64\tmp\ccWFxnfo.ltrans19.ltrans.o
mpuReadRegisterI2C.5026                           C:\cygwin64\tmp\ccWFxnfo.ltrans13.ltrans.o
                                                  C:\cygwin64\tmp\ccWFxnfo.ltrans17.ltrans.o
mpuWriteRegisterI2C.5022                          C:\cygwin64\tmp\ccWFxnfo.ltrans13.ltrans.o
                                                  C:\cygwin64\tmp\ccWFxnfo.ltrans17.ltrans.o
ms5611_c.5610                                     C:\cygwin64\tmp\ccWFxnfo.ltrans17.ltrans.o
                                                  C:\cygwin64\tmp\ccWFxnfo.ltrans26.ltrans.o
ms5611_calculate.5569                             C:\cygwin64\tmp\ccWFxnfo.ltrans26.ltrans.o
                                                  C:\cygwin64\tmp\ccWFxnfo.ltrans17.ltrans.o
ms5611_get_up.5575                                C:\cygwin64\tmp\ccWFxnfo.ltrans13.ltrans.o
                                                  C:\cygwin64\tmp\ccWFxnfo.ltrans17.ltrans.o
ms5611_get_ut.5577                                C:\cygwin64\tmp\ccWFxnfo.ltrans13.ltrans.o
                                                  C:\cygwin64\tmp\ccWFxnfo.ltrans17.ltrans.o
ms5611_start_up.5582                              C:\cygwin64\tmp\ccWFxnfo.ltrans13.ltrans.o
                                                  C:\cygwin64\tmp\ccWFxnfo.ltrans17.ltrans.o
ms5611_start_ut.5584                              C:\cygwin64\tmp\ccWFxnfo.ltrans13.ltrans.o
                                                  C:\cygwin64\tmp\ccWFxnfo.ltrans17.ltrans.o
ms5611_up.5612                                    C:\cygwin64\tmp\ccWFxnfo.ltrans13.ltrans.o
                                                  C:\cygwin64\tmp\ccWFxnfo.ltrans26.ltrans.o
ms5611_ut.5611                                    C:\cygwin64\tmp\ccWFxnfo.ltrans13.ltrans.o
                                                  C:\cygwin64\tmp\ccWFxnfo.ltrans26.ltrans.o
msp4WayIfFn                                       C:\cygwin64\tmp\ccWFxnfo.ltrans18.ltrans.o
                                                  C:\cygwin64\tmp\ccWFxnfo.ltrans1.ltrans.o
mspFrame.17294                                    C:\cygwin64\tmp\ccWFxnfo.ltrans1.ltrans.o
                                                  C:\cygwin64\tmp\ccWFxnfo.ltrans7.ltrans.o
mspPorts                                          C:\cygwin64\tmp\ccWFxnfo.ltrans0.ltrans.o
                                                  C:\cygwin64\tmp\ccWFxnfo.ltrans28.ltrans.o
                                                  C:\cygwin64\tmp\ccWFxnfo.ltrans19.ltrans.o
                                                  C:\cygwin64\tmp\ccWFxnfo.ltrans1.ltrans.o
mspRebootFn                                       C:\cygwin64\tmp\ccWFxnfo.ltrans12.ltrans.o
                                                  C:\cygwin64\tmp\ccWFxnfo.ltrans1.ltrans.o
mspSerialAllocatePorts                            C:\cygwin64\tmp\ccWFxnfo.ltrans28.ltrans.o
                                                  C:\cygwin64\tmp\ccWFxnfo.ltrans4.ltrans.o
                                                  C:\cygwin64\tmp\ccWFxnfo.ltrans2.ltrans.o
                                                  C:\cygwin64\tmp\ccWFxnfo.ltrans0.ltrans.o
mspSerialEncode                                   C:\cygwin64\tmp\ccWFxnfo.ltrans21.ltrans.o
                                                  C:\cygwin64\tmp\ccWFxnfo.ltrans1.ltrans.o
mspSerialPassthroughFn                            C:\cygwin64\tmp\ccWFxnfo.ltrans19.ltrans.o
                                                  C:\cygwin64\tmp\ccWFxnfo.ltrans1.ltrans.o
mspSerialProcess                                  C:\cygwin64\tmp\ccWFxnfo.ltrans1.ltrans.o
                                                  C:\cygwin64\tmp\ccWFxnfo.ltrans28.ltrans.o
mspSerialReleasePortIfAllocated                   C:\cygwin64\tmp\ccWFxnfo.ltrans19.ltrans.o
                                                  C:\cygwin64\tmp\ccWFxnfo.ltrans27.ltrans.o
                                                  C:\cygwin64\tmp\ccWFxnfo.ltrans4.ltrans.o
mspServerConfig_Registry                          C:\cygwin64\tmp\ccWFxnfo.ltrans1.ltrans.o
mwArm                                             C:\cygwin64\tmp\ccWFxnfo.ltrans27.ltrans.o
                                                  C:\cygwin64\tmp\ccWFxnfo.ltrans4.ltrans.o
mwDisarm                                          C:\cygwin64\tmp\ccWFxnfo.ltrans18.ltrans.o
                                                  C:\cygwin64\tmp\ccWFxnfo.ltrans4.ltrans.o
nan                                               c:/dev/gcc-arm-none-eabi-4_8-2014q2/bin/../lib/gcc/arm-none-eabi/4.8.4/../../../../arm-none-eabi/lib/armv7-m\libm.a(lib_a-s_nan.o)
                                                  c:/dev/gcc-arm-none-eabi-4_8-2014q2/bin/../lib/gcc/arm-none-eabi/4.8.4/../../../../arm-none-eabi/lib/armv7-m\libm.a(lib_a-wf_log.o)
nanf                                              c:/dev/gcc-arm-none-eabi-4_8-2014q2/bin/../lib/gcc/arm-none-eabi/4.8.4/../../../../arm-none-eabi/lib/armv7-m\libm.a(lib_a-sf_nan.o)
                                                  c:/dev/gcc-arm-none-eabi-4_8-2014q2/bin/../lib/gcc/arm-none-eabi/4.8.4/../../../../arm-none-eabi/lib/armv7-m\libm.a(lib_a-ef_pow.o)
nav.8043                                          C:\cygwin64\tmp\ccWFxnfo.ltrans2.ltrans.o
                                                  C:\cygwin64\tmp\ccWFxnfo.ltrans24.ltrans.o
                                                  C:\cygwin64\tmp\ccWFxnfo.ltrans4.ltrans.o
navPID.8044                                       C:\cygwin64\tmp\ccWFxnfo.ltrans4.ltrans.o
                                                  C:\cygwin64\tmp\ccWFxnfo.ltrans24.ltrans.o
navPID_PARAM.8011                                 C:\cygwin64\tmp\ccWFxnfo.ltrans24.ltrans.o
                                                  C:\cygwin64\tmp\ccWFxnfo.ltrans7.ltrans.o
nav_bearing.8038                                  C:\cygwin64\tmp\ccWFxnfo.ltrans24.ltrans.o
                                                  C:\cygwin64\tmp\ccWFxnfo.ltrans10.ltrans.o
nav_mode                                          C:\cygwin64\tmp\ccWFxnfo.ltrans4.ltrans.o
                                                  C:\cygwin64\tmp\ccWFxnfo.ltrans24.ltrans.o
                                                  C:\cygwin64\tmp\ccWFxnfo.ltrans1.ltrans.o
nav_rated.8074                                    C:\cygwin64\tmp\ccWFxnfo.ltrans2.ltrans.o
                                                  C:\cygwin64\tmp\ccWFxnfo.ltrans4.ltrans.o
nav_takeoff_bearing.8056                          C:\cygwin64\tmp\ccWFxnfo.ltrans24.ltrans.o
                                                  C:\cygwin64\tmp\ccWFxnfo.ltrans7.ltrans.o
nopConsumer.20174                                 C:\cygwin64\tmp\ccWFxnfo.ltrans6.ltrans.o
                                                  C:\cygwin64\tmp\ccWFxnfo.ltrans19.ltrans.o
nullFilterApply                                   C:\cygwin64\tmp\ccWFxnfo.ltrans14.ltrans.o
                                                  C:\cygwin64\tmp\ccWFxnfo.ltrans25.ltrans.o
nullFrameStatus.16991                             C:\cygwin64\tmp\ccWFxnfo.ltrans7.ltrans.o
                                                  C:\cygwin64\tmp\ccWFxnfo.ltrans0.ltrans.o
nullReadRawRC.16987                               C:\cygwin64\tmp\ccWFxnfo.ltrans7.ltrans.o
                                                  C:\cygwin64\tmp\ccWFxnfo.ltrans0.ltrans.o
onSerialRxPinChange                               C:\cygwin64\tmp\ccWFxnfo.ltrans21.ltrans.o
                                                  C:\cygwin64\tmp\ccWFxnfo.ltrans10.ltrans.o
onSerialTimer                                     C:\cygwin64\tmp\ccWFxnfo.ltrans21.ltrans.o
                                                  C:\cygwin64\tmp\ccWFxnfo.ltrans10.ltrans.o
openSerialPort                                    C:\cygwin64\tmp\ccWFxnfo.ltrans23.ltrans.o
                                                  C:\cygwin64\tmp\ccWFxnfo.ltrans29.ltrans.o
                                                  C:\cygwin64\tmp\ccWFxnfo.ltrans28.ltrans.o
                                                  C:\cygwin64\tmp\ccWFxnfo.ltrans27.ltrans.o
                                                  C:\cygwin64\tmp\ccWFxnfo.ltrans1.ltrans.o
                                                  C:\cygwin64\tmp\ccWFxnfo.ltrans0.ltrans.o
openSoftSerial                                    C:\cygwin64\tmp\ccWFxnfo.ltrans10.ltrans.o
                                                  C:\cygwin64\tmp\ccWFxnfo.ltrans23.ltrans.o
original_target_bearing.8036                      C:\cygwin64\tmp\ccWFxnfo.ltrans24.ltrans.o
                                                  C:\cygwin64\tmp\ccWFxnfo.ltrans10.ltrans.o
outboundBytesToIgnoreOnRxCount.10387              C:\cygwin64\tmp\ccWFxnfo.ltrans3.ltrans.o
                                                  C:\cygwin64\tmp\ccWFxnfo.ltrans23.ltrans.o
                                                  C:\cygwin64\tmp\ccWFxnfo.ltrans14.ltrans.o
parseRcChannels.constprop.26                      C:\cygwin64\tmp\ccWFxnfo.ltrans8.ltrans.o
                                                  C:\cygwin64\tmp\ccWFxnfo.ltrans22.ltrans.o
                                                  C:\cygwin64\tmp\ccWFxnfo.ltrans5.ltrans.o
passThroughPort.13595                             C:\cygwin64\tmp\ccWFxnfo.ltrans1.ltrans.o
                                                  C:\cygwin64\tmp\ccWFxnfo.ltrans19.ltrans.o
pgActivateProfile                                 C:\cygwin64\tmp\ccWFxnfo.ltrans21.ltrans.o
                                                  C:\cygwin64\tmp\ccWFxnfo.ltrans25.ltrans.o
                                                  C:\cygwin64\tmp\ccWFxnfo.ltrans22.ltrans.o
pgReset                                           C:\cygwin64\tmp\ccWFxnfo.ltrans21.ltrans.o
                                                  C:\cygwin64\tmp\ccWFxnfo.ltrans25.ltrans.o
                                                  C:\cygwin64\tmp\ccWFxnfo.ltrans22.ltrans.o
pgResetCurrent                                    C:\cygwin64\tmp\ccWFxnfo.ltrans14.ltrans.o
                                                  C:\cygwin64\tmp\ccWFxnfo.ltrans25.ltrans.o
                                                  C:\cygwin64\tmp\ccWFxnfo.ltrans8.ltrans.o
                                                  C:\cygwin64\tmp\ccWFxnfo.ltrans1.ltrans.o
pgResetFn_accelerometerConfig                     C:\cygwin64\tmp\ccWFxnfo.ltrans7.ltrans.o
                                                  C:\cygwin64\tmp\ccWFxnfo.ltrans2.ltrans.o
pgResetFn_amperageMeterConfig                     C:\cygwin64\tmp\ccWFxnfo.ltrans7.ltrans.o
                                                  C:\cygwin64\tmp\ccWFxnfo.ltrans2.ltrans.o
pgResetFn_channelRanges                           C:\cygwin64\tmp\ccWFxnfo.ltrans7.ltrans.o
                                                  C:\cygwin64\tmp\ccWFxnfo.ltrans4.ltrans.o
pgResetFn_colors                                  C:\cygwin64\tmp\ccWFxnfo.ltrans7.ltrans.o
                                                  C:\cygwin64\tmp\ccWFxnfo.ltrans1.ltrans.o
pgResetFn_controlRateProfiles                     C:\cygwin64\tmp\ccWFxnfo.ltrans7.ltrans.o
                                                  C:\cygwin64\tmp\ccWFxnfo.ltrans2.ltrans.o
pgResetFn_failsafeChannelConfigs                  C:\cygwin64\tmp\ccWFxnfo.ltrans12.ltrans.o
                                                  C:\cygwin64\tmp\ccWFxnfo.ltrans1.ltrans.o
pgResetFn_gpsConfig                               C:\cygwin64\tmp\ccWFxnfo.ltrans7.ltrans.o
                                                  C:\cygwin64\tmp\ccWFxnfo.ltrans0.ltrans.o
pgResetFn_ledConfigs                              C:\cygwin64\tmp\ccWFxnfo.ltrans7.ltrans.o
                                                  C:\cygwin64\tmp\ccWFxnfo.ltrans1.ltrans.o
pgResetFn_modeColors                              C:\cygwin64\tmp\ccWFxnfo.ltrans7.ltrans.o
                                                  C:\cygwin64\tmp\ccWFxnfo.ltrans1.ltrans.o
pgResetFn_serialConfig                            C:\cygwin64\tmp\ccWFxnfo.ltrans7.ltrans.o
                                                  C:\cygwin64\tmp\ccWFxnfo.ltrans28.ltrans.o
pgResetFn_servoProfile                            C:\cygwin64\tmp\ccWFxnfo.ltrans7.ltrans.o
                                                  C:\cygwin64\tmp\ccWFxnfo.ltrans1.ltrans.o
pgResetFn_specialColors                           C:\cygwin64\tmp\ccWFxnfo.ltrans7.ltrans.o
                                                  C:\cygwin64\tmp\ccWFxnfo.ltrans1.ltrans.o
pgResetFn_voltageMeterConfig                      C:\cygwin64\tmp\ccWFxnfo.ltrans7.ltrans.o
                                                  C:\cygwin64\tmp\ccWFxnfo.ltrans2.ltrans.o
pgResetInstance.19078                             C:\cygwin64\tmp\ccWFxnfo.ltrans14.ltrans.o
                                                  C:\cygwin64\tmp\ccWFxnfo.ltrans25.ltrans.o
                                                  C:\cygwin64\tmp\ccWFxnfo.ltrans21.ltrans.o
pgResetTemplate_airplaneConfig                    C:\cygwin64\tmp\ccWFxnfo.ltrans2.ltrans.o
pgResetTemplate_armingConfig                      C:\cygwin64\tmp\ccWFxnfo.ltrans4.ltrans.o
pgResetTemplate_barometerConfig                   C:\cygwin64\tmp\ccWFxnfo.ltrans11.ltrans.o
pgResetTemplate_batteryConfig                     C:\cygwin64\tmp\ccWFxnfo.ltrans0.ltrans.o
pgResetTemplate_blackboxConfig                    C:\cygwin64\tmp\ccWFxnfo.ltrans2.ltrans.o
pgResetTemplate_compassConfig                     C:\cygwin64\tmp\ccWFxnfo.ltrans1.ltrans.o
pgResetTemplate_failsafeConfig                    C:\cygwin64\tmp\ccWFxnfo.ltrans4.ltrans.o
pgResetTemplate_flashchipConfig                   C:\cygwin64\tmp\ccWFxnfo.ltrans26.ltrans.o
pgResetTemplate_gpsProfile                        C:\cygwin64\tmp\ccWFxnfo.ltrans2.ltrans.o
pgResetTemplate_gtuneConfig                       C:\cygwin64\tmp\ccWFxnfo.ltrans2.ltrans.o
pgResetTemplate_gyroConfig                        C:\cygwin64\tmp\ccWFxnfo.ltrans0.ltrans.o
pgResetTemplate_hottTelemetryConfig               C:\cygwin64\tmp\ccWFxnfo.ltrans3.ltrans.o
pgResetTemplate_ibusTelemetryConfig               C:\cygwin64\tmp\ccWFxnfo.ltrans3.ltrans.o
pgResetTemplate_imuConfig                         C:\cygwin64\tmp\ccWFxnfo.ltrans2.ltrans.o
pgResetTemplate_mixerConfig                       C:\cygwin64\tmp\ccWFxnfo.ltrans0.ltrans.o
pgResetTemplate_motor3DConfig                     C:\cygwin64\tmp\ccWFxnfo.ltrans2.ltrans.o
pgResetTemplate_motorConfig                       C:\cygwin64\tmp\ccWFxnfo.ltrans0.ltrans.o
pgResetTemplate_pidProfile                        C:\cygwin64\tmp\ccWFxnfo.ltrans0.ltrans.o
pgResetTemplate_rcControlsConfig                  C:\cygwin64\tmp\ccWFxnfo.ltrans2.ltrans.o
pgResetTemplate_rxConfig                          C:\cygwin64\tmp\ccWFxnfo.ltrans0.ltrans.o
pgResetTemplate_servoConfig                       C:\cygwin64\tmp\ccWFxnfo.ltrans0.ltrans.o
pgResetTemplate_systemConfig                      C:\cygwin64\tmp\ccWFxnfo.ltrans0.ltrans.o
pgResetTemplate_telemetryConfig                   C:\cygwin64\tmp\ccWFxnfo.ltrans0.ltrans.o
pgResetTemplate_throttleCorrectionConfig          C:\cygwin64\tmp\ccWFxnfo.ltrans2.ltrans.o
pidDeltaUs                                        C:\cygwin64\tmp\ccWFxnfo.ltrans2.ltrans.o
                                                  C:\cygwin64\tmp\ccWFxnfo.ltrans12.ltrans.o
                                                  C:\cygwin64\tmp\ccWFxnfo.ltrans1.ltrans.o
pidInitFilters                                    C:\cygwin64\tmp\ccWFxnfo.ltrans15.ltrans.o
                                                  C:\cygwin64\tmp\ccWFxnfo.ltrans25.ltrans.o
                                                  C:\cygwin64\tmp\ccWFxnfo.ltrans0.ltrans.o
pidProfile_ProfileCurrent                         C:\cygwin64\tmp\ccWFxnfo.ltrans0.ltrans.o
                                                  C:\cygwin64\tmp\ccWFxnfo.ltrans27.ltrans.o
                                                  C:\cygwin64\tmp\ccWFxnfo.ltrans25.ltrans.o
                                                  C:\cygwin64\tmp\ccWFxnfo.ltrans11.ltrans.o
                                                  C:\cygwin64\tmp\ccWFxnfo.ltrans4.ltrans.o
                                                  C:\cygwin64\tmp\ccWFxnfo.ltrans2.ltrans.o
                                                  C:\cygwin64\tmp\ccWFxnfo.ltrans1.ltrans.o
pidProfile_Registry                               C:\cygwin64\tmp\ccWFxnfo.ltrans0.ltrans.o
                                                  C:\cygwin64\tmp\ccWFxnfo.ltrans1.ltrans.o
pidProfile_Storage.14454                          C:\cygwin64\tmp\ccWFxnfo.ltrans0.ltrans.o
port.15956                                        C:\cygwin64\tmp\ccWFxnfo.ltrans20.ltrans.o
                                                  C:\cygwin64\tmp\ccWFxnfo.ltrans22.ltrans.o
                                                  C:\cygwin64\tmp\ccWFxnfo.ltrans14.ltrans.o
portConfig.10141                                  C:\cygwin64\tmp\ccWFxnfo.ltrans0.ltrans.o
                                                  C:\cygwin64\tmp\ccWFxnfo.ltrans23.ltrans.o
portConfig.9203                                   C:\cygwin64\tmp\ccWFxnfo.ltrans0.ltrans.o
                                                  C:\cygwin64\tmp\ccWFxnfo.ltrans23.ltrans.o
portConfig.9494                                   C:\cygwin64\tmp\ccWFxnfo.ltrans0.ltrans.o
                                                  C:\cygwin64\tmp\ccWFxnfo.ltrans23.ltrans.o
                                                  C:\cygwin64\tmp\ccWFxnfo.ltrans3.ltrans.o
portConfig.9635                                   C:\cygwin64\tmp\ccWFxnfo.ltrans0.ltrans.o
                                                  C:\cygwin64\tmp\ccWFxnfo.ltrans23.ltrans.o
portConfig.9832                                   C:\cygwin64\tmp\ccWFxnfo.ltrans0.ltrans.o
                                                  C:\cygwin64\tmp\ccWFxnfo.ltrans23.ltrans.o
posholdPID_PARAM.8040                             C:\cygwin64\tmp\ccWFxnfo.ltrans24.ltrans.o
                                                  C:\cygwin64\tmp\ccWFxnfo.ltrans7.ltrans.o
poshold_ratePID.8042                              C:\cygwin64\tmp\ccWFxnfo.ltrans4.ltrans.o
                                                  C:\cygwin64\tmp\ccWFxnfo.ltrans24.ltrans.o
poshold_ratePID_PARAM.8010                        C:\cygwin64\tmp\ccWFxnfo.ltrans24.ltrans.o
                                                  C:\cygwin64\tmp\ccWFxnfo.ltrans7.ltrans.o
powf                                              c:/dev/gcc-arm-none-eabi-4_8-2014q2/bin/../lib/gcc/arm-none-eabi/4.8.4/../../../../arm-none-eabi/lib/armv7-m\libm.a(lib_a-wf_pow.o)
                                                  C:\cygwin64\tmp\ccWFxnfo.ltrans14.ltrans.o
                                                  C:\cygwin64\tmp\ccWFxnfo.ltrans11.ltrans.o
ppmDev                                            C:\cygwin64\tmp\ccWFxnfo.ltrans0.ltrans.o
                                                  C:\cygwin64\tmp\ccWFxnfo.ltrans26.ltrans.o
                                                  C:\cygwin64\tmp\ccWFxnfo.ltrans21.ltrans.o
ppmEdgeCallback.6819                              C:\cygwin64\tmp\ccWFxnfo.ltrans26.ltrans.o
                                                  C:\cygwin64\tmp\ccWFxnfo.ltrans0.ltrans.o
ppmEventIndex.6904                                C:\cygwin64\tmp\ccWFxnfo.ltrans21.ltrans.o
                                                  C:\cygwin64\tmp\ccWFxnfo.ltrans26.ltrans.o
ppmEvents.6905                                    C:\cygwin64\tmp\ccWFxnfo.ltrans21.ltrans.o
                                                  C:\cygwin64\tmp\ccWFxnfo.ltrans26.ltrans.o
ppmFrameCount.6902                                C:\cygwin64\tmp\ccWFxnfo.ltrans15.ltrans.o
                                                  C:\cygwin64\tmp\ccWFxnfo.ltrans26.ltrans.o
ppmOverflowCallback.6815                          C:\cygwin64\tmp\ccWFxnfo.ltrans21.ltrans.o
                                                  C:\cygwin64\tmp\ccWFxnfo.ltrans0.ltrans.o
ppmReadRawRC.17206                                C:\cygwin64\tmp\ccWFxnfo.ltrans7.ltrans.o
                                                  C:\cygwin64\tmp\ccWFxnfo.ltrans0.ltrans.o
printfSerialPort.19522                            C:\cygwin64\tmp\ccWFxnfo.ltrans1.ltrans.o
                                                  C:\cygwin64\tmp\ccWFxnfo.ltrans14.ltrans.o
                                                  C:\cygwin64\tmp\ccWFxnfo.ltrans8.ltrans.o
profileSelection_Registry                         C:\cygwin64\tmp\ccWFxnfo.ltrans2.ltrans.o
profileSelection_System                           C:\cygwin64\tmp\ccWFxnfo.ltrans2.ltrans.o
                                                  C:\cygwin64\tmp\ccWFxnfo.ltrans25.ltrans.o
                                                  C:\cygwin64\tmp\ccWFxnfo.ltrans22.ltrans.o
                                                  C:\cygwin64\tmp\ccWFxnfo.ltrans20.ltrans.o
                                                  C:\cygwin64\tmp\ccWFxnfo.ltrans1.ltrans.o
putchw.19439                                      C:\cygwin64\tmp\ccWFxnfo.ltrans14.ltrans.o
                                                  C:\cygwin64\tmp\ccWFxnfo.ltrans8.ltrans.o
putcp.19435                                       C:\cygwin64\tmp\ccWFxnfo.ltrans14.ltrans.o
                                                  C:\cygwin64\tmp\ccWFxnfo.ltrans5.ltrans.o
pwmEdgeCallback.6811                              C:\cygwin64\tmp\ccWFxnfo.ltrans6.ltrans.o
                                                  C:\cygwin64\tmp\ccWFxnfo.ltrans0.ltrans.o
pwmICConfig                                       C:\cygwin64\tmp\ccWFxnfo.ltrans6.ltrans.o
                                                  C:\cygwin64\tmp\ccWFxnfo.ltrans0.ltrans.o
pwmIOConfiguration.6510                           C:\cygwin64\tmp\ccWFxnfo.ltrans0.ltrans.o
                                                  C:\cygwin64\tmp\ccWFxnfo.ltrans1.ltrans.o
pwmMotorsEnabled.6698                             C:\cygwin64\tmp\ccWFxnfo.ltrans20.ltrans.o
                                                  C:\cygwin64\tmp\ccWFxnfo.ltrans12.ltrans.o
pwmOutConfig.6599                                 C:\cygwin64\tmp\ccWFxnfo.ltrans10.ltrans.o
                                                  C:\cygwin64\tmp\ccWFxnfo.ltrans0.ltrans.o
pwmOverflowCallback.6807                          C:\cygwin64\tmp\ccWFxnfo.ltrans26.ltrans.o
                                                  C:\cygwin64\tmp\ccWFxnfo.ltrans0.ltrans.o
pwmReadRawRC.17222                                C:\cygwin64\tmp\ccWFxnfo.ltrans7.ltrans.o
                                                  C:\cygwin64\tmp\ccWFxnfo.ltrans0.ltrans.o
pwmRxConfig_Registry                              C:\cygwin64\tmp\ccWFxnfo.ltrans6.ltrans.o
pwmWriteBrushed.6528                              C:\cygwin64\tmp\ccWFxnfo.ltrans26.ltrans.o
                                                  C:\cygwin64\tmp\ccWFxnfo.ltrans0.ltrans.o
pwmWriteServo                                     C:\cygwin64\tmp\ccWFxnfo.ltrans26.ltrans.o
                                                  C:\cygwin64\tmp\ccWFxnfo.ltrans2.ltrans.o
pwmWriteStandard.6532                             C:\cygwin64\tmp\ccWFxnfo.ltrans26.ltrans.o
                                                  C:\cygwin64\tmp\ccWFxnfo.ltrans0.ltrans.o
q0.14730                                          C:\cygwin64\tmp\ccWFxnfo.ltrans15.ltrans.o
                                                  C:\cygwin64\tmp\ccWFxnfo.ltrans7.ltrans.o
q1.14727                                          C:\cygwin64\tmp\ccWFxnfo.ltrans15.ltrans.o
                                                  C:\cygwin64\tmp\ccWFxnfo.ltrans7.ltrans.o
q2.14728                                          C:\cygwin64\tmp\ccWFxnfo.ltrans15.ltrans.o
                                                  C:\cygwin64\tmp\ccWFxnfo.ltrans7.ltrans.o
q3.14729                                          C:\cygwin64\tmp\ccWFxnfo.ltrans15.ltrans.o
                                                  C:\cygwin64\tmp\ccWFxnfo.ltrans7.ltrans.o
rMat.14731                                        C:\cygwin64\tmp\ccWFxnfo.ltrans2.ltrans.o
                                                  C:\cygwin64\tmp\ccWFxnfo.ltrans15.ltrans.o
                                                  C:\cygwin64\tmp\ccWFxnfo.ltrans11.ltrans.o
                                                  C:\cygwin64\tmp\ccWFxnfo.ltrans7.ltrans.o
                                                  C:\cygwin64\tmp\ccWFxnfo.ltrans4.ltrans.o
rateProfileSelection_Registry                     C:\cygwin64\tmp\ccWFxnfo.ltrans25.ltrans.o
rateProfileSelection_Storage.12492                C:\cygwin64\tmp\ccWFxnfo.ltrans25.ltrans.o
                                                  C:\cygwin64\tmp\ccWFxnfo.ltrans22.ltrans.o
rcChannelLetters                                  C:\cygwin64\tmp\ccWFxnfo.ltrans20.ltrans.o
                                                  C:\cygwin64\tmp\ccWFxnfo.ltrans8.ltrans.o
                                                  C:\cygwin64\tmp\ccWFxnfo.ltrans5.ltrans.o
rcCommand                                         C:\cygwin64\tmp\ccWFxnfo.ltrans2.ltrans.o
                                                  C:\cygwin64\tmp\ccWFxnfo.ltrans21.ltrans.o
                                                  C:\cygwin64\tmp\ccWFxnfo.ltrans16.ltrans.o
                                                  C:\cygwin64\tmp\ccWFxnfo.ltrans10.ltrans.o
                                                  C:\cygwin64\tmp\ccWFxnfo.ltrans4.ltrans.o
                                                  C:\cygwin64\tmp\ccWFxnfo.ltrans3.ltrans.o
rcControlsConfig_ProfileCurrent                   C:\cygwin64\tmp\ccWFxnfo.ltrans2.ltrans.o
                                                  C:\cygwin64\tmp\ccWFxnfo.ltrans10.ltrans.o
                                                  C:\cygwin64\tmp\ccWFxnfo.ltrans4.ltrans.o
                                                  C:\cygwin64\tmp\ccWFxnfo.ltrans3.ltrans.o
                                                  C:\cygwin64\tmp\ccWFxnfo.ltrans1.ltrans.o
rcControlsConfig_Registry                         C:\cygwin64\tmp\ccWFxnfo.ltrans2.ltrans.o
rcData                                            C:\cygwin64\tmp\ccWFxnfo.ltrans0.ltrans.o
                                                  C:\cygwin64\tmp\ccWFxnfo.ltrans12.ltrans.o
                                                  C:\cygwin64\tmp\ccWFxnfo.ltrans11.ltrans.o
                                                  C:\cygwin64\tmp\ccWFxnfo.ltrans7.ltrans.o
                                                  C:\cygwin64\tmp\ccWFxnfo.ltrans4.ltrans.o
                                                  C:\cygwin64\tmp\ccWFxnfo.ltrans3.ltrans.o
                                                  C:\cygwin64\tmp\ccWFxnfo.ltrans2.ltrans.o
                                                  C:\cygwin64\tmp\ccWFxnfo.ltrans1.ltrans.o
rcFrameComplete.17748                             C:\cygwin64\tmp\ccWFxnfo.ltrans6.ltrans.o
                                                  C:\cygwin64\tmp\ccWFxnfo.ltrans7.ltrans.o
rcInvalidPulsPeriod                               C:\cygwin64\tmp\ccWFxnfo.ltrans0.ltrans.o
                                                  C:\cygwin64\tmp\ccWFxnfo.ltrans4.ltrans.o
rcModeActivationMask.12863                        C:\cygwin64\tmp\ccWFxnfo.ltrans2.ltrans.o
                                                  C:\cygwin64\tmp\ccWFxnfo.ltrans27.ltrans.o
                                                  C:\cygwin64\tmp\ccWFxnfo.ltrans24.ltrans.o
                                                  C:\cygwin64\tmp\ccWFxnfo.ltrans12.ltrans.o
                                                  C:\cygwin64\tmp\ccWFxnfo.ltrans11.ltrans.o
                                                  C:\cygwin64\tmp\ccWFxnfo.ltrans4.ltrans.o
                                                  C:\cygwin64\tmp\ccWFxnfo.ltrans1.ltrans.o
rcModeIsActivationConditionPresent                C:\cygwin64\tmp\ccWFxnfo.ltrans7.ltrans.o
                                                  C:\cygwin64\tmp\ccWFxnfo.ltrans27.ltrans.o
                                                  C:\cygwin64\tmp\ccWFxnfo.ltrans25.ltrans.o
                                                  C:\cygwin64\tmp\ccWFxnfo.ltrans1.ltrans.o
rcSampleIndex.17131                               C:\cygwin64\tmp\ccWFxnfo.ltrans0.ltrans.o
                                                  C:\cygwin64\tmp\ccWFxnfo.ltrans4.ltrans.o
readByteCrc.15803                                 C:\cygwin64\tmp\ccWFxnfo.ltrans22.ltrans.o
                                                  C:\cygwin64\tmp\ccWFxnfo.ltrans20.ltrans.o
readEEPROM                                        C:\cygwin64\tmp\ccWFxnfo.ltrans25.ltrans.o
                                                  C:\cygwin64\tmp\ccWFxnfo.ltrans1.ltrans.o
                                                  C:\cygwin64\tmp\ccWFxnfo.ltrans0.ltrans.o
read_p.4274                                       C:\cygwin64\tmp\ccWFxnfo.ltrans13.ltrans.o
                                                  C:\cygwin64\tmp\ccWFxnfo.ltrans16.ltrans.o
reading.4268                                      C:\cygwin64\tmp\ccWFxnfo.ltrans13.ltrans.o
                                                  C:\cygwin64\tmp\ccWFxnfo.ltrans16.ltrans.o
realtimeGuardInterval.20089                       C:\cygwin64\tmp\ccWFxnfo.ltrans0.ltrans.o
                                                  C:\cygwin64\tmp\ccWFxnfo.ltrans6.ltrans.o
reevaluateLedConfig                               C:\cygwin64\tmp\ccWFxnfo.ltrans11.ltrans.o
                                                  C:\cygwin64\tmp\ccWFxnfo.ltrans21.ltrans.o
                                                  C:\cygwin64\tmp\ccWFxnfo.ltrans1.ltrans.o
                                                  C:\cygwin64\tmp\ccWFxnfo.ltrans0.ltrans.o
reg.4270                                          C:\cygwin64\tmp\ccWFxnfo.ltrans13.ltrans.o
                                                  C:\cygwin64\tmp\ccWFxnfo.ltrans16.ltrans.o
resetConf.13112                                   C:\cygwin64\tmp\ccWFxnfo.ltrans22.ltrans.o
                                                  C:\cygwin64\tmp\ccWFxnfo.ltrans15.ltrans.o
                                                  C:\cygwin64\tmp\ccWFxnfo.ltrans1.ltrans.o
                                                  C:\cygwin64\tmp\ccWFxnfo.ltrans0.ltrans.o
resumeRxSignal                                    C:\cygwin64\tmp\ccWFxnfo.ltrans12.ltrans.o
                                                  C:\cygwin64\tmp\ccWFxnfo.ltrans25.ltrans.o
                                                  C:\cygwin64\tmp\ccWFxnfo.ltrans22.ltrans.o
rint                                              c:/dev/gcc-arm-none-eabi-4_8-2014q2/bin/../lib/gcc/arm-none-eabi/4.8.4/../../../../arm-none-eabi/lib/armv7-m\libm.a(lib_a-s_rint.o)
                                                  c:/dev/gcc-arm-none-eabi-4_8-2014q2/bin/../lib/gcc/arm-none-eabi/4.8.4/../../../../arm-none-eabi/lib/armv7-m\libm.a(lib_a-wf_pow.o)
rssi                                              C:\cygwin64\tmp\ccWFxnfo.ltrans4.ltrans.o
                                                  C:\cygwin64\tmp\ccWFxnfo.ltrans16.ltrans.o
                                                  C:\cygwin64\tmp\ccWFxnfo.ltrans11.ltrans.o
                                                  C:\cygwin64\tmp\ccWFxnfo.ltrans3.ltrans.o
                                                  C:\cygwin64\tmp\ccWFxnfo.ltrans1.ltrans.o
rxConfig_Registry                                 C:\cygwin64\tmp\ccWFxnfo.ltrans0.ltrans.o
rxConfig_System                                   C:\cygwin64\tmp\ccWFxnfo.ltrans0.ltrans.o
                                                  C:\cygwin64\tmp\ccWFxnfo.ltrans29.ltrans.o
                                                  C:\cygwin64\tmp\ccWFxnfo.ltrans27.ltrans.o
                                                  C:\cygwin64\tmp\ccWFxnfo.ltrans20.ltrans.o
                                                  C:\cygwin64\tmp\ccWFxnfo.ltrans15.ltrans.o
                                                  C:\cygwin64\tmp\ccWFxnfo.ltrans12.ltrans.o
                                                  C:\cygwin64\tmp\ccWFxnfo.ltrans8.ltrans.o
                                                  C:\cygwin64\tmp\ccWFxnfo.ltrans5.ltrans.o
                                                  C:\cygwin64\tmp\ccWFxnfo.ltrans4.ltrans.o
                                                  C:\cygwin64\tmp\ccWFxnfo.ltrans2.ltrans.o
                                                  C:\cygwin64\tmp\ccWFxnfo.ltrans1.ltrans.o
rxFlightChannelsValid.17143                       C:\cygwin64\tmp\ccWFxnfo.ltrans4.ltrans.o
                                                  C:\cygwin64\tmp\ccWFxnfo.ltrans9.ltrans.o
rxIsInFailsafeMode.17141                          C:\cygwin64\tmp\ccWFxnfo.ltrans4.ltrans.o
                                                  C:\cygwin64\tmp\ccWFxnfo.ltrans15.ltrans.o
rxIsInFailsafeModeNotDataDriven.17140             C:\cygwin64\tmp\ccWFxnfo.ltrans4.ltrans.o
                                                  C:\cygwin64\tmp\ccWFxnfo.ltrans15.ltrans.o
rxMspFrameDone.17295                              C:\cygwin64\tmp\ccWFxnfo.ltrans1.ltrans.o
                                                  C:\cygwin64\tmp\ccWFxnfo.ltrans7.ltrans.o
rxMspFrameStatus                                  C:\cygwin64\tmp\ccWFxnfo.ltrans7.ltrans.o
                                                  C:\cygwin64\tmp\ccWFxnfo.ltrans15.ltrans.o
                                                  C:\cygwin64\tmp\ccWFxnfo.ltrans0.ltrans.o
rxMspReadRawRC.17252                              C:\cygwin64\tmp\ccWFxnfo.ltrans7.ltrans.o
                                                  C:\cygwin64\tmp\ccWFxnfo.ltrans0.ltrans.o
rxRuntimeConfig                                   C:\cygwin64\tmp\ccWFxnfo.ltrans0.ltrans.o
                                                  C:\cygwin64\tmp\ccWFxnfo.ltrans29.ltrans.o
                                                  C:\cygwin64\tmp\ccWFxnfo.ltrans7.ltrans.o
                                                  C:\cygwin64\tmp\ccWFxnfo.ltrans4.ltrans.o
                                                  C:\cygwin64\tmp\ccWFxnfo.ltrans3.ltrans.o
                                                  C:\cygwin64\tmp\ccWFxnfo.ltrans1.ltrans.o
rxRuntimeConfigPtr.17750                          C:\cygwin64\tmp\ccWFxnfo.ltrans29.ltrans.o
                                                  C:\cygwin64\tmp\ccWFxnfo.ltrans7.ltrans.o
rxSignalReceived.17128                            C:\cygwin64\tmp\ccWFxnfo.ltrans4.ltrans.o
                                                  C:\cygwin64\tmp\ccWFxnfo.ltrans21.ltrans.o
                                                  C:\cygwin64\tmp\ccWFxnfo.ltrans15.ltrans.o
                                                  C:\cygwin64\tmp\ccWFxnfo.ltrans9.ltrans.o
rxSignalReceivedNotDataDriven.17130               C:\cygwin64\tmp\ccWFxnfo.ltrans4.ltrans.o
                                                  C:\cygwin64\tmp\ccWFxnfo.ltrans15.ltrans.o
rxUpdateAt.17151                                  C:\cygwin64\tmp\ccWFxnfo.ltrans4.ltrans.o
                                                  C:\cygwin64\tmp\ccWFxnfo.ltrans15.ltrans.o
saveConfigAndNotify                               C:\cygwin64\tmp\ccWFxnfo.ltrans25.ltrans.o
                                                  C:\cygwin64\tmp\ccWFxnfo.ltrans4.ltrans.o
                                                  C:\cygwin64\tmp\ccWFxnfo.ltrans2.ltrans.o
                                                  C:\cygwin64\tmp\ccWFxnfo.ltrans0.ltrans.o
sbufReadU16                                       C:\cygwin64\tmp\ccWFxnfo.ltrans14.ltrans.o
                                                  C:\cygwin64\tmp\ccWFxnfo.ltrans1.ltrans.o
sbufReadU32                                       C:\cygwin64\tmp\ccWFxnfo.ltrans14.ltrans.o
                                                  C:\cygwin64\tmp\ccWFxnfo.ltrans1.ltrans.o
sbufWriteData                                     C:\cygwin64\tmp\ccWFxnfo.ltrans14.ltrans.o
                                                  C:\cygwin64\tmp\ccWFxnfo.ltrans1.ltrans.o
sbufWriteU16                                      C:\cygwin64\tmp\ccWFxnfo.ltrans14.ltrans.o
                                                  C:\cygwin64\tmp\ccWFxnfo.ltrans1.ltrans.o
sbufWriteU32                                      C:\cygwin64\tmp\ccWFxnfo.ltrans14.ltrans.o
                                                  C:\cygwin64\tmp\ccWFxnfo.ltrans1.ltrans.o
sbusChannelData.17387                             C:\cygwin64\tmp\ccWFxnfo.ltrans0.ltrans.o
                                                  C:\cygwin64\tmp\ccWFxnfo.ltrans7.ltrans.o
sbusDataReceive.17306                             C:\cygwin64\tmp\ccWFxnfo.ltrans14.ltrans.o
                                                  C:\cygwin64\tmp\ccWFxnfo.ltrans0.ltrans.o
sbusFrame.17390                                   C:\cygwin64\tmp\ccWFxnfo.ltrans14.ltrans.o
                                                  C:\cygwin64\tmp\ccWFxnfo.ltrans7.ltrans.o
sbusFrameDone.17416                               C:\cygwin64\tmp\ccWFxnfo.ltrans14.ltrans.o
                                                  C:\cygwin64\tmp\ccWFxnfo.ltrans7.ltrans.o
sbusFrameStatus                                   C:\cygwin64\tmp\ccWFxnfo.ltrans7.ltrans.o
                                                  C:\cygwin64\tmp\ccWFxnfo.ltrans15.ltrans.o
                                                  C:\cygwin64\tmp\ccWFxnfo.ltrans0.ltrans.o
sbusReadRawRC.17309                               C:\cygwin64\tmp\ccWFxnfo.ltrans7.ltrans.o
                                                  C:\cygwin64\tmp\ccWFxnfo.ltrans0.ltrans.o
scalbnf                                           c:/dev/gcc-arm-none-eabi-4_8-2014q2/bin/../lib/gcc/arm-none-eabi/4.8.4/../../../../arm-none-eabi/lib/armv7-m\libm.a(lib_a-sf_scalbn.o)
                                                  c:/dev/gcc-arm-none-eabi-4_8-2014q2/bin/../lib/gcc/arm-none-eabi/4.8.4/../../../../arm-none-eabi/lib/armv7-m\libm.a(lib_a-ef_pow.o)
scaledThrottle.8763                               C:\cygwin64\tmp\ccWFxnfo.ltrans21.ltrans.o
                                                  C:\cygwin64\tmp\ccWFxnfo.ltrans16.ltrans.o
                                                  C:\cygwin64\tmp\ccWFxnfo.ltrans11.ltrans.o
scanEEPROM.part.4.19147                           C:\cygwin64\tmp\ccWFxnfo.ltrans21.ltrans.o
                                                  C:\cygwin64\tmp\ccWFxnfo.ltrans22.ltrans.o
                                                  C:\cygwin64\tmp\ccWFxnfo.ltrans0.ltrans.o
sendDataHead.9008                                 C:\cygwin64\tmp\ccWFxnfo.ltrans14.ltrans.o
                                                  C:\cygwin64\tmp\ccWFxnfo.ltrans3.ltrans.o
sendFieldDefinition.10713                         C:\cygwin64\tmp\ccWFxnfo.ltrans18.ltrans.o
                                                  C:\cygwin64\tmp\ccWFxnfo.ltrans2.ltrans.o
sendIbusMeasurement.10314                         C:\cygwin64\tmp\ccWFxnfo.ltrans14.ltrans.o
                                                  C:\cygwin64\tmp\ccWFxnfo.ltrans3.ltrans.o
sendLatLong.9039                                  C:\cygwin64\tmp\ccWFxnfo.ltrans14.ltrans.o
                                                  C:\cygwin64\tmp\ccWFxnfo.ltrans3.ltrans.o
sendTelemetryTail.9011                            C:\cygwin64\tmp\ccWFxnfo.ltrans14.ltrans.o
                                                  C:\cygwin64\tmp\ccWFxnfo.ltrans3.ltrans.o
sensorAlignmentConfig_Registry                    C:\cygwin64\tmp\ccWFxnfo.ltrans1.ltrans.o
sensorAlignmentConfig_System                      C:\cygwin64\tmp\ccWFxnfo.ltrans1.ltrans.o
                                                  C:\cygwin64\tmp\ccWFxnfo.ltrans17.ltrans.o
sensorSelectionConfig_Registry                    C:\cygwin64\tmp\ccWFxnfo.ltrans17.ltrans.o
sensorTrims_Registry                              C:\cygwin64\tmp\ccWFxnfo.ltrans25.ltrans.o
sensorsAutodetect                                 C:\cygwin64\tmp\ccWFxnfo.ltrans17.ltrans.o
                                                  C:\cygwin64\tmp\ccWFxnfo.ltrans0.ltrans.o
serialBeginWrite                                  C:\cygwin64\tmp\ccWFxnfo.ltrans14.ltrans.o
                                                  C:\cygwin64\tmp\ccWFxnfo.ltrans21.ltrans.o
                                                  C:\cygwin64\tmp\ccWFxnfo.ltrans20.ltrans.o
serialConfig_Registry                             C:\cygwin64\tmp\ccWFxnfo.ltrans28.ltrans.o
                                                  C:\cygwin64\tmp\ccWFxnfo.ltrans25.ltrans.o
serialConfig_System                               C:\cygwin64\tmp\ccWFxnfo.ltrans28.ltrans.o
                                                  C:\cygwin64\tmp\ccWFxnfo.ltrans25.ltrans.o
                                                  C:\cygwin64\tmp\ccWFxnfo.ltrans22.ltrans.o
                                                  C:\cygwin64\tmp\ccWFxnfo.ltrans21.ltrans.o
                                                  C:\cygwin64\tmp\ccWFxnfo.ltrans15.ltrans.o
                                                  C:\cygwin64\tmp\ccWFxnfo.ltrans8.ltrans.o
                                                  C:\cygwin64\tmp\ccWFxnfo.ltrans1.ltrans.o
serialEndWrite                                    C:\cygwin64\tmp\ccWFxnfo.ltrans14.ltrans.o
                                                  C:\cygwin64\tmp\ccWFxnfo.ltrans21.ltrans.o
                                                  C:\cygwin64\tmp\ccWFxnfo.ltrans20.ltrans.o
serialICConfig.7092                               C:\cygwin64\tmp\ccWFxnfo.ltrans21.ltrans.o
                                                  C:\cygwin64\tmp\ccWFxnfo.ltrans10.ltrans.o
serialPassthrough.constprop.94                    C:\cygwin64\tmp\ccWFxnfo.ltrans19.ltrans.o
                                                  C:\cygwin64\tmp\ccWFxnfo.ltrans28.ltrans.o
serialPortCount.20277                             C:\cygwin64\tmp\ccWFxnfo.ltrans0.ltrans.o
                                                  C:\cygwin64\tmp\ccWFxnfo.ltrans6.ltrans.o
serialPortIdentifiers                             C:\cygwin64\tmp\ccWFxnfo.ltrans0.ltrans.o
                                                  C:\cygwin64\tmp\ccWFxnfo.ltrans7.ltrans.o
serialPortUsageList.20274                         C:\cygwin64\tmp\ccWFxnfo.ltrans0.ltrans.o
                                                  C:\cygwin64\tmp\ccWFxnfo.ltrans22.ltrans.o
                                                  C:\cygwin64\tmp\ccWFxnfo.ltrans6.ltrans.o
                                                  C:\cygwin64\tmp\ccWFxnfo.ltrans1.ltrans.o
serialRead                                        C:\cygwin64\tmp\ccWFxnfo.ltrans14.ltrans.o
                                                  C:\cygwin64\tmp\ccWFxnfo.ltrans28.ltrans.o
                                                  C:\cygwin64\tmp\ccWFxnfo.ltrans22.ltrans.o
                                                  C:\cygwin64\tmp\ccWFxnfo.ltrans19.ltrans.o
                                                  C:\cygwin64\tmp\ccWFxnfo.ltrans9.ltrans.o
                                                  C:\cygwin64\tmp\ccWFxnfo.ltrans3.ltrans.o
                                                  C:\cygwin64\tmp\ccWFxnfo.ltrans1.ltrans.o
serialRemovePort                                  C:\cygwin64\tmp\ccWFxnfo.ltrans6.ltrans.o
                                                  C:\cygwin64\tmp\ccWFxnfo.ltrans0.ltrans.o
serialRxBytesWaiting                              C:\cygwin64\tmp\ccWFxnfo.ltrans14.ltrans.o
                                                  C:\cygwin64\tmp\ccWFxnfo.ltrans28.ltrans.o
                                                  C:\cygwin64\tmp\ccWFxnfo.ltrans22.ltrans.o
                                                  C:\cygwin64\tmp\ccWFxnfo.ltrans19.ltrans.o
                                                  C:\cygwin64\tmp\ccWFxnfo.ltrans9.ltrans.o
                                                  C:\cygwin64\tmp\ccWFxnfo.ltrans3.ltrans.o
                                                  C:\cygwin64\tmp\ccWFxnfo.ltrans1.ltrans.o
serialSetBaudRate                                 C:\cygwin64\tmp\ccWFxnfo.ltrans14.ltrans.o
                                                  C:\cygwin64\tmp\ccWFxnfo.ltrans9.ltrans.o
serialSetMode                                     C:\cygwin64\tmp\ccWFxnfo.ltrans14.ltrans.o
                                                  C:\cygwin64\tmp\ccWFxnfo.ltrans28.ltrans.o
                                                  C:\cygwin64\tmp\ccWFxnfo.ltrans23.ltrans.o
                                                  C:\cygwin64\tmp\ccWFxnfo.ltrans19.ltrans.o
                                                  C:\cygwin64\tmp\ccWFxnfo.ltrans3.ltrans.o
serialTxBytesFree                                 C:\cygwin64\tmp\ccWFxnfo.ltrans14.ltrans.o
                                                  C:\cygwin64\tmp\ccWFxnfo.ltrans2.ltrans.o
serialWrite                                       C:\cygwin64\tmp\ccWFxnfo.ltrans14.ltrans.o
                                                  C:\cygwin64\tmp\ccWFxnfo.ltrans21.ltrans.o
                                                  C:\cygwin64\tmp\ccWFxnfo.ltrans19.ltrans.o
                                                  C:\cygwin64\tmp\ccWFxnfo.ltrans18.ltrans.o
                                                  C:\cygwin64\tmp\ccWFxnfo.ltrans9.ltrans.o
                                                  C:\cygwin64\tmp\ccWFxnfo.ltrans8.ltrans.o
                                                  C:\cygwin64\tmp\ccWFxnfo.ltrans3.ltrans.o
serialWriteBuf                                    C:\cygwin64\tmp\ccWFxnfo.ltrans14.ltrans.o
                                                  C:\cygwin64\tmp\ccWFxnfo.ltrans21.ltrans.o
serialWriteBufShim                                C:\cygwin64\tmp\ccWFxnfo.ltrans14.ltrans.o
                                                  C:\cygwin64\tmp\ccWFxnfo.ltrans1.ltrans.o
serialize16.9018                                  C:\cygwin64\tmp\ccWFxnfo.ltrans14.ltrans.o
                                                  C:\cygwin64\tmp\ccWFxnfo.ltrans3.ltrans.o
servo                                             C:\cygwin64\tmp\ccWFxnfo.ltrans0.ltrans.o
                                                  C:\cygwin64\tmp\ccWFxnfo.ltrans16.ltrans.o
                                                  C:\cygwin64\tmp\ccWFxnfo.ltrans2.ltrans.o
                                                  C:\cygwin64\tmp\ccWFxnfo.ltrans1.ltrans.o
servoConf.15173                                   C:\cygwin64\tmp\ccWFxnfo.ltrans2.ltrans.o
                                                  C:\cygwin64\tmp\ccWFxnfo.ltrans25.ltrans.o
                                                  C:\cygwin64\tmp\ccWFxnfo.ltrans20.ltrans.o
                                                  C:\cygwin64\tmp\ccWFxnfo.ltrans7.ltrans.o
servoConfig_Registry                              C:\cygwin64\tmp\ccWFxnfo.ltrans0.ltrans.o
servoFilterState.15162                            C:\cygwin64\tmp\ccWFxnfo.ltrans0.ltrans.o
                                                  C:\cygwin64\tmp\ccWFxnfo.ltrans2.ltrans.o
servoMixerAirplane.15241                          C:\cygwin64\tmp\ccWFxnfo.ltrans0.ltrans.o
servoMixerBI.15238                                C:\cygwin64\tmp\ccWFxnfo.ltrans0.ltrans.o
servoMixerDual.15242                              C:\cygwin64\tmp\ccWFxnfo.ltrans0.ltrans.o
servoMixerFlyingWing.15240                        C:\cygwin64\tmp\ccWFxnfo.ltrans0.ltrans.o
servoMixerGimbal.15239                            C:\cygwin64\tmp\ccWFxnfo.ltrans0.ltrans.o
servoMixerSingle.15243                            C:\cygwin64\tmp\ccWFxnfo.ltrans0.ltrans.o
servoMixerTri.15237                               C:\cygwin64\tmp\ccWFxnfo.ltrans0.ltrans.o
servoMixers                                       C:\cygwin64\tmp\ccWFxnfo.ltrans0.ltrans.o
                                                  C:\cygwin64\tmp\ccWFxnfo.ltrans8.ltrans.o
servoProfile_ProfileCurrent                       C:\cygwin64\tmp\ccWFxnfo.ltrans1.ltrans.o
                                                  C:\cygwin64\tmp\ccWFxnfo.ltrans25.ltrans.o
                                                  C:\cygwin64\tmp\ccWFxnfo.ltrans8.ltrans.o
servoProfile_Registry                             C:\cygwin64\tmp\ccWFxnfo.ltrans1.ltrans.o
servoRuleCount.15213                              C:\cygwin64\tmp\ccWFxnfo.ltrans0.ltrans.o
                                                  C:\cygwin64\tmp\ccWFxnfo.ltrans7.ltrans.o
                                                  C:\cygwin64\tmp\ccWFxnfo.ltrans2.ltrans.o
servos.6699                                       C:\cygwin64\tmp\ccWFxnfo.ltrans0.ltrans.o
                                                  C:\cygwin64\tmp\ccWFxnfo.ltrans26.ltrans.o
setAdjustment.12571.constprop.20                  C:\cygwin64\tmp\ccWFxnfo.ltrans18.ltrans.o
                                                  C:\cygwin64\tmp\ccWFxnfo.ltrans4.ltrans.o
setTaskEnabled                                    C:\cygwin64\tmp\ccWFxnfo.ltrans6.ltrans.o
                                                  C:\cygwin64\tmp\ccWFxnfo.ltrans0.ltrans.o
setTxSignal                                       C:\cygwin64\tmp\ccWFxnfo.ltrans26.ltrans.o
                                                  C:\cygwin64\tmp\ccWFxnfo.ltrans21.ltrans.o
                                                  C:\cygwin64\tmp\ccWFxnfo.ltrans10.ltrans.o
setVelocity                                       C:\cygwin64\tmp\ccWFxnfo.ltrans2.ltrans.o
                                                  C:\cygwin64\tmp\ccWFxnfo.ltrans11.ltrans.o
shiftPacketLog.8191                               C:\cygwin64\tmp\ccWFxnfo.ltrans7.ltrans.o
                                                  C:\cygwin64\tmp\ccWFxnfo.ltrans5.ltrans.o
shortGitRevision                                  C:\cygwin64\tmp\ccWFxnfo.ltrans2.ltrans.o
sinf                                              C:\cygwin64\tmp\ccWFxnfo.ltrans30.ltrans.o
                                                  C:\cygwin64\tmp\ccWFxnfo.ltrans24.ltrans.o
                                                  C:\cygwin64\tmp\ccWFxnfo.ltrans15.ltrans.o
                                                  C:\cygwin64\tmp\ccWFxnfo.ltrans14.ltrans.o
                                                  C:\cygwin64\tmp\ccWFxnfo.ltrans2.ltrans.o
                                                  C:\cygwin64\tmp\ccWFxnfo.ltrans0.ltrans.o
skipRxSamples.17149                               C:\cygwin64\tmp\ccWFxnfo.ltrans4.ltrans.o
                                                  C:\cygwin64\tmp\ccWFxnfo.ltrans12.ltrans.o
                                                  C:\cygwin64\tmp\ccWFxnfo.ltrans8.ltrans.o
smallAngleCosZ                                    C:\cygwin64\tmp\ccWFxnfo.ltrans0.ltrans.o
                                                  C:\cygwin64\tmp\ccWFxnfo.ltrans15.ltrans.o
smartPortLastRequestTime.9633                     C:\cygwin64\tmp\ccWFxnfo.ltrans3.ltrans.o
                                                  C:\cygwin64\tmp\ccWFxnfo.ltrans23.ltrans.o
smartPortPortSharing.9636                         C:\cygwin64\tmp\ccWFxnfo.ltrans0.ltrans.o
                                                  C:\cygwin64\tmp\ccWFxnfo.ltrans23.ltrans.o
smartPortSendPackage.9552                         C:\cygwin64\tmp\ccWFxnfo.ltrans14.ltrans.o
                                                  C:\cygwin64\tmp\ccWFxnfo.ltrans3.ltrans.o
smartPortSerialPort.9632                          C:\cygwin64\tmp\ccWFxnfo.ltrans3.ltrans.o
                                                  C:\cygwin64\tmp\ccWFxnfo.ltrans23.ltrans.o
                                                  C:\cygwin64\tmp\ccWFxnfo.ltrans14.ltrans.o
smartPortState                                    C:\cygwin64\tmp\ccWFxnfo.ltrans3.ltrans.o
                                                  C:\cygwin64\tmp\ccWFxnfo.ltrans23.ltrans.o
smartPortTelemetryEnabled.9637                    C:\cygwin64\tmp\ccWFxnfo.ltrans3.ltrans.o
                                                  C:\cygwin64\tmp\ccWFxnfo.ltrans23.ltrans.o
softSerialReadByte                                C:\cygwin64\tmp\ccWFxnfo.ltrans26.ltrans.o
                                                  C:\cygwin64\tmp\ccWFxnfo.ltrans10.ltrans.o
softSerialRxBytesWaiting                          C:\cygwin64\tmp\ccWFxnfo.ltrans26.ltrans.o
                                                  C:\cygwin64\tmp\ccWFxnfo.ltrans10.ltrans.o
softSerialSetMode                                 C:\cygwin64\tmp\ccWFxnfo.ltrans26.ltrans.o
                                                  C:\cygwin64\tmp\ccWFxnfo.ltrans10.ltrans.o
softSerialTxBytesFree                             C:\cygwin64\tmp\ccWFxnfo.ltrans26.ltrans.o
                                                  C:\cygwin64\tmp\ccWFxnfo.ltrans10.ltrans.o
softSerialWriteByte                               C:\cygwin64\tmp\ccWFxnfo.ltrans26.ltrans.o
                                                  C:\cygwin64\tmp\ccWFxnfo.ltrans10.ltrans.o
sonarCfAltCm                                      C:\cygwin64\tmp\ccWFxnfo.ltrans0.ltrans.o
                                                  C:\cygwin64\tmp\ccWFxnfo.ltrans11.ltrans.o
sonarHardware.6367                                C:\cygwin64\tmp\ccWFxnfo.ltrans0.ltrans.o
                                                  C:\cygwin64\tmp\ccWFxnfo.ltrans14.ltrans.o
                                                  C:\cygwin64\tmp\ccWFxnfo.ltrans11.ltrans.o
sonarMaxAltWithTiltCm                             C:\cygwin64\tmp\ccWFxnfo.ltrans0.ltrans.o
                                                  C:\cygwin64\tmp\ccWFxnfo.ltrans11.ltrans.o
sonarMaxTiltCos                                   C:\cygwin64\tmp\ccWFxnfo.ltrans0.ltrans.o
                                                  C:\cygwin64\tmp\ccWFxnfo.ltrans11.ltrans.o
sonarRead                                         C:\cygwin64\tmp\ccWFxnfo.ltrans8.ltrans.o
                                                  C:\cygwin64\tmp\ccWFxnfo.ltrans16.ltrans.o
                                                  C:\cygwin64\tmp\ccWFxnfo.ltrans11.ltrans.o
specialColors_Registry                            C:\cygwin64\tmp\ccWFxnfo.ltrans1.ltrans.o
specialColors_System                              C:\cygwin64\tmp\ccWFxnfo.ltrans1.ltrans.o
                                                  C:\cygwin64\tmp\ccWFxnfo.ltrans21.ltrans.o
                                                  C:\cygwin64\tmp\ccWFxnfo.ltrans16.ltrans.o
                                                  C:\cygwin64\tmp\ccWFxnfo.ltrans12.ltrans.o
                                                  C:\cygwin64\tmp\ccWFxnfo.ltrans11.ltrans.o
                                                  C:\cygwin64\tmp\ccWFxnfo.ltrans5.ltrans.o
spekFrame.17747                                   C:\cygwin64\tmp\ccWFxnfo.ltrans6.ltrans.o
                                                  C:\cygwin64\tmp\ccWFxnfo.ltrans7.ltrans.o
spekHiRes.17753                                   C:\cygwin64\tmp\ccWFxnfo.ltrans29.ltrans.o
                                                  C:\cygwin64\tmp\ccWFxnfo.ltrans7.ltrans.o
spek_chan_mask.17751                              C:\cygwin64\tmp\ccWFxnfo.ltrans29.ltrans.o
                                                  C:\cygwin64\tmp\ccWFxnfo.ltrans7.ltrans.o
spek_chan_shift.17749                             C:\cygwin64\tmp\ccWFxnfo.ltrans29.ltrans.o
                                                  C:\cygwin64\tmp\ccWFxnfo.ltrans7.ltrans.o
spektrumDataReceive.17640                         C:\cygwin64\tmp\ccWFxnfo.ltrans6.ltrans.o
                                                  C:\cygwin64\tmp\ccWFxnfo.ltrans29.ltrans.o
spektrumFrameStatus                               C:\cygwin64\tmp\ccWFxnfo.ltrans7.ltrans.o
                                                  C:\cygwin64\tmp\ccWFxnfo.ltrans29.ltrans.o
                                                  C:\cygwin64\tmp\ccWFxnfo.ltrans15.ltrans.o
spektrumInit.constprop.42                         C:\cygwin64\tmp\ccWFxnfo.ltrans29.ltrans.o
                                                  C:\cygwin64\tmp\ccWFxnfo.ltrans0.ltrans.o
spektrumReadRawRC.17652                           C:\cygwin64\tmp\ccWFxnfo.ltrans7.ltrans.o
                                                  C:\cygwin64\tmp\ccWFxnfo.ltrans29.ltrans.o
spiTransfer.constprop.140                         C:\cygwin64\tmp\ccWFxnfo.ltrans13.ltrans.o
                                                  C:\cygwin64\tmp\ccWFxnfo.ltrans18.ltrans.o
                                                  C:\cygwin64\tmp\ccWFxnfo.ltrans11.ltrans.o
                                                  C:\cygwin64\tmp\ccWFxnfo.ltrans0.ltrans.o
spiTransferByte.constprop.139                     C:\cygwin64\tmp\ccWFxnfo.ltrans13.ltrans.o
                                                  C:\cygwin64\tmp\ccWFxnfo.ltrans24.ltrans.o
                                                  C:\cygwin64\tmp\ccWFxnfo.ltrans18.ltrans.o
                                                  C:\cygwin64\tmp\ccWFxnfo.ltrans11.ltrans.o
                                                  C:\cygwin64\tmp\ccWFxnfo.ltrans0.ltrans.o
sqrtf                                             c:/dev/gcc-arm-none-eabi-4_8-2014q2/bin/../lib/gcc/arm-none-eabi/4.8.4/../../../../arm-none-eabi/lib/armv7-m\libm.a(lib_a-wf_sqrt.o)
                                                  C:\cygwin64\tmp\ccWFxnfo.ltrans31.ltrans.o
                                                  C:\cygwin64\tmp\ccWFxnfo.ltrans19.ltrans.o
                                                  C:\cygwin64\tmp\ccWFxnfo.ltrans15.ltrans.o
                                                  C:\cygwin64\tmp\ccWFxnfo.ltrans14.ltrans.o
                                                  C:\cygwin64\tmp\ccWFxnfo.ltrans7.ltrans.o
srxlChannelCount.18076                            C:\cygwin64\tmp\ccWFxnfo.ltrans0.ltrans.o
                                                  C:\cygwin64\tmp\ccWFxnfo.ltrans15.ltrans.o
                                                  C:\cygwin64\tmp\ccWFxnfo.ltrans6.ltrans.o
srxlChannelData.18069                             C:\cygwin64\tmp\ccWFxnfo.ltrans15.ltrans.o
                                                  C:\cygwin64\tmp\ccWFxnfo.ltrans7.ltrans.o
srxlDataIncoming.18071                            C:\cygwin64\tmp\ccWFxnfo.ltrans0.ltrans.o
                                                  C:\cygwin64\tmp\ccWFxnfo.ltrans6.ltrans.o
srxlDataReceive.17987                             C:\cygwin64\tmp\ccWFxnfo.ltrans6.ltrans.o
                                                  C:\cygwin64\tmp\ccWFxnfo.ltrans0.ltrans.o
srxlFrame.18077                                   C:\cygwin64\tmp\ccWFxnfo.ltrans15.ltrans.o
                                                  C:\cygwin64\tmp\ccWFxnfo.ltrans6.ltrans.o
srxlFrameLength.18075                             C:\cygwin64\tmp\ccWFxnfo.ltrans0.ltrans.o
                                                  C:\cygwin64\tmp\ccWFxnfo.ltrans15.ltrans.o
                                                  C:\cygwin64\tmp\ccWFxnfo.ltrans6.ltrans.o
srxlFramePosition.18072                           C:\cygwin64\tmp\ccWFxnfo.ltrans0.ltrans.o
                                                  C:\cygwin64\tmp\ccWFxnfo.ltrans6.ltrans.o
srxlFrameReceived.18070                           C:\cygwin64\tmp\ccWFxnfo.ltrans0.ltrans.o
                                                  C:\cygwin64\tmp\ccWFxnfo.ltrans15.ltrans.o
                                                  C:\cygwin64\tmp\ccWFxnfo.ltrans6.ltrans.o
srxlFrameStatus                                   C:\cygwin64\tmp\ccWFxnfo.ltrans15.ltrans.o
                                                  C:\cygwin64\tmp\ccWFxnfo.ltrans0.ltrans.o
srxlReadRawRC.17990                               C:\cygwin64\tmp\ccWFxnfo.ltrans7.ltrans.o
                                                  C:\cygwin64\tmp\ccWFxnfo.ltrans0.ltrans.o
standardBoardAlignment.18529                      C:\cygwin64\tmp\ccWFxnfo.ltrans0.ltrans.o
                                                  C:\cygwin64\tmp\ccWFxnfo.ltrans7.ltrans.o
stateFlags                                        C:\cygwin64\tmp\ccWFxnfo.ltrans0.ltrans.o
                                                  C:\cygwin64\tmp\ccWFxnfo.ltrans27.ltrans.o
                                                  C:\cygwin64\tmp\ccWFxnfo.ltrans25.ltrans.o
                                                  C:\cygwin64\tmp\ccWFxnfo.ltrans24.ltrans.o
                                                  C:\cygwin64\tmp\ccWFxnfo.ltrans15.ltrans.o
                                                  C:\cygwin64\tmp\ccWFxnfo.ltrans12.ltrans.o
                                                  C:\cygwin64\tmp\ccWFxnfo.ltrans9.ltrans.o
                                                  C:\cygwin64\tmp\ccWFxnfo.ltrans7.ltrans.o
                                                  C:\cygwin64\tmp\ccWFxnfo.ltrans5.ltrans.o
                                                  C:\cygwin64\tmp\ccWFxnfo.ltrans4.ltrans.o
                                                  C:\cygwin64\tmp\ccWFxnfo.ltrans3.ltrans.o
                                                  C:\cygwin64\tmp\ccWFxnfo.ltrans2.ltrans.o
                                                  C:\cygwin64\tmp\ccWFxnfo.ltrans1.ltrans.o
stdout_putf.19523                                 C:\cygwin64\tmp\ccWFxnfo.ltrans0.ltrans.o
                                                  C:\cygwin64\tmp\ccWFxnfo.ltrans8.ltrans.o
stdout_putp.19524                                 C:\cygwin64\tmp\ccWFxnfo.ltrans0.ltrans.o
                                                  C:\cygwin64\tmp\ccWFxnfo.ltrans8.ltrans.o
stkInBuf.16233                                    C:\cygwin64\tmp\ccWFxnfo.ltrans20.ltrans.o
                                                  C:\cygwin64\tmp\ccWFxnfo.ltrans22.ltrans.o
stopMotors                                        C:\cygwin64\tmp\ccWFxnfo.ltrans12.ltrans.o
                                                  C:\cygwin64\tmp\ccWFxnfo.ltrans30.ltrans.o
strcasecmp                                        c:/dev/gcc-arm-none-eabi-4_8-2014q2/bin/../lib/gcc/arm-none-eabi/4.8.4/../../../../arm-none-eabi/lib/armv7-m\libg_s.a(lib_a-strcasecmp.o)
                                                  C:\cygwin64\tmp\ccWFxnfo.ltrans20.ltrans.o
                                                  C:\cygwin64\tmp\ccWFxnfo.ltrans8.ltrans.o
                                                  C:\cygwin64\tmp\ccWFxnfo.ltrans5.ltrans.o
strcat                                            c:/dev/gcc-arm-none-eabi-4_8-2014q2/bin/../lib/gcc/arm-none-eabi/4.8.4/../../../../arm-none-eabi/lib/armv7-m\libg_s.a(lib_a-strcat.o)
                                                  C:\cygwin64\tmp\ccWFxnfo.ltrans6.ltrans.o
strchr                                            c:/dev/gcc-arm-none-eabi-4_8-2014q2/bin/../lib/gcc/arm-none-eabi/4.8.4/../../../../arm-none-eabi/lib/armv7-m\libg_s.a(lib_a-strchr.o)
                                                  C:\cygwin64\tmp\ccWFxnfo.ltrans28.ltrans.o
                                                  C:\cygwin64\tmp\ccWFxnfo.ltrans22.ltrans.o
                                                  C:\cygwin64\tmp\ccWFxnfo.ltrans21.ltrans.o
                                                  C:\cygwin64\tmp\ccWFxnfo.ltrans12.ltrans.o
                                                  C:\cygwin64\tmp\ccWFxnfo.ltrans8.ltrans.o
                                                  C:\cygwin64\tmp\ccWFxnfo.ltrans5.ltrans.o
strlen                                            c:/dev/gcc-arm-none-eabi-4_8-2014q2/bin/../lib/gcc/arm-none-eabi/4.8.4/../../../../arm-none-eabi/lib/armv7-m\libg_s.a(lib_a-strlen.o)
                                                  C:\cygwin64\tmp\ccWFxnfo.ltrans28.ltrans.o
                                                  C:\cygwin64\tmp\ccWFxnfo.ltrans18.ltrans.o
                                                  C:\cygwin64\tmp\ccWFxnfo.ltrans9.ltrans.o
                                                  C:\cygwin64\tmp\ccWFxnfo.ltrans8.ltrans.o
                                                  C:\cygwin64\tmp\ccWFxnfo.ltrans6.ltrans.o
                                                  C:\cygwin64\tmp\ccWFxnfo.ltrans5.ltrans.o
                                                  C:\cygwin64\tmp\ccWFxnfo.ltrans1.ltrans.o
strncasecmp                                       c:/dev/gcc-arm-none-eabi-4_8-2014q2/bin/../lib/gcc/arm-none-eabi/4.8.4/../../../../arm-none-eabi/lib/armv7-m\libg_s.a(lib_a-strncasecmp.o)
                                                  C:\cygwin64\tmp\ccWFxnfo.ltrans28.ltrans.o
                                                  C:\cygwin64\tmp\ccWFxnfo.ltrans9.ltrans.o
                                                  C:\cygwin64\tmp\ccWFxnfo.ltrans8.ltrans.o
                                                  C:\cygwin64\tmp\ccWFxnfo.ltrans5.ltrans.o
strncpy                                           c:/dev/gcc-arm-none-eabi-4_8-2014q2/bin/../lib/gcc/arm-none-eabi/4.8.4/../../../../arm-none-eabi/lib/armv7-m\libg_s.a(lib_a-strncpy.o)
                                                  C:\cygwin64\tmp\ccWFxnfo.ltrans6.ltrans.o
strstr                                            c:/dev/gcc-arm-none-eabi-4_8-2014q2/bin/../lib/gcc/arm-none-eabi/4.8.4/../../../../arm-none-eabi/lib/armv7-m\libg_s.a(lib_a-strstr.o)
                                                  C:\cygwin64\tmp\ccWFxnfo.ltrans28.ltrans.o
                                                  C:\cygwin64\tmp\ccWFxnfo.ltrans8.ltrans.o
strtok                                            c:/dev/gcc-arm-none-eabi-4_8-2014q2/bin/../lib/gcc/arm-none-eabi/4.8.4/../../../../arm-none-eabi/lib/armv7-m\libc_s.a(lib_a-strtok.o)
                                                  C:\cygwin64\tmp\ccWFxnfo.ltrans28.ltrans.o
                                                  C:\cygwin64\tmp\ccWFxnfo.ltrans8.ltrans.o
                                                  C:\cygwin64\tmp\ccWFxnfo.ltrans5.ltrans.o
strtok_r                                          c:/dev/gcc-arm-none-eabi-4_8-2014q2/bin/../lib/gcc/arm-none-eabi/4.8.4/../../../../arm-none-eabi/lib/armv7-m\libc_s.a(lib_a-strtok_r.o)
                                                  C:\cygwin64\tmp\ccWFxnfo.ltrans5.ltrans.o
strtol                                            c:/dev/gcc-arm-none-eabi-4_8-2014q2/bin/../lib/gcc/arm-none-eabi/4.8.4/../../../../arm-none-eabi/lib/armv7-m\libc_s.a(lib_a-strtol.o)
                                                  c:/dev/gcc-arm-none-eabi-4_8-2014q2/bin/../lib/gcc/arm-none-eabi/4.8.4/../../../../arm-none-eabi/lib/armv7-m\libc_s.a(lib_a-atoi.o)
suart_getc.16039                                  C:\cygwin64\tmp\ccWFxnfo.ltrans15.ltrans.o
                                                  C:\cygwin64\tmp\ccWFxnfo.ltrans20.ltrans.o
sumd.17518                                        C:\cygwin64\tmp\ccWFxnfo.ltrans14.ltrans.o
                                                  C:\cygwin64\tmp\ccWFxnfo.ltrans7.ltrans.o
sumdChannelCount.17517                            C:\cygwin64\tmp\ccWFxnfo.ltrans14.ltrans.o
                                                  C:\cygwin64\tmp\ccWFxnfo.ltrans7.ltrans.o
sumdDataReceive.17430                             C:\cygwin64\tmp\ccWFxnfo.ltrans14.ltrans.o
                                                  C:\cygwin64\tmp\ccWFxnfo.ltrans0.ltrans.o
sumdFrameDone.17516                               C:\cygwin64\tmp\ccWFxnfo.ltrans14.ltrans.o
                                                  C:\cygwin64\tmp\ccWFxnfo.ltrans7.ltrans.o
sumdFrameStatus                                   C:\cygwin64\tmp\ccWFxnfo.ltrans7.ltrans.o
                                                  C:\cygwin64\tmp\ccWFxnfo.ltrans15.ltrans.o
                                                  C:\cygwin64\tmp\ccWFxnfo.ltrans0.ltrans.o
sumdReadRawRC.17438                               C:\cygwin64\tmp\ccWFxnfo.ltrans7.ltrans.o
                                                  C:\cygwin64\tmp\ccWFxnfo.ltrans0.ltrans.o
sumhDataReceive.17536                             C:\cygwin64\tmp\ccWFxnfo.ltrans6.ltrans.o
                                                  C:\cygwin64\tmp\ccWFxnfo.ltrans0.ltrans.o
sumhFrame.17617                                   C:\cygwin64\tmp\ccWFxnfo.ltrans6.ltrans.o
                                                  C:\cygwin64\tmp\ccWFxnfo.ltrans7.ltrans.o
sumhFrameDone.17618                               C:\cygwin64\tmp\ccWFxnfo.ltrans6.ltrans.o
                                                  C:\cygwin64\tmp\ccWFxnfo.ltrans7.ltrans.o
sumhFrameStatus                                   C:\cygwin64\tmp\ccWFxnfo.ltrans7.ltrans.o
                                                  C:\cygwin64\tmp\ccWFxnfo.ltrans15.ltrans.o
                                                  C:\cygwin64\tmp\ccWFxnfo.ltrans0.ltrans.o
sumhReadRawRC.17539                               C:\cygwin64\tmp\ccWFxnfo.ltrans7.ltrans.o
                                                  C:\cygwin64\tmp\ccWFxnfo.ltrans0.ltrans.o
suspendRxSignal                                   C:\cygwin64\tmp\ccWFxnfo.ltrans8.ltrans.o
                                                  C:\cygwin64\tmp\ccWFxnfo.ltrans25.ltrans.o
                                                  C:\cygwin64\tmp\ccWFxnfo.ltrans22.ltrans.o
suspendRxSignalUntil.17148                        C:\cygwin64\tmp\ccWFxnfo.ltrans4.ltrans.o
                                                  C:\cygwin64\tmp\ccWFxnfo.ltrans12.ltrans.o
                                                  C:\cygwin64\tmp\ccWFxnfo.ltrans8.ltrans.o
sysTickUptime.19914                               C:\cygwin64\tmp\ccWFxnfo.ltrans31.ltrans.o
                                                  C:\cygwin64\tmp\ccWFxnfo.ltrans27.ltrans.o
                                                  C:\cygwin64\tmp\ccWFxnfo.ltrans24.ltrans.o
                                                  C:\cygwin64\tmp\ccWFxnfo.ltrans23.ltrans.o
                                                  C:\cygwin64\tmp\ccWFxnfo.ltrans19.ltrans.o
                                                  C:\cygwin64\tmp\ccWFxnfo.ltrans18.ltrans.o
                                                  C:\cygwin64\tmp\ccWFxnfo.ltrans15.ltrans.o
                                                  C:\cygwin64\tmp\ccWFxnfo.ltrans14.ltrans.o
                                                  C:\cygwin64\tmp\ccWFxnfo.ltrans12.ltrans.o
                                                  C:\cygwin64\tmp\ccWFxnfo.ltrans11.ltrans.o
                                                  C:\cygwin64\tmp\ccWFxnfo.ltrans10.ltrans.o
                                                  C:\cygwin64\tmp\ccWFxnfo.ltrans9.ltrans.o
                                                  C:\cygwin64\tmp\ccWFxnfo.ltrans4.ltrans.o
                                                  C:\cygwin64\tmp\ccWFxnfo.ltrans3.ltrans.o
                                                  C:\cygwin64\tmp\ccWFxnfo.ltrans2.ltrans.o
                                                  C:\cygwin64\tmp\ccWFxnfo.ltrans0.ltrans.o
systemBeep                                        C:\cygwin64\tmp\ccWFxnfo.ltrans7.ltrans.o
                                                  C:\cygwin64\tmp\ccWFxnfo.ltrans24.ltrans.o
                                                  C:\cygwin64\tmp\ccWFxnfo.ltrans10.ltrans.o
                                                  C:\cygwin64\tmp\ccWFxnfo.ltrans6.ltrans.o
                                                  C:\cygwin64\tmp\ccWFxnfo.ltrans0.ltrans.o
systemBeepPtr                                     C:\cygwin64\tmp\ccWFxnfo.ltrans0.ltrans.o
                                                  C:\cygwin64\tmp\ccWFxnfo.ltrans7.ltrans.o
systemConfig_Registry                             C:\cygwin64\tmp\ccWFxnfo.ltrans0.ltrans.o
systemState.11728                                 C:\cygwin64\tmp\ccWFxnfo.ltrans0.ltrans.o
                                                  C:\cygwin64\tmp\ccWFxnfo.ltrans30.ltrans.o
tailAddress.7711                                  C:\cygwin64\tmp\ccWFxnfo.ltrans0.ltrans.o
                                                  C:\cygwin64\tmp\ccWFxnfo.ltrans24.ltrans.o
                                                  C:\cygwin64\tmp\ccWFxnfo.ltrans21.ltrans.o
                                                  C:\cygwin64\tmp\ccWFxnfo.ltrans18.ltrans.o
                                                  C:\cygwin64\tmp\ccWFxnfo.ltrans7.ltrans.o
targetPidLooptime                                 C:\cygwin64\tmp\ccWFxnfo.ltrans0.ltrans.o
                                                  C:\cygwin64\tmp\ccWFxnfo.ltrans27.ltrans.o
                                                  C:\cygwin64\tmp\ccWFxnfo.ltrans15.ltrans.o
                                                  C:\cygwin64\tmp\ccWFxnfo.ltrans7.ltrans.o
                                                  C:\cygwin64\tmp\ccWFxnfo.ltrans2.ltrans.o
target_bearing.8013                               C:\cygwin64\tmp\ccWFxnfo.ltrans24.ltrans.o
                                                  C:\cygwin64\tmp\ccWFxnfo.ltrans10.ltrans.o
taskCalculateAltitude                             C:\cygwin64\tmp\ccWFxnfo.ltrans11.ltrans.o
                                                  C:\cygwin64\tmp\ccWFxnfo.ltrans0.ltrans.o
taskCount                                         C:\cygwin64\tmp\ccWFxnfo.ltrans0.ltrans.o
taskGyro                                          C:\cygwin64\tmp\ccWFxnfo.ltrans19.ltrans.o
                                                  C:\cygwin64\tmp\ccWFxnfo.ltrans0.ltrans.o
taskGyroCheck                                     C:\cygwin64\tmp\ccWFxnfo.ltrans7.ltrans.o
                                                  C:\cygwin64\tmp\ccWFxnfo.ltrans0.ltrans.o
taskHandleSerial                                  C:\cygwin64\tmp\ccWFxnfo.ltrans28.ltrans.o
                                                  C:\cygwin64\tmp\ccWFxnfo.ltrans0.ltrans.o
taskHardwareWatchdog                              C:\cygwin64\tmp\ccWFxnfo.ltrans7.ltrans.o
                                                  C:\cygwin64\tmp\ccWFxnfo.ltrans0.ltrans.o
taskLedStrip                                      C:\cygwin64\tmp\ccWFxnfo.ltrans11.ltrans.o
                                                  C:\cygwin64\tmp\ccWFxnfo.ltrans0.ltrans.o
taskPid                                           C:\cygwin64\tmp\ccWFxnfo.ltrans2.ltrans.o
                                                  C:\cygwin64\tmp\ccWFxnfo.ltrans0.ltrans.o
taskPidCheck                                      C:\cygwin64\tmp\ccWFxnfo.ltrans7.ltrans.o
                                                  C:\cygwin64\tmp\ccWFxnfo.ltrans0.ltrans.o
taskProcessGPS                                    C:\cygwin64\tmp\ccWFxnfo.ltrans9.ltrans.o
                                                  C:\cygwin64\tmp\ccWFxnfo.ltrans0.ltrans.o
taskQueueArray                                    C:\cygwin64\tmp\ccWFxnfo.ltrans0.ltrans.o
                                                  C:\cygwin64\tmp\ccWFxnfo.ltrans22.ltrans.o
                                                  C:\cygwin64\tmp\ccWFxnfo.ltrans6.ltrans.o
taskQueueSize.20082                               C:\cygwin64\tmp\ccWFxnfo.ltrans0.ltrans.o
                                                  C:\cygwin64\tmp\ccWFxnfo.ltrans22.ltrans.o
                                                  C:\cygwin64\tmp\ccWFxnfo.ltrans6.ltrans.o
taskSystem                                        C:\cygwin64\tmp\ccWFxnfo.ltrans6.ltrans.o
                                                  C:\cygwin64\tmp\ccWFxnfo.ltrans0.ltrans.o
taskTelemetry                                     C:\cygwin64\tmp\ccWFxnfo.ltrans3.ltrans.o
                                                  C:\cygwin64\tmp\ccWFxnfo.ltrans0.ltrans.o
taskUpdateAccelerometer                           C:\cygwin64\tmp\ccWFxnfo.ltrans25.ltrans.o
                                                  C:\cygwin64\tmp\ccWFxnfo.ltrans0.ltrans.o
taskUpdateAttitude                                C:\cygwin64\tmp\ccWFxnfo.ltrans15.ltrans.o
                                                  C:\cygwin64\tmp\ccWFxnfo.ltrans0.ltrans.o
taskUpdateBaro                                    C:\cygwin64\tmp\ccWFxnfo.ltrans11.ltrans.o
                                                  C:\cygwin64\tmp\ccWFxnfo.ltrans0.ltrans.o
taskUpdateBattery                                 C:\cygwin64\tmp\ccWFxnfo.ltrans10.ltrans.o
                                                  C:\cygwin64\tmp\ccWFxnfo.ltrans0.ltrans.o
taskUpdateBeeper                                  C:\cygwin64\tmp\ccWFxnfo.ltrans24.ltrans.o
                                                  C:\cygwin64\tmp\ccWFxnfo.ltrans0.ltrans.o
taskUpdateCompass                                 C:\cygwin64\tmp\ccWFxnfo.ltrans25.ltrans.o
                                                  C:\cygwin64\tmp\ccWFxnfo.ltrans0.ltrans.o
taskUpdateRxCheck                                 C:\cygwin64\tmp\ccWFxnfo.ltrans15.ltrans.o
                                                  C:\cygwin64\tmp\ccWFxnfo.ltrans0.ltrans.o
taskUpdateRxMain                                  C:\cygwin64\tmp\ccWFxnfo.ltrans4.ltrans.o
                                                  C:\cygwin64\tmp\ccWFxnfo.ltrans0.ltrans.o
taskUpdateSonar                                   C:\cygwin64\tmp\ccWFxnfo.ltrans11.ltrans.o
                                                  C:\cygwin64\tmp\ccWFxnfo.ltrans0.ltrans.o
telemetryCheckState                               C:\cygwin64\tmp\ccWFxnfo.ltrans23.ltrans.o
                                                  C:\cygwin64\tmp\ccWFxnfo.ltrans4.ltrans.o
                                                  C:\cygwin64\tmp\ccWFxnfo.ltrans3.ltrans.o
                                                  C:\cygwin64\tmp\ccWFxnfo.ltrans0.ltrans.o
telemetryConfig_Registry                          C:\cygwin64\tmp\ccWFxnfo.ltrans0.ltrans.o
telemetryConfig_System                            C:\cygwin64\tmp\ccWFxnfo.ltrans0.ltrans.o
                                                  C:\cygwin64\tmp\ccWFxnfo.ltrans23.ltrans.o
                                                  C:\cygwin64\tmp\ccWFxnfo.ltrans12.ltrans.o
                                                  C:\cygwin64\tmp\ccWFxnfo.ltrans4.ltrans.o
                                                  C:\cygwin64\tmp\ccWFxnfo.ltrans3.ltrans.o
telemetryDetermineEnabledState                    C:\cygwin64\tmp\ccWFxnfo.ltrans12.ltrans.o
                                                  C:\cygwin64\tmp\ccWFxnfo.ltrans23.ltrans.o
tfp_format                                        C:\cygwin64\tmp\ccWFxnfo.ltrans8.ltrans.o
                                                  C:\cygwin64\tmp\ccWFxnfo.ltrans21.ltrans.o
                                                  C:\cygwin64\tmp\ccWFxnfo.ltrans18.ltrans.o
                                                  C:\cygwin64\tmp\ccWFxnfo.ltrans5.ltrans.o
tfp_printf                                        C:\cygwin64\tmp\ccWFxnfo.ltrans8.ltrans.o
                                                  C:\cygwin64\tmp\ccWFxnfo.ltrans28.ltrans.o
tfp_sprintf.constprop.90                          C:\cygwin64\tmp\ccWFxnfo.ltrans5.ltrans.o
                                                  C:\cygwin64\tmp\ccWFxnfo.ltrans21.ltrans.o
throttleAngleScale                                C:\cygwin64\tmp\ccWFxnfo.ltrans2.ltrans.o
                                                  C:\cygwin64\tmp\ccWFxnfo.ltrans25.ltrans.o
throttleCorrectionConfig_ProfileCurrent           C:\cygwin64\tmp\ccWFxnfo.ltrans2.ltrans.o
                                                  C:\cygwin64\tmp\ccWFxnfo.ltrans25.ltrans.o
throttleCorrectionConfig_Registry                 C:\cygwin64\tmp\ccWFxnfo.ltrans2.ltrans.o
timCCxHandler.7328                                C:\cygwin64\tmp\ccWFxnfo.ltrans7.ltrans.o
                                                  C:\cygwin64\tmp\ccWFxnfo.ltrans30.ltrans.o
timerChConfigCallbacks                            C:\cygwin64\tmp\ccWFxnfo.ltrans16.ltrans.o
                                                  C:\cygwin64\tmp\ccWFxnfo.ltrans10.ltrans.o
                                                  C:\cygwin64\tmp\ccWFxnfo.ltrans0.ltrans.o
timerConfig                                       C:\cygwin64\tmp\ccWFxnfo.ltrans0.ltrans.o
                                                  C:\cygwin64\tmp\ccWFxnfo.ltrans30.ltrans.o
                                                  C:\cygwin64\tmp\ccWFxnfo.ltrans16.ltrans.o
                                                  C:\cygwin64\tmp\ccWFxnfo.ltrans12.ltrans.o
timerConfigure                                    C:\cygwin64\tmp\ccWFxnfo.ltrans10.ltrans.o
                                                  C:\cygwin64\tmp\ccWFxnfo.ltrans0.ltrans.o
timerHardware                                     C:\cygwin64\tmp\ccWFxnfo.ltrans0.ltrans.o
                                                  C:\cygwin64\tmp\ccWFxnfo.ltrans10.ltrans.o
totalWaitingTasks.20087                           C:\cygwin64\tmp\ccWFxnfo.ltrans0.ltrans.o
                                                  C:\cygwin64\tmp\ccWFxnfo.ltrans6.ltrans.o
totalWaitingTasksSamples.20086                    C:\cygwin64\tmp\ccWFxnfo.ltrans0.ltrans.o
                                                  C:\cygwin64\tmp\ccWFxnfo.ltrans6.ltrans.o
transmitIbusPacket.10304                          C:\cygwin64\tmp\ccWFxnfo.ltrans14.ltrans.o
                                                  C:\cygwin64\tmp\ccWFxnfo.ltrans3.ltrans.o
uartPort1.4758                                    C:\cygwin64\tmp\ccWFxnfo.ltrans30.ltrans.o
                                                  C:\cygwin64\tmp\ccWFxnfo.ltrans23.ltrans.o
uartPort2.4759                                    C:\cygwin64\tmp\ccWFxnfo.ltrans30.ltrans.o
                                                  C:\cygwin64\tmp\ccWFxnfo.ltrans23.ltrans.o
uartPort3.4760                                    C:\cygwin64\tmp\ccWFxnfo.ltrans30.ltrans.o
                                                  C:\cygwin64\tmp\ccWFxnfo.ltrans23.ltrans.o
uartRead                                          C:\cygwin64\tmp\ccWFxnfo.ltrans26.ltrans.o
                                                  C:\cygwin64\tmp\ccWFxnfo.ltrans23.ltrans.o
uartReconfigure.4503                              C:\cygwin64\tmp\ccWFxnfo.ltrans16.ltrans.o
                                                  C:\cygwin64\tmp\ccWFxnfo.ltrans23.ltrans.o
                                                  C:\cygwin64\tmp\ccWFxnfo.ltrans12.ltrans.o
uartSetBaudRate                                   C:\cygwin64\tmp\ccWFxnfo.ltrans12.ltrans.o
                                                  C:\cygwin64\tmp\ccWFxnfo.ltrans23.ltrans.o
uartSetMode                                       C:\cygwin64\tmp\ccWFxnfo.ltrans12.ltrans.o
                                                  C:\cygwin64\tmp\ccWFxnfo.ltrans23.ltrans.o
uartStartTxDMA                                    C:\cygwin64\tmp\ccWFxnfo.ltrans16.ltrans.o
                                                  C:\cygwin64\tmp\ccWFxnfo.ltrans21.ltrans.o
uartTotalRxBytesWaiting                           C:\cygwin64\tmp\ccWFxnfo.ltrans26.ltrans.o
                                                  C:\cygwin64\tmp\ccWFxnfo.ltrans23.ltrans.o
uartTotalTxBytesFree                              C:\cygwin64\tmp\ccWFxnfo.ltrans26.ltrans.o
                                                  C:\cygwin64\tmp\ccWFxnfo.ltrans23.ltrans.o
uartWrite                                         C:\cygwin64\tmp\ccWFxnfo.ltrans21.ltrans.o
                                                  C:\cygwin64\tmp\ccWFxnfo.ltrans23.ltrans.o
ui2a                                              C:\cygwin64\tmp\ccWFxnfo.ltrans14.ltrans.o
                                                  C:\cygwin64\tmp\ccWFxnfo.ltrans8.ltrans.o
uli2a                                             C:\cygwin64\tmp\ccWFxnfo.ltrans14.ltrans.o
                                                  C:\cygwin64\tmp\ccWFxnfo.ltrans8.ltrans.o
usTicks.19913                                     C:\cygwin64\tmp\ccWFxnfo.ltrans0.ltrans.o
                                                  C:\cygwin64\tmp\ccWFxnfo.ltrans14.ltrans.o
usartIrqHandler                                   C:\cygwin64\tmp\ccWFxnfo.ltrans22.ltrans.o
                                                  C:\cygwin64\tmp\ccWFxnfo.ltrans30.ltrans.o
useFifo.4861                                      C:\cygwin64\tmp\ccWFxnfo.ltrans17.ltrans.o
                                                  C:\cygwin64\tmp\ccWFxnfo.ltrans13.ltrans.o
valueTable                                        C:\cygwin64\tmp\ccWFxnfo.ltrans5.ltrans.o
                                                  C:\cygwin64\tmp\ccWFxnfo.ltrans8.ltrans.o
vario                                             C:\cygwin64\tmp\ccWFxnfo.ltrans1.ltrans.o
                                                  C:\cygwin64\tmp\ccWFxnfo.ltrans11.ltrans.o
                                                  C:\cygwin64\tmp\ccWFxnfo.ltrans3.ltrans.o
vbat                                              C:\cygwin64\tmp\ccWFxnfo.ltrans1.ltrans.o
                                                  C:\cygwin64\tmp\ccWFxnfo.ltrans12.ltrans.o
                                                  C:\cygwin64\tmp\ccWFxnfo.ltrans10.ltrans.o
                                                  C:\cygwin64\tmp\ccWFxnfo.ltrans3.ltrans.o
vbatReference.10976                               C:\cygwin64\tmp\ccWFxnfo.ltrans2.ltrans.o
                                                  C:\cygwin64\tmp\ccWFxnfo.ltrans27.ltrans.o
                                                  C:\cygwin64\tmp\ccWFxnfo.ltrans9.ltrans.o
velocityControl                                   C:\cygwin64\tmp\ccWFxnfo.ltrans2.ltrans.o
                                                  C:\cygwin64\tmp\ccWFxnfo.ltrans11.ltrans.o
voltageMeterConfig_Registry                       C:\cygwin64\tmp\ccWFxnfo.ltrans2.ltrans.o
voltageMeterConfig_SystemArray                    C:\cygwin64\tmp\ccWFxnfo.ltrans2.ltrans.o
                                                  C:\cygwin64\tmp\ccWFxnfo.ltrans10.ltrans.o
                                                  C:\cygwin64\tmp\ccWFxnfo.ltrans8.ltrans.o
                                                  C:\cygwin64\tmp\ccWFxnfo.ltrans1.ltrans.o
voltageMeterStates                                C:\cygwin64\tmp\ccWFxnfo.ltrans0.ltrans.o
                                                  C:\cygwin64\tmp\ccWFxnfo.ltrans10.ltrans.o
                                                  C:\cygwin64\tmp\ccWFxnfo.ltrans8.ltrans.o
                                                  C:\cygwin64\tmp\ccWFxnfo.ltrans1.ltrans.o
waitForSerialPortToFinishTransmitting             C:\cygwin64\tmp\ccWFxnfo.ltrans6.ltrans.o
                                                  C:\cygwin64\tmp\ccWFxnfo.ltrans19.ltrans.o
                                                  C:\cygwin64\tmp\ccWFxnfo.ltrans18.ltrans.o
                                                  C:\cygwin64\tmp\ccWFxnfo.ltrans12.ltrans.o
waypoint_speed_gov.8035                           C:\cygwin64\tmp\ccWFxnfo.ltrans24.ltrans.o
                                                  C:\cygwin64\tmp\ccWFxnfo.ltrans10.ltrans.o
workAroundForHottTelemetryOnUsart.isra.0.9375     C:\cygwin64\tmp\ccWFxnfo.ltrans23.ltrans.o
                                                  C:\cygwin64\tmp\ccWFxnfo.ltrans3.ltrans.o
wp_distance.8012                                  C:\cygwin64\tmp\ccWFxnfo.ltrans24.ltrans.o
                                                  C:\cygwin64\tmp\ccWFxnfo.ltrans10.ltrans.o
wrap_18000.7902                                   C:\cygwin64\tmp\ccWFxnfo.ltrans7.ltrans.o
                                                  C:\cygwin64\tmp\ccWFxnfo.ltrans24.ltrans.o
                                                  C:\cygwin64\tmp\ccWFxnfo.ltrans2.ltrans.o
writeByte.15769                                   C:\cygwin64\tmp\ccWFxnfo.ltrans14.ltrans.o
                                                  C:\cygwin64\tmp\ccWFxnfo.ltrans20.ltrans.o
writeByteCrc.15805                                C:\cygwin64\tmp\ccWFxnfo.ltrans14.ltrans.o
                                                  C:\cygwin64\tmp\ccWFxnfo.ltrans20.ltrans.o
writeEEPROM                                       C:\cygwin64\tmp\ccWFxnfo.ltrans22.ltrans.o
                                                  C:\cygwin64\tmp\ccWFxnfo.ltrans25.ltrans.o
                                                  C:\cygwin64\tmp\ccWFxnfo.ltrans15.ltrans.o
                                                  C:\cygwin64\tmp\ccWFxnfo.ltrans1.ltrans.o
                                                  C:\cygwin64\tmp\ccWFxnfo.ltrans0.ltrans.o
writeGPSFrame.10711                               C:\cygwin64\tmp\ccWFxnfo.ltrans18.ltrans.o
                                                  C:\cygwin64\tmp\ccWFxnfo.ltrans9.ltrans.o
writeMotors                                       C:\cygwin64\tmp\ccWFxnfo.ltrans12.ltrans.o
                                                  C:\cygwin64\tmp\ccWFxnfo.ltrans2.ltrans.o
write_p.4276                                      C:\cygwin64\tmp\ccWFxnfo.ltrans13.ltrans.o
                                                  C:\cygwin64\tmp\ccWFxnfo.ltrans16.ltrans.o
write_word.19021                                  C:\cygwin64\tmp\ccWFxnfo.ltrans6.ltrans.o
                                                  C:\cygwin64\tmp\ccWFxnfo.ltrans22.ltrans.o
writing.4275                                      C:\cygwin64\tmp\ccWFxnfo.ltrans13.ltrans.o
                                                  C:\cygwin64\tmp\ccWFxnfo.ltrans16.ltrans.o
ws2811DMAHandler                                  C:\cygwin64\tmp\ccWFxnfo.ltrans6.ltrans.o
                                                  C:\cygwin64\tmp\ccWFxnfo.ltrans0.ltrans.o
ws2811LedDataTransferInProgress                   C:\cygwin64\tmp\ccWFxnfo.ltrans11.ltrans.o
                                                  C:\cygwin64\tmp\ccWFxnfo.ltrans16.ltrans.o
                                                  C:\cygwin64\tmp\ccWFxnfo.ltrans6.ltrans.o
ws2811UpdateStrip                                 C:\cygwin64\tmp\ccWFxnfo.ltrans16.ltrans.o
                                                  C:\cygwin64\tmp\ccWFxnfo.ltrans11.ltrans.o
                                                  C:\cygwin64\tmp\ccWFxnfo.ltrans0.ltrans.o
xBusChannelCount.17880                            C:\cygwin64\tmp\ccWFxnfo.ltrans0.ltrans.o
                                                  C:\cygwin64\tmp\ccWFxnfo.ltrans8.ltrans.o
xBusChannelData.17872                             C:\cygwin64\tmp\ccWFxnfo.ltrans8.ltrans.o
                                                  C:\cygwin64\tmp\ccWFxnfo.ltrans7.ltrans.o
xBusDataIncoming.17876                            C:\cygwin64\tmp\ccWFxnfo.ltrans0.ltrans.o
                                                  C:\cygwin64\tmp\ccWFxnfo.ltrans8.ltrans.o
                                                  C:\cygwin64\tmp\ccWFxnfo.ltrans6.ltrans.o
xBusDataReceive.17785                             C:\cygwin64\tmp\ccWFxnfo.ltrans6.ltrans.o
                                                  C:\cygwin64\tmp\ccWFxnfo.ltrans0.ltrans.o
xBusFrame.17877                                   C:\cygwin64\tmp\ccWFxnfo.ltrans8.ltrans.o
                                                  C:\cygwin64\tmp\ccWFxnfo.ltrans6.ltrans.o
xBusFrameLength.17878                             C:\cygwin64\tmp\ccWFxnfo.ltrans8.ltrans.o
                                                  C:\cygwin64\tmp\ccWFxnfo.ltrans6.ltrans.o
xBusFramePosition.17875                           C:\cygwin64\tmp\ccWFxnfo.ltrans0.ltrans.o
                                                  C:\cygwin64\tmp\ccWFxnfo.ltrans8.ltrans.o
                                                  C:\cygwin64\tmp\ccWFxnfo.ltrans6.ltrans.o
xBusFrameReceived.17879                           C:\cygwin64\tmp\ccWFxnfo.ltrans0.ltrans.o
                                                  C:\cygwin64\tmp\ccWFxnfo.ltrans8.ltrans.o
                                                  C:\cygwin64\tmp\ccWFxnfo.ltrans6.ltrans.o
xBusFrameStatus                                   C:\cygwin64\tmp\ccWFxnfo.ltrans8.ltrans.o
                                                  C:\cygwin64\tmp\ccWFxnfo.ltrans15.ltrans.o
                                                  C:\cygwin64\tmp\ccWFxnfo.ltrans0.ltrans.o
xBusReadRawRC.17788                               C:\cygwin64\tmp\ccWFxnfo.ltrans7.ltrans.o
                                                  C:\cygwin64\tmp\ccWFxnfo.ltrans0.ltrans.o
xmitState.10890                                   C:\cygwin64\tmp\ccWFxnfo.ltrans0.ltrans.o
                                                  C:\cygwin64\tmp\ccWFxnfo.ltrans18.ltrans.o
                                                  C:\cygwin64\tmp\ccWFxnfo.ltrans2.ltrans.o
